
build/fsbl.elf:     file format elf32-littlearm


Disassembly of section .RESET:

2ffc0000 <Reset_Handler>:
2ffc0000:	f10c00c0 	cpsid	if
2ffc0004:	ee100fb0 	mrc	15, 0, r0, cr0, cr0, {5}
2ffc0008:	e2100003 	ands	r0, r0, #3

2ffc000c <goToSleep>:
2ffc000c:	1320f003 	wfine
2ffc0010:	1afffffd 	bne	2ffc000c <goToSleep>
2ffc0014:	ee110f10 	mrc	15, 0, r0, cr1, cr0, {0}
2ffc0018:	e3c00a01 	bic	r0, r0, #4096	@ 0x1000
2ffc001c:	e3c00004 	bic	r0, r0, #4
2ffc0020:	e3c00001 	bic	r0, r0, #1
2ffc0024:	e3c00b02 	bic	r0, r0, #2048	@ 0x800
2ffc0028:	e3c00a02 	bic	r0, r0, #8192	@ 0x2000
2ffc002c:	e3800101 	orr	r0, r0, #1073741824	@ 0x40000000
2ffc0030:	ee010f10 	mcr	15, 0, r0, cr1, cr0, {0}
2ffc0034:	f57ff06f 	isb	sy
2ffc0038:	ee110f30 	mrc	15, 0, r0, cr1, cr0, {1}
2ffc003c:	e3800002 	orr	r0, r0, #2
2ffc0040:	ee010f30 	mcr	15, 0, r0, cr1, cr0, {1}
2ffc0044:	e59f0048 	ldr	r0, [pc, #72]	@ 2ffc0094 <goToSleep+0x88>
2ffc0048:	ee0c0f10 	mcr	15, 0, r0, cr12, cr0, {0}
2ffc004c:	f57ff06f 	isb	sy
2ffc0050:	f1020011 	cps	#17
2ffc0054:	e59fd03c 	ldr	sp, [pc, #60]	@ 2ffc0098 <goToSleep+0x8c>
2ffc0058:	f1020012 	cps	#18
2ffc005c:	e59fd038 	ldr	sp, [pc, #56]	@ 2ffc009c <goToSleep+0x90>
2ffc0060:	f1020013 	cps	#19
2ffc0064:	e59fd034 	ldr	sp, [pc, #52]	@ 2ffc00a0 <goToSleep+0x94>
2ffc0068:	f1020017 	cps	#23
2ffc006c:	e59fd030 	ldr	sp, [pc, #48]	@ 2ffc00a4 <goToSleep+0x98>
2ffc0070:	f102001b 	cps	#27
2ffc0074:	e59fd02c 	ldr	sp, [pc, #44]	@ 2ffc00a8 <goToSleep+0x9c>
2ffc0078:	f102001f 	cps	#31
2ffc007c:	e59fd028 	ldr	sp, [pc, #40]	@ 2ffc00ac <goToSleep+0xa0>
2ffc0080:	fa000328 	blx	2ffc0d28 <SystemInit>
2ffc0084:	f10800c0 	cpsie	if
2ffc0088:	fa002237 	blx	2ffc896c <__libc_init_array>
2ffc008c:	fa00078a 	blx	2ffc1ebc <main>
2ffc0090:	e320f000 	nop	{0}
2ffc0094:	2ffc0101 	.word	0x2ffc0101
2ffc0098:	30000000 	.word	0x30000000
2ffc009c:	2ffffc00 	.word	0x2ffffc00
2ffc00a0:	2ffff400 	.word	0x2ffff400
2ffc00a4:	2ffff800 	.word	0x2ffff800
2ffc00a8:	2ffff000 	.word	0x2ffff000
2ffc00ac:	2fffec00 	.word	0x2fffec00
	...

2ffc0100 <Vectors>:
2ffc0100:	f8df f020 	ldr.w	pc, [pc, #32]	@ 2ffc0124 <Vectors+0x24>
2ffc0104:	f8df f020 	ldr.w	pc, [pc, #32]	@ 2ffc0128 <Vectors+0x28>
2ffc0108:	f8df f020 	ldr.w	pc, [pc, #32]	@ 2ffc012c <Vectors+0x2c>
2ffc010c:	f8df f020 	ldr.w	pc, [pc, #32]	@ 2ffc0130 <Vectors+0x30>
2ffc0110:	f8df f020 	ldr.w	pc, [pc, #32]	@ 2ffc0134 <Vectors+0x34>
2ffc0114:	f8df f020 	ldr.w	pc, [pc, #32]	@ 2ffc0138 <Vectors+0x38>
2ffc0118:	f8df f020 	ldr.w	pc, [pc, #32]	@ 2ffc013c <Vectors+0x3c>
2ffc011c:	f8df f020 	ldr.w	pc, [pc, #32]	@ 2ffc0140 <Vectors+0x40>
2ffc0120:	bf00      	nop
2ffc0122:	0000      	.short	0x0000
2ffc0124:	2ffc0000 	.word	0x2ffc0000
2ffc0128:	2ffc2e41 	.word	0x2ffc2e41
2ffc012c:	2ffc2e45 	.word	0x2ffc2e45
2ffc0130:	2ffc2e5d 	.word	0x2ffc2e5d
2ffc0134:	2ffc2e61 	.word	0x2ffc2e61
2ffc0138:	2ffc2e49 	.word	0x2ffc2e49
2ffc013c:	2ffc2e4d 	.word	0x2ffc2e4d
2ffc0140:	2ffc2e59 	.word	0x2ffc2e59

2ffc0144 <__do_global_dtors_aux>:
2ffc0144:	b510      	push	{r4, lr}
2ffc0146:	f24c 6478 	movw	r4, #50808	@ 0xc678
2ffc014a:	f6c2 74fc 	movt	r4, #12284	@ 0x2ffc
2ffc014e:	7823      	ldrb	r3, [r4, #0]
2ffc0150:	b963      	cbnz	r3, 2ffc016c <__do_global_dtors_aux+0x28>
2ffc0152:	f240 0300 	movw	r3, #0
2ffc0156:	f2c0 0300 	movt	r3, #0
2ffc015a:	b12b      	cbz	r3, 2ffc0168 <__do_global_dtors_aux+0x24>
2ffc015c:	f24a 0000 	movw	r0, #40960	@ 0xa000
2ffc0160:	f6c2 70fc 	movt	r0, #12284	@ 0x2ffc
2ffc0164:	f3af 8000 	nop.w
2ffc0168:	2301      	movs	r3, #1
2ffc016a:	7023      	strb	r3, [r4, #0]
2ffc016c:	bd10      	pop	{r4, pc}
2ffc016e:	bf00      	nop

2ffc0170 <frame_dummy>:
2ffc0170:	b508      	push	{r3, lr}
2ffc0172:	f240 0300 	movw	r3, #0
2ffc0176:	f2c0 0300 	movt	r3, #0
2ffc017a:	b14b      	cbz	r3, 2ffc0190 <frame_dummy+0x20>
2ffc017c:	f24a 4160 	movw	r1, #42080	@ 0xa460
2ffc0180:	f6c2 71fc 	movt	r1, #12284	@ 0x2ffc
2ffc0184:	f24a 0000 	movw	r0, #40960	@ 0xa000
2ffc0188:	f6c2 70fc 	movt	r0, #12284	@ 0x2ffc
2ffc018c:	f3af 8000 	nop.w
2ffc0190:	bd08      	pop	{r3, pc}
2ffc0192:	bf00      	nop

2ffc0194 <RESERVED_IRQHandler>:
2ffc0194:	b480      	push	{r7}
2ffc0196:	af00      	add	r7, sp, #0
2ffc0198:	bf00      	nop
2ffc019a:	46bd      	mov	sp, r7
2ffc019c:	f85d 7b04 	ldr.w	r7, [sp], #4
2ffc01a0:	4770      	bx	lr

2ffc01a2 <SGI0_IRQHandler>:
2ffc01a2:	b480      	push	{r7}
2ffc01a4:	af00      	add	r7, sp, #0
2ffc01a6:	bf00      	nop
2ffc01a8:	46bd      	mov	sp, r7
2ffc01aa:	f85d 7b04 	ldr.w	r7, [sp], #4
2ffc01ae:	4770      	bx	lr

2ffc01b0 <SGI1_IRQHandler>:
2ffc01b0:	b480      	push	{r7}
2ffc01b2:	af00      	add	r7, sp, #0
2ffc01b4:	bf00      	nop
2ffc01b6:	46bd      	mov	sp, r7
2ffc01b8:	f85d 7b04 	ldr.w	r7, [sp], #4
2ffc01bc:	4770      	bx	lr

2ffc01be <SGI2_IRQHandler>:
2ffc01be:	b480      	push	{r7}
2ffc01c0:	af00      	add	r7, sp, #0
2ffc01c2:	bf00      	nop
2ffc01c4:	46bd      	mov	sp, r7
2ffc01c6:	f85d 7b04 	ldr.w	r7, [sp], #4
2ffc01ca:	4770      	bx	lr

2ffc01cc <SGI3_IRQHandler>:
2ffc01cc:	b480      	push	{r7}
2ffc01ce:	af00      	add	r7, sp, #0
2ffc01d0:	bf00      	nop
2ffc01d2:	46bd      	mov	sp, r7
2ffc01d4:	f85d 7b04 	ldr.w	r7, [sp], #4
2ffc01d8:	4770      	bx	lr

2ffc01da <SGI4_IRQHandler>:
2ffc01da:	b480      	push	{r7}
2ffc01dc:	af00      	add	r7, sp, #0
2ffc01de:	bf00      	nop
2ffc01e0:	46bd      	mov	sp, r7
2ffc01e2:	f85d 7b04 	ldr.w	r7, [sp], #4
2ffc01e6:	4770      	bx	lr

2ffc01e8 <SGI5_IRQHandler>:
2ffc01e8:	b480      	push	{r7}
2ffc01ea:	af00      	add	r7, sp, #0
2ffc01ec:	bf00      	nop
2ffc01ee:	46bd      	mov	sp, r7
2ffc01f0:	f85d 7b04 	ldr.w	r7, [sp], #4
2ffc01f4:	4770      	bx	lr

2ffc01f6 <SGI6_IRQHandler>:
2ffc01f6:	b480      	push	{r7}
2ffc01f8:	af00      	add	r7, sp, #0
2ffc01fa:	bf00      	nop
2ffc01fc:	46bd      	mov	sp, r7
2ffc01fe:	f85d 7b04 	ldr.w	r7, [sp], #4
2ffc0202:	4770      	bx	lr

2ffc0204 <SGI7_IRQHandler>:
2ffc0204:	b480      	push	{r7}
2ffc0206:	af00      	add	r7, sp, #0
2ffc0208:	bf00      	nop
2ffc020a:	46bd      	mov	sp, r7
2ffc020c:	f85d 7b04 	ldr.w	r7, [sp], #4
2ffc0210:	4770      	bx	lr

2ffc0212 <SGI8_IRQHandler>:
2ffc0212:	b480      	push	{r7}
2ffc0214:	af00      	add	r7, sp, #0
2ffc0216:	bf00      	nop
2ffc0218:	46bd      	mov	sp, r7
2ffc021a:	f85d 7b04 	ldr.w	r7, [sp], #4
2ffc021e:	4770      	bx	lr

2ffc0220 <SGI9_IRQHandler>:
2ffc0220:	b480      	push	{r7}
2ffc0222:	af00      	add	r7, sp, #0
2ffc0224:	bf00      	nop
2ffc0226:	46bd      	mov	sp, r7
2ffc0228:	f85d 7b04 	ldr.w	r7, [sp], #4
2ffc022c:	4770      	bx	lr

2ffc022e <SGI10_IRQHandler>:
2ffc022e:	b480      	push	{r7}
2ffc0230:	af00      	add	r7, sp, #0
2ffc0232:	bf00      	nop
2ffc0234:	46bd      	mov	sp, r7
2ffc0236:	f85d 7b04 	ldr.w	r7, [sp], #4
2ffc023a:	4770      	bx	lr

2ffc023c <SGI11_IRQHandler>:
2ffc023c:	b480      	push	{r7}
2ffc023e:	af00      	add	r7, sp, #0
2ffc0240:	bf00      	nop
2ffc0242:	46bd      	mov	sp, r7
2ffc0244:	f85d 7b04 	ldr.w	r7, [sp], #4
2ffc0248:	4770      	bx	lr

2ffc024a <SGI12_IRQHandler>:
2ffc024a:	b480      	push	{r7}
2ffc024c:	af00      	add	r7, sp, #0
2ffc024e:	bf00      	nop
2ffc0250:	46bd      	mov	sp, r7
2ffc0252:	f85d 7b04 	ldr.w	r7, [sp], #4
2ffc0256:	4770      	bx	lr

2ffc0258 <SGI13_IRQHandler>:
2ffc0258:	b480      	push	{r7}
2ffc025a:	af00      	add	r7, sp, #0
2ffc025c:	bf00      	nop
2ffc025e:	46bd      	mov	sp, r7
2ffc0260:	f85d 7b04 	ldr.w	r7, [sp], #4
2ffc0264:	4770      	bx	lr

2ffc0266 <SGI14_IRQHandler>:
2ffc0266:	b480      	push	{r7}
2ffc0268:	af00      	add	r7, sp, #0
2ffc026a:	bf00      	nop
2ffc026c:	46bd      	mov	sp, r7
2ffc026e:	f85d 7b04 	ldr.w	r7, [sp], #4
2ffc0272:	4770      	bx	lr

2ffc0274 <SGI15_IRQHandler>:
2ffc0274:	b480      	push	{r7}
2ffc0276:	af00      	add	r7, sp, #0
2ffc0278:	bf00      	nop
2ffc027a:	46bd      	mov	sp, r7
2ffc027c:	f85d 7b04 	ldr.w	r7, [sp], #4
2ffc0280:	4770      	bx	lr

2ffc0282 <VirtualMaintenanceInterrupt_IRQHandler>:
2ffc0282:	b480      	push	{r7}
2ffc0284:	af00      	add	r7, sp, #0
2ffc0286:	bf00      	nop
2ffc0288:	46bd      	mov	sp, r7
2ffc028a:	f85d 7b04 	ldr.w	r7, [sp], #4
2ffc028e:	4770      	bx	lr

2ffc0290 <HypervisorTimer_IRQHandler>:
2ffc0290:	b480      	push	{r7}
2ffc0292:	af00      	add	r7, sp, #0
2ffc0294:	bf00      	nop
2ffc0296:	46bd      	mov	sp, r7
2ffc0298:	f85d 7b04 	ldr.w	r7, [sp], #4
2ffc029c:	4770      	bx	lr

2ffc029e <VirtualTimer_IRQHandler>:
2ffc029e:	b480      	push	{r7}
2ffc02a0:	af00      	add	r7, sp, #0
2ffc02a2:	bf00      	nop
2ffc02a4:	46bd      	mov	sp, r7
2ffc02a6:	f85d 7b04 	ldr.w	r7, [sp], #4
2ffc02aa:	4770      	bx	lr

2ffc02ac <Legacy_nFIQ_IRQHandler>:
2ffc02ac:	b480      	push	{r7}
2ffc02ae:	af00      	add	r7, sp, #0
2ffc02b0:	bf00      	nop
2ffc02b2:	46bd      	mov	sp, r7
2ffc02b4:	f85d 7b04 	ldr.w	r7, [sp], #4
2ffc02b8:	4770      	bx	lr

2ffc02ba <NonSecurePhysicalTimer_IRQHandler>:
2ffc02ba:	b480      	push	{r7}
2ffc02bc:	af00      	add	r7, sp, #0
2ffc02be:	bf00      	nop
2ffc02c0:	46bd      	mov	sp, r7
2ffc02c2:	f85d 7b04 	ldr.w	r7, [sp], #4
2ffc02c6:	4770      	bx	lr

2ffc02c8 <Legacy_nIRQ_IRQHandler>:
2ffc02c8:	b480      	push	{r7}
2ffc02ca:	af00      	add	r7, sp, #0
2ffc02cc:	bf00      	nop
2ffc02ce:	46bd      	mov	sp, r7
2ffc02d0:	f85d 7b04 	ldr.w	r7, [sp], #4
2ffc02d4:	4770      	bx	lr

2ffc02d6 <PVD_AVD_IRQHandler>:
2ffc02d6:	b480      	push	{r7}
2ffc02d8:	af00      	add	r7, sp, #0
2ffc02da:	bf00      	nop
2ffc02dc:	46bd      	mov	sp, r7
2ffc02de:	f85d 7b04 	ldr.w	r7, [sp], #4
2ffc02e2:	4770      	bx	lr

2ffc02e4 <TAMP_IRQHandler>:
2ffc02e4:	b480      	push	{r7}
2ffc02e6:	af00      	add	r7, sp, #0
2ffc02e8:	bf00      	nop
2ffc02ea:	46bd      	mov	sp, r7
2ffc02ec:	f85d 7b04 	ldr.w	r7, [sp], #4
2ffc02f0:	4770      	bx	lr

2ffc02f2 <RTC_WKUP_ALARM_IRQHandler>:
2ffc02f2:	b480      	push	{r7}
2ffc02f4:	af00      	add	r7, sp, #0
2ffc02f6:	bf00      	nop
2ffc02f8:	46bd      	mov	sp, r7
2ffc02fa:	f85d 7b04 	ldr.w	r7, [sp], #4
2ffc02fe:	4770      	bx	lr

2ffc0300 <TZC_IT_IRQHandler>:
2ffc0300:	b480      	push	{r7}
2ffc0302:	af00      	add	r7, sp, #0
2ffc0304:	bf00      	nop
2ffc0306:	46bd      	mov	sp, r7
2ffc0308:	f85d 7b04 	ldr.w	r7, [sp], #4
2ffc030c:	4770      	bx	lr

2ffc030e <RCC_IRQHandler>:
2ffc030e:	b480      	push	{r7}
2ffc0310:	af00      	add	r7, sp, #0
2ffc0312:	bf00      	nop
2ffc0314:	46bd      	mov	sp, r7
2ffc0316:	f85d 7b04 	ldr.w	r7, [sp], #4
2ffc031a:	4770      	bx	lr

2ffc031c <EXTI0_IRQHandler>:
2ffc031c:	b480      	push	{r7}
2ffc031e:	af00      	add	r7, sp, #0
2ffc0320:	bf00      	nop
2ffc0322:	46bd      	mov	sp, r7
2ffc0324:	f85d 7b04 	ldr.w	r7, [sp], #4
2ffc0328:	4770      	bx	lr

2ffc032a <EXTI1_IRQHandler>:
2ffc032a:	b480      	push	{r7}
2ffc032c:	af00      	add	r7, sp, #0
2ffc032e:	bf00      	nop
2ffc0330:	46bd      	mov	sp, r7
2ffc0332:	f85d 7b04 	ldr.w	r7, [sp], #4
2ffc0336:	4770      	bx	lr

2ffc0338 <EXTI2_IRQHandler>:
2ffc0338:	b480      	push	{r7}
2ffc033a:	af00      	add	r7, sp, #0
2ffc033c:	bf00      	nop
2ffc033e:	46bd      	mov	sp, r7
2ffc0340:	f85d 7b04 	ldr.w	r7, [sp], #4
2ffc0344:	4770      	bx	lr

2ffc0346 <EXTI3_IRQHandler>:
2ffc0346:	b480      	push	{r7}
2ffc0348:	af00      	add	r7, sp, #0
2ffc034a:	bf00      	nop
2ffc034c:	46bd      	mov	sp, r7
2ffc034e:	f85d 7b04 	ldr.w	r7, [sp], #4
2ffc0352:	4770      	bx	lr

2ffc0354 <EXTI4_IRQHandler>:
2ffc0354:	b480      	push	{r7}
2ffc0356:	af00      	add	r7, sp, #0
2ffc0358:	bf00      	nop
2ffc035a:	46bd      	mov	sp, r7
2ffc035c:	f85d 7b04 	ldr.w	r7, [sp], #4
2ffc0360:	4770      	bx	lr

2ffc0362 <DMA1_Stream0_IRQHandler>:
2ffc0362:	b480      	push	{r7}
2ffc0364:	af00      	add	r7, sp, #0
2ffc0366:	bf00      	nop
2ffc0368:	46bd      	mov	sp, r7
2ffc036a:	f85d 7b04 	ldr.w	r7, [sp], #4
2ffc036e:	4770      	bx	lr

2ffc0370 <DMA1_Stream1_IRQHandler>:
2ffc0370:	b480      	push	{r7}
2ffc0372:	af00      	add	r7, sp, #0
2ffc0374:	bf00      	nop
2ffc0376:	46bd      	mov	sp, r7
2ffc0378:	f85d 7b04 	ldr.w	r7, [sp], #4
2ffc037c:	4770      	bx	lr

2ffc037e <DMA1_Stream2_IRQHandler>:
2ffc037e:	b480      	push	{r7}
2ffc0380:	af00      	add	r7, sp, #0
2ffc0382:	bf00      	nop
2ffc0384:	46bd      	mov	sp, r7
2ffc0386:	f85d 7b04 	ldr.w	r7, [sp], #4
2ffc038a:	4770      	bx	lr

2ffc038c <DMA1_Stream3_IRQHandler>:
2ffc038c:	b480      	push	{r7}
2ffc038e:	af00      	add	r7, sp, #0
2ffc0390:	bf00      	nop
2ffc0392:	46bd      	mov	sp, r7
2ffc0394:	f85d 7b04 	ldr.w	r7, [sp], #4
2ffc0398:	4770      	bx	lr

2ffc039a <DMA1_Stream4_IRQHandler>:
2ffc039a:	b480      	push	{r7}
2ffc039c:	af00      	add	r7, sp, #0
2ffc039e:	bf00      	nop
2ffc03a0:	46bd      	mov	sp, r7
2ffc03a2:	f85d 7b04 	ldr.w	r7, [sp], #4
2ffc03a6:	4770      	bx	lr

2ffc03a8 <DMA1_Stream5_IRQHandler>:
2ffc03a8:	b480      	push	{r7}
2ffc03aa:	af00      	add	r7, sp, #0
2ffc03ac:	bf00      	nop
2ffc03ae:	46bd      	mov	sp, r7
2ffc03b0:	f85d 7b04 	ldr.w	r7, [sp], #4
2ffc03b4:	4770      	bx	lr

2ffc03b6 <DMA1_Stream6_IRQHandler>:
2ffc03b6:	b480      	push	{r7}
2ffc03b8:	af00      	add	r7, sp, #0
2ffc03ba:	bf00      	nop
2ffc03bc:	46bd      	mov	sp, r7
2ffc03be:	f85d 7b04 	ldr.w	r7, [sp], #4
2ffc03c2:	4770      	bx	lr

2ffc03c4 <ADC1_IRQHandler>:
2ffc03c4:	b480      	push	{r7}
2ffc03c6:	af00      	add	r7, sp, #0
2ffc03c8:	bf00      	nop
2ffc03ca:	46bd      	mov	sp, r7
2ffc03cc:	f85d 7b04 	ldr.w	r7, [sp], #4
2ffc03d0:	4770      	bx	lr

2ffc03d2 <ADC2_IRQHandler>:
2ffc03d2:	b480      	push	{r7}
2ffc03d4:	af00      	add	r7, sp, #0
2ffc03d6:	bf00      	nop
2ffc03d8:	46bd      	mov	sp, r7
2ffc03da:	f85d 7b04 	ldr.w	r7, [sp], #4
2ffc03de:	4770      	bx	lr

2ffc03e0 <FDCAN1_IT0_IRQHandler>:
2ffc03e0:	b480      	push	{r7}
2ffc03e2:	af00      	add	r7, sp, #0
2ffc03e4:	bf00      	nop
2ffc03e6:	46bd      	mov	sp, r7
2ffc03e8:	f85d 7b04 	ldr.w	r7, [sp], #4
2ffc03ec:	4770      	bx	lr

2ffc03ee <FDCAN2_IT0_IRQHandler>:
2ffc03ee:	b480      	push	{r7}
2ffc03f0:	af00      	add	r7, sp, #0
2ffc03f2:	bf00      	nop
2ffc03f4:	46bd      	mov	sp, r7
2ffc03f6:	f85d 7b04 	ldr.w	r7, [sp], #4
2ffc03fa:	4770      	bx	lr

2ffc03fc <FDCAN1_IT1_IRQHandler>:
2ffc03fc:	b480      	push	{r7}
2ffc03fe:	af00      	add	r7, sp, #0
2ffc0400:	bf00      	nop
2ffc0402:	46bd      	mov	sp, r7
2ffc0404:	f85d 7b04 	ldr.w	r7, [sp], #4
2ffc0408:	4770      	bx	lr

2ffc040a <FDCAN2_IT1_IRQHandler>:
2ffc040a:	b480      	push	{r7}
2ffc040c:	af00      	add	r7, sp, #0
2ffc040e:	bf00      	nop
2ffc0410:	46bd      	mov	sp, r7
2ffc0412:	f85d 7b04 	ldr.w	r7, [sp], #4
2ffc0416:	4770      	bx	lr

2ffc0418 <EXTI5_IRQHandler>:
2ffc0418:	b480      	push	{r7}
2ffc041a:	af00      	add	r7, sp, #0
2ffc041c:	bf00      	nop
2ffc041e:	46bd      	mov	sp, r7
2ffc0420:	f85d 7b04 	ldr.w	r7, [sp], #4
2ffc0424:	4770      	bx	lr

2ffc0426 <TIM1_BRK_IRQHandler>:
2ffc0426:	b480      	push	{r7}
2ffc0428:	af00      	add	r7, sp, #0
2ffc042a:	bf00      	nop
2ffc042c:	46bd      	mov	sp, r7
2ffc042e:	f85d 7b04 	ldr.w	r7, [sp], #4
2ffc0432:	4770      	bx	lr

2ffc0434 <TIM1_UP_IRQHandler>:
2ffc0434:	b480      	push	{r7}
2ffc0436:	af00      	add	r7, sp, #0
2ffc0438:	bf00      	nop
2ffc043a:	46bd      	mov	sp, r7
2ffc043c:	f85d 7b04 	ldr.w	r7, [sp], #4
2ffc0440:	4770      	bx	lr

2ffc0442 <TIM1_TRG_COM_IRQHandler>:
2ffc0442:	b480      	push	{r7}
2ffc0444:	af00      	add	r7, sp, #0
2ffc0446:	bf00      	nop
2ffc0448:	46bd      	mov	sp, r7
2ffc044a:	f85d 7b04 	ldr.w	r7, [sp], #4
2ffc044e:	4770      	bx	lr

2ffc0450 <TIM1_CC_IRQHandler>:
2ffc0450:	b480      	push	{r7}
2ffc0452:	af00      	add	r7, sp, #0
2ffc0454:	bf00      	nop
2ffc0456:	46bd      	mov	sp, r7
2ffc0458:	f85d 7b04 	ldr.w	r7, [sp], #4
2ffc045c:	4770      	bx	lr

2ffc045e <TIM2_IRQHandler>:
2ffc045e:	b480      	push	{r7}
2ffc0460:	af00      	add	r7, sp, #0
2ffc0462:	bf00      	nop
2ffc0464:	46bd      	mov	sp, r7
2ffc0466:	f85d 7b04 	ldr.w	r7, [sp], #4
2ffc046a:	4770      	bx	lr

2ffc046c <TIM3_IRQHandler>:
2ffc046c:	b480      	push	{r7}
2ffc046e:	af00      	add	r7, sp, #0
2ffc0470:	bf00      	nop
2ffc0472:	46bd      	mov	sp, r7
2ffc0474:	f85d 7b04 	ldr.w	r7, [sp], #4
2ffc0478:	4770      	bx	lr

2ffc047a <TIM4_IRQHandler>:
2ffc047a:	b480      	push	{r7}
2ffc047c:	af00      	add	r7, sp, #0
2ffc047e:	bf00      	nop
2ffc0480:	46bd      	mov	sp, r7
2ffc0482:	f85d 7b04 	ldr.w	r7, [sp], #4
2ffc0486:	4770      	bx	lr

2ffc0488 <I2C1_EV_IRQHandler>:
2ffc0488:	b480      	push	{r7}
2ffc048a:	af00      	add	r7, sp, #0
2ffc048c:	bf00      	nop
2ffc048e:	46bd      	mov	sp, r7
2ffc0490:	f85d 7b04 	ldr.w	r7, [sp], #4
2ffc0494:	4770      	bx	lr

2ffc0496 <I2C1_ER_IRQHandler>:
2ffc0496:	b480      	push	{r7}
2ffc0498:	af00      	add	r7, sp, #0
2ffc049a:	bf00      	nop
2ffc049c:	46bd      	mov	sp, r7
2ffc049e:	f85d 7b04 	ldr.w	r7, [sp], #4
2ffc04a2:	4770      	bx	lr

2ffc04a4 <I2C2_EV_IRQHandler>:
2ffc04a4:	b480      	push	{r7}
2ffc04a6:	af00      	add	r7, sp, #0
2ffc04a8:	bf00      	nop
2ffc04aa:	46bd      	mov	sp, r7
2ffc04ac:	f85d 7b04 	ldr.w	r7, [sp], #4
2ffc04b0:	4770      	bx	lr

2ffc04b2 <I2C2_ER_IRQHandler>:
2ffc04b2:	b480      	push	{r7}
2ffc04b4:	af00      	add	r7, sp, #0
2ffc04b6:	bf00      	nop
2ffc04b8:	46bd      	mov	sp, r7
2ffc04ba:	f85d 7b04 	ldr.w	r7, [sp], #4
2ffc04be:	4770      	bx	lr

2ffc04c0 <SPI1_IRQHandler>:
2ffc04c0:	b480      	push	{r7}
2ffc04c2:	af00      	add	r7, sp, #0
2ffc04c4:	bf00      	nop
2ffc04c6:	46bd      	mov	sp, r7
2ffc04c8:	f85d 7b04 	ldr.w	r7, [sp], #4
2ffc04cc:	4770      	bx	lr

2ffc04ce <SPI2_IRQHandler>:
2ffc04ce:	b480      	push	{r7}
2ffc04d0:	af00      	add	r7, sp, #0
2ffc04d2:	bf00      	nop
2ffc04d4:	46bd      	mov	sp, r7
2ffc04d6:	f85d 7b04 	ldr.w	r7, [sp], #4
2ffc04da:	4770      	bx	lr

2ffc04dc <USART1_IRQHandler>:
2ffc04dc:	b480      	push	{r7}
2ffc04de:	af00      	add	r7, sp, #0
2ffc04e0:	bf00      	nop
2ffc04e2:	46bd      	mov	sp, r7
2ffc04e4:	f85d 7b04 	ldr.w	r7, [sp], #4
2ffc04e8:	4770      	bx	lr

2ffc04ea <USART2_IRQHandler>:
2ffc04ea:	b480      	push	{r7}
2ffc04ec:	af00      	add	r7, sp, #0
2ffc04ee:	bf00      	nop
2ffc04f0:	46bd      	mov	sp, r7
2ffc04f2:	f85d 7b04 	ldr.w	r7, [sp], #4
2ffc04f6:	4770      	bx	lr

2ffc04f8 <USART3_IRQHandler>:
2ffc04f8:	b480      	push	{r7}
2ffc04fa:	af00      	add	r7, sp, #0
2ffc04fc:	bf00      	nop
2ffc04fe:	46bd      	mov	sp, r7
2ffc0500:	f85d 7b04 	ldr.w	r7, [sp], #4
2ffc0504:	4770      	bx	lr

2ffc0506 <EXTI10_IRQHandler>:
2ffc0506:	b480      	push	{r7}
2ffc0508:	af00      	add	r7, sp, #0
2ffc050a:	bf00      	nop
2ffc050c:	46bd      	mov	sp, r7
2ffc050e:	f85d 7b04 	ldr.w	r7, [sp], #4
2ffc0512:	4770      	bx	lr

2ffc0514 <RTC_TIMESTAMP_IRQHandler>:
2ffc0514:	b480      	push	{r7}
2ffc0516:	af00      	add	r7, sp, #0
2ffc0518:	bf00      	nop
2ffc051a:	46bd      	mov	sp, r7
2ffc051c:	f85d 7b04 	ldr.w	r7, [sp], #4
2ffc0520:	4770      	bx	lr

2ffc0522 <EXTI11_IRQHandler>:
2ffc0522:	b480      	push	{r7}
2ffc0524:	af00      	add	r7, sp, #0
2ffc0526:	bf00      	nop
2ffc0528:	46bd      	mov	sp, r7
2ffc052a:	f85d 7b04 	ldr.w	r7, [sp], #4
2ffc052e:	4770      	bx	lr

2ffc0530 <TIM8_BRK_IRQHandler>:
2ffc0530:	b480      	push	{r7}
2ffc0532:	af00      	add	r7, sp, #0
2ffc0534:	bf00      	nop
2ffc0536:	46bd      	mov	sp, r7
2ffc0538:	f85d 7b04 	ldr.w	r7, [sp], #4
2ffc053c:	4770      	bx	lr

2ffc053e <TIM8_UP_IRQHandler>:
2ffc053e:	b480      	push	{r7}
2ffc0540:	af00      	add	r7, sp, #0
2ffc0542:	bf00      	nop
2ffc0544:	46bd      	mov	sp, r7
2ffc0546:	f85d 7b04 	ldr.w	r7, [sp], #4
2ffc054a:	4770      	bx	lr

2ffc054c <TIM8_TRG_COM_IRQHandler>:
2ffc054c:	b480      	push	{r7}
2ffc054e:	af00      	add	r7, sp, #0
2ffc0550:	bf00      	nop
2ffc0552:	46bd      	mov	sp, r7
2ffc0554:	f85d 7b04 	ldr.w	r7, [sp], #4
2ffc0558:	4770      	bx	lr

2ffc055a <TIM8_CC_IRQHandler>:
2ffc055a:	b480      	push	{r7}
2ffc055c:	af00      	add	r7, sp, #0
2ffc055e:	bf00      	nop
2ffc0560:	46bd      	mov	sp, r7
2ffc0562:	f85d 7b04 	ldr.w	r7, [sp], #4
2ffc0566:	4770      	bx	lr

2ffc0568 <DMA1_Stream7_IRQHandler>:
2ffc0568:	b480      	push	{r7}
2ffc056a:	af00      	add	r7, sp, #0
2ffc056c:	bf00      	nop
2ffc056e:	46bd      	mov	sp, r7
2ffc0570:	f85d 7b04 	ldr.w	r7, [sp], #4
2ffc0574:	4770      	bx	lr

2ffc0576 <FMC_IRQHandler>:
2ffc0576:	b480      	push	{r7}
2ffc0578:	af00      	add	r7, sp, #0
2ffc057a:	bf00      	nop
2ffc057c:	46bd      	mov	sp, r7
2ffc057e:	f85d 7b04 	ldr.w	r7, [sp], #4
2ffc0582:	4770      	bx	lr

2ffc0584 <SDMMC1_IRQHandler>:
2ffc0584:	b480      	push	{r7}
2ffc0586:	af00      	add	r7, sp, #0
2ffc0588:	bf00      	nop
2ffc058a:	46bd      	mov	sp, r7
2ffc058c:	f85d 7b04 	ldr.w	r7, [sp], #4
2ffc0590:	4770      	bx	lr

2ffc0592 <TIM5_IRQHandler>:
2ffc0592:	b480      	push	{r7}
2ffc0594:	af00      	add	r7, sp, #0
2ffc0596:	bf00      	nop
2ffc0598:	46bd      	mov	sp, r7
2ffc059a:	f85d 7b04 	ldr.w	r7, [sp], #4
2ffc059e:	4770      	bx	lr

2ffc05a0 <SPI3_IRQHandler>:
2ffc05a0:	b480      	push	{r7}
2ffc05a2:	af00      	add	r7, sp, #0
2ffc05a4:	bf00      	nop
2ffc05a6:	46bd      	mov	sp, r7
2ffc05a8:	f85d 7b04 	ldr.w	r7, [sp], #4
2ffc05ac:	4770      	bx	lr

2ffc05ae <UART4_IRQHandler>:
2ffc05ae:	b480      	push	{r7}
2ffc05b0:	af00      	add	r7, sp, #0
2ffc05b2:	bf00      	nop
2ffc05b4:	46bd      	mov	sp, r7
2ffc05b6:	f85d 7b04 	ldr.w	r7, [sp], #4
2ffc05ba:	4770      	bx	lr

2ffc05bc <UART5_IRQHandler>:
2ffc05bc:	b480      	push	{r7}
2ffc05be:	af00      	add	r7, sp, #0
2ffc05c0:	bf00      	nop
2ffc05c2:	46bd      	mov	sp, r7
2ffc05c4:	f85d 7b04 	ldr.w	r7, [sp], #4
2ffc05c8:	4770      	bx	lr

2ffc05ca <TIM6_IRQHandler>:
2ffc05ca:	b480      	push	{r7}
2ffc05cc:	af00      	add	r7, sp, #0
2ffc05ce:	bf00      	nop
2ffc05d0:	46bd      	mov	sp, r7
2ffc05d2:	f85d 7b04 	ldr.w	r7, [sp], #4
2ffc05d6:	4770      	bx	lr

2ffc05d8 <TIM7_IRQHandler>:
2ffc05d8:	b480      	push	{r7}
2ffc05da:	af00      	add	r7, sp, #0
2ffc05dc:	bf00      	nop
2ffc05de:	46bd      	mov	sp, r7
2ffc05e0:	f85d 7b04 	ldr.w	r7, [sp], #4
2ffc05e4:	4770      	bx	lr

2ffc05e6 <DMA2_Stream0_IRQHandler>:
2ffc05e6:	b480      	push	{r7}
2ffc05e8:	af00      	add	r7, sp, #0
2ffc05ea:	bf00      	nop
2ffc05ec:	46bd      	mov	sp, r7
2ffc05ee:	f85d 7b04 	ldr.w	r7, [sp], #4
2ffc05f2:	4770      	bx	lr

2ffc05f4 <DMA2_Stream1_IRQHandler>:
2ffc05f4:	b480      	push	{r7}
2ffc05f6:	af00      	add	r7, sp, #0
2ffc05f8:	bf00      	nop
2ffc05fa:	46bd      	mov	sp, r7
2ffc05fc:	f85d 7b04 	ldr.w	r7, [sp], #4
2ffc0600:	4770      	bx	lr

2ffc0602 <DMA2_Stream2_IRQHandler>:
2ffc0602:	b480      	push	{r7}
2ffc0604:	af00      	add	r7, sp, #0
2ffc0606:	bf00      	nop
2ffc0608:	46bd      	mov	sp, r7
2ffc060a:	f85d 7b04 	ldr.w	r7, [sp], #4
2ffc060e:	4770      	bx	lr

2ffc0610 <DMA2_Stream3_IRQHandler>:
2ffc0610:	b480      	push	{r7}
2ffc0612:	af00      	add	r7, sp, #0
2ffc0614:	bf00      	nop
2ffc0616:	46bd      	mov	sp, r7
2ffc0618:	f85d 7b04 	ldr.w	r7, [sp], #4
2ffc061c:	4770      	bx	lr

2ffc061e <DMA2_Stream4_IRQHandler>:
2ffc061e:	b480      	push	{r7}
2ffc0620:	af00      	add	r7, sp, #0
2ffc0622:	bf00      	nop
2ffc0624:	46bd      	mov	sp, r7
2ffc0626:	f85d 7b04 	ldr.w	r7, [sp], #4
2ffc062a:	4770      	bx	lr

2ffc062c <ETH1_IRQHandler>:
2ffc062c:	b480      	push	{r7}
2ffc062e:	af00      	add	r7, sp, #0
2ffc0630:	bf00      	nop
2ffc0632:	46bd      	mov	sp, r7
2ffc0634:	f85d 7b04 	ldr.w	r7, [sp], #4
2ffc0638:	4770      	bx	lr

2ffc063a <ETH1_WKUP_IRQHandler>:
2ffc063a:	b480      	push	{r7}
2ffc063c:	af00      	add	r7, sp, #0
2ffc063e:	bf00      	nop
2ffc0640:	46bd      	mov	sp, r7
2ffc0642:	f85d 7b04 	ldr.w	r7, [sp], #4
2ffc0646:	4770      	bx	lr

2ffc0648 <FDCAN_CAL_IRQHandler>:
2ffc0648:	b480      	push	{r7}
2ffc064a:	af00      	add	r7, sp, #0
2ffc064c:	bf00      	nop
2ffc064e:	46bd      	mov	sp, r7
2ffc0650:	f85d 7b04 	ldr.w	r7, [sp], #4
2ffc0654:	4770      	bx	lr

2ffc0656 <EXTI6_IRQHandler>:
2ffc0656:	b480      	push	{r7}
2ffc0658:	af00      	add	r7, sp, #0
2ffc065a:	bf00      	nop
2ffc065c:	46bd      	mov	sp, r7
2ffc065e:	f85d 7b04 	ldr.w	r7, [sp], #4
2ffc0662:	4770      	bx	lr

2ffc0664 <EXTI7_IRQHandler>:
2ffc0664:	b480      	push	{r7}
2ffc0666:	af00      	add	r7, sp, #0
2ffc0668:	bf00      	nop
2ffc066a:	46bd      	mov	sp, r7
2ffc066c:	f85d 7b04 	ldr.w	r7, [sp], #4
2ffc0670:	4770      	bx	lr

2ffc0672 <EXTI8_IRQHandler>:
2ffc0672:	b480      	push	{r7}
2ffc0674:	af00      	add	r7, sp, #0
2ffc0676:	bf00      	nop
2ffc0678:	46bd      	mov	sp, r7
2ffc067a:	f85d 7b04 	ldr.w	r7, [sp], #4
2ffc067e:	4770      	bx	lr

2ffc0680 <EXTI9_IRQHandler>:
2ffc0680:	b480      	push	{r7}
2ffc0682:	af00      	add	r7, sp, #0
2ffc0684:	bf00      	nop
2ffc0686:	46bd      	mov	sp, r7
2ffc0688:	f85d 7b04 	ldr.w	r7, [sp], #4
2ffc068c:	4770      	bx	lr

2ffc068e <DMA2_Stream5_IRQHandler>:
2ffc068e:	b480      	push	{r7}
2ffc0690:	af00      	add	r7, sp, #0
2ffc0692:	bf00      	nop
2ffc0694:	46bd      	mov	sp, r7
2ffc0696:	f85d 7b04 	ldr.w	r7, [sp], #4
2ffc069a:	4770      	bx	lr

2ffc069c <DMA2_Stream6_IRQHandler>:
2ffc069c:	b480      	push	{r7}
2ffc069e:	af00      	add	r7, sp, #0
2ffc06a0:	bf00      	nop
2ffc06a2:	46bd      	mov	sp, r7
2ffc06a4:	f85d 7b04 	ldr.w	r7, [sp], #4
2ffc06a8:	4770      	bx	lr

2ffc06aa <DMA2_Stream7_IRQHandler>:
2ffc06aa:	b480      	push	{r7}
2ffc06ac:	af00      	add	r7, sp, #0
2ffc06ae:	bf00      	nop
2ffc06b0:	46bd      	mov	sp, r7
2ffc06b2:	f85d 7b04 	ldr.w	r7, [sp], #4
2ffc06b6:	4770      	bx	lr

2ffc06b8 <USART6_IRQHandler>:
2ffc06b8:	b480      	push	{r7}
2ffc06ba:	af00      	add	r7, sp, #0
2ffc06bc:	bf00      	nop
2ffc06be:	46bd      	mov	sp, r7
2ffc06c0:	f85d 7b04 	ldr.w	r7, [sp], #4
2ffc06c4:	4770      	bx	lr

2ffc06c6 <I2C3_EV_IRQHandler>:
2ffc06c6:	b480      	push	{r7}
2ffc06c8:	af00      	add	r7, sp, #0
2ffc06ca:	bf00      	nop
2ffc06cc:	46bd      	mov	sp, r7
2ffc06ce:	f85d 7b04 	ldr.w	r7, [sp], #4
2ffc06d2:	4770      	bx	lr

2ffc06d4 <I2C3_ER_IRQHandler>:
2ffc06d4:	b480      	push	{r7}
2ffc06d6:	af00      	add	r7, sp, #0
2ffc06d8:	bf00      	nop
2ffc06da:	46bd      	mov	sp, r7
2ffc06dc:	f85d 7b04 	ldr.w	r7, [sp], #4
2ffc06e0:	4770      	bx	lr

2ffc06e2 <USBH_PORT1_IRQHandler>:
2ffc06e2:	b480      	push	{r7}
2ffc06e4:	af00      	add	r7, sp, #0
2ffc06e6:	bf00      	nop
2ffc06e8:	46bd      	mov	sp, r7
2ffc06ea:	f85d 7b04 	ldr.w	r7, [sp], #4
2ffc06ee:	4770      	bx	lr

2ffc06f0 <USBH_PORT2_IRQHandler>:
2ffc06f0:	b480      	push	{r7}
2ffc06f2:	af00      	add	r7, sp, #0
2ffc06f4:	bf00      	nop
2ffc06f6:	46bd      	mov	sp, r7
2ffc06f8:	f85d 7b04 	ldr.w	r7, [sp], #4
2ffc06fc:	4770      	bx	lr

2ffc06fe <EXTI12_IRQHandler>:
2ffc06fe:	b480      	push	{r7}
2ffc0700:	af00      	add	r7, sp, #0
2ffc0702:	bf00      	nop
2ffc0704:	46bd      	mov	sp, r7
2ffc0706:	f85d 7b04 	ldr.w	r7, [sp], #4
2ffc070a:	4770      	bx	lr

2ffc070c <EXTI13_IRQHandler>:
2ffc070c:	b480      	push	{r7}
2ffc070e:	af00      	add	r7, sp, #0
2ffc0710:	bf00      	nop
2ffc0712:	46bd      	mov	sp, r7
2ffc0714:	f85d 7b04 	ldr.w	r7, [sp], #4
2ffc0718:	4770      	bx	lr

2ffc071a <DCMIPP_IRQHandler>:
2ffc071a:	b480      	push	{r7}
2ffc071c:	af00      	add	r7, sp, #0
2ffc071e:	bf00      	nop
2ffc0720:	46bd      	mov	sp, r7
2ffc0722:	f85d 7b04 	ldr.w	r7, [sp], #4
2ffc0726:	4770      	bx	lr

2ffc0728 <CRYP1_IRQHandler>:
2ffc0728:	b480      	push	{r7}
2ffc072a:	af00      	add	r7, sp, #0
2ffc072c:	bf00      	nop
2ffc072e:	46bd      	mov	sp, r7
2ffc0730:	f85d 7b04 	ldr.w	r7, [sp], #4
2ffc0734:	4770      	bx	lr

2ffc0736 <HASH1_IRQHandler>:
2ffc0736:	b480      	push	{r7}
2ffc0738:	af00      	add	r7, sp, #0
2ffc073a:	bf00      	nop
2ffc073c:	46bd      	mov	sp, r7
2ffc073e:	f85d 7b04 	ldr.w	r7, [sp], #4
2ffc0742:	4770      	bx	lr

2ffc0744 <SAES_IRQHandler>:
2ffc0744:	b480      	push	{r7}
2ffc0746:	af00      	add	r7, sp, #0
2ffc0748:	bf00      	nop
2ffc074a:	46bd      	mov	sp, r7
2ffc074c:	f85d 7b04 	ldr.w	r7, [sp], #4
2ffc0750:	4770      	bx	lr

2ffc0752 <UART7_IRQHandler>:
2ffc0752:	b480      	push	{r7}
2ffc0754:	af00      	add	r7, sp, #0
2ffc0756:	bf00      	nop
2ffc0758:	46bd      	mov	sp, r7
2ffc075a:	f85d 7b04 	ldr.w	r7, [sp], #4
2ffc075e:	4770      	bx	lr

2ffc0760 <UART8_IRQHandler>:
2ffc0760:	b480      	push	{r7}
2ffc0762:	af00      	add	r7, sp, #0
2ffc0764:	bf00      	nop
2ffc0766:	46bd      	mov	sp, r7
2ffc0768:	f85d 7b04 	ldr.w	r7, [sp], #4
2ffc076c:	4770      	bx	lr

2ffc076e <SPI4_IRQHandler>:
2ffc076e:	b480      	push	{r7}
2ffc0770:	af00      	add	r7, sp, #0
2ffc0772:	bf00      	nop
2ffc0774:	46bd      	mov	sp, r7
2ffc0776:	f85d 7b04 	ldr.w	r7, [sp], #4
2ffc077a:	4770      	bx	lr

2ffc077c <SPI5_IRQHandler>:
2ffc077c:	b480      	push	{r7}
2ffc077e:	af00      	add	r7, sp, #0
2ffc0780:	bf00      	nop
2ffc0782:	46bd      	mov	sp, r7
2ffc0784:	f85d 7b04 	ldr.w	r7, [sp], #4
2ffc0788:	4770      	bx	lr

2ffc078a <SAI1_IRQHandler>:
2ffc078a:	b480      	push	{r7}
2ffc078c:	af00      	add	r7, sp, #0
2ffc078e:	bf00      	nop
2ffc0790:	46bd      	mov	sp, r7
2ffc0792:	f85d 7b04 	ldr.w	r7, [sp], #4
2ffc0796:	4770      	bx	lr

2ffc0798 <LTDC_IRQHandler>:
2ffc0798:	b480      	push	{r7}
2ffc079a:	af00      	add	r7, sp, #0
2ffc079c:	bf00      	nop
2ffc079e:	46bd      	mov	sp, r7
2ffc07a0:	f85d 7b04 	ldr.w	r7, [sp], #4
2ffc07a4:	4770      	bx	lr

2ffc07a6 <LTDC_ER_IRQHandler>:
2ffc07a6:	b480      	push	{r7}
2ffc07a8:	af00      	add	r7, sp, #0
2ffc07aa:	bf00      	nop
2ffc07ac:	46bd      	mov	sp, r7
2ffc07ae:	f85d 7b04 	ldr.w	r7, [sp], #4
2ffc07b2:	4770      	bx	lr

2ffc07b4 <SAI2_IRQHandler>:
2ffc07b4:	b480      	push	{r7}
2ffc07b6:	af00      	add	r7, sp, #0
2ffc07b8:	bf00      	nop
2ffc07ba:	46bd      	mov	sp, r7
2ffc07bc:	f85d 7b04 	ldr.w	r7, [sp], #4
2ffc07c0:	4770      	bx	lr

2ffc07c2 <QUADSPI_IRQHandler>:
2ffc07c2:	b480      	push	{r7}
2ffc07c4:	af00      	add	r7, sp, #0
2ffc07c6:	bf00      	nop
2ffc07c8:	46bd      	mov	sp, r7
2ffc07ca:	f85d 7b04 	ldr.w	r7, [sp], #4
2ffc07ce:	4770      	bx	lr

2ffc07d0 <LPTIM1_IRQHandler>:
2ffc07d0:	b480      	push	{r7}
2ffc07d2:	af00      	add	r7, sp, #0
2ffc07d4:	bf00      	nop
2ffc07d6:	46bd      	mov	sp, r7
2ffc07d8:	f85d 7b04 	ldr.w	r7, [sp], #4
2ffc07dc:	4770      	bx	lr

2ffc07de <I2C4_EV_IRQHandler>:
2ffc07de:	b480      	push	{r7}
2ffc07e0:	af00      	add	r7, sp, #0
2ffc07e2:	bf00      	nop
2ffc07e4:	46bd      	mov	sp, r7
2ffc07e6:	f85d 7b04 	ldr.w	r7, [sp], #4
2ffc07ea:	4770      	bx	lr

2ffc07ec <I2C4_ER_IRQHandler>:
2ffc07ec:	b480      	push	{r7}
2ffc07ee:	af00      	add	r7, sp, #0
2ffc07f0:	bf00      	nop
2ffc07f2:	46bd      	mov	sp, r7
2ffc07f4:	f85d 7b04 	ldr.w	r7, [sp], #4
2ffc07f8:	4770      	bx	lr

2ffc07fa <SPDIF_RX_IRQHandler>:
2ffc07fa:	b480      	push	{r7}
2ffc07fc:	af00      	add	r7, sp, #0
2ffc07fe:	bf00      	nop
2ffc0800:	46bd      	mov	sp, r7
2ffc0802:	f85d 7b04 	ldr.w	r7, [sp], #4
2ffc0806:	4770      	bx	lr

2ffc0808 <OTG_IRQHandler>:
2ffc0808:	b480      	push	{r7}
2ffc080a:	af00      	add	r7, sp, #0
2ffc080c:	bf00      	nop
2ffc080e:	46bd      	mov	sp, r7
2ffc0810:	f85d 7b04 	ldr.w	r7, [sp], #4
2ffc0814:	4770      	bx	lr

2ffc0816 <ETH2_IRQHandler>:
2ffc0816:	b480      	push	{r7}
2ffc0818:	af00      	add	r7, sp, #0
2ffc081a:	bf00      	nop
2ffc081c:	46bd      	mov	sp, r7
2ffc081e:	f85d 7b04 	ldr.w	r7, [sp], #4
2ffc0822:	4770      	bx	lr

2ffc0824 <ETH2_WKUP_IRQHandler>:
2ffc0824:	b480      	push	{r7}
2ffc0826:	af00      	add	r7, sp, #0
2ffc0828:	bf00      	nop
2ffc082a:	46bd      	mov	sp, r7
2ffc082c:	f85d 7b04 	ldr.w	r7, [sp], #4
2ffc0830:	4770      	bx	lr

2ffc0832 <DMAMUX1_OVR_IRQHandler>:
2ffc0832:	b480      	push	{r7}
2ffc0834:	af00      	add	r7, sp, #0
2ffc0836:	bf00      	nop
2ffc0838:	46bd      	mov	sp, r7
2ffc083a:	f85d 7b04 	ldr.w	r7, [sp], #4
2ffc083e:	4770      	bx	lr

2ffc0840 <DMAMUX2_OVR_IRQHandler>:
2ffc0840:	b480      	push	{r7}
2ffc0842:	af00      	add	r7, sp, #0
2ffc0844:	bf00      	nop
2ffc0846:	46bd      	mov	sp, r7
2ffc0848:	f85d 7b04 	ldr.w	r7, [sp], #4
2ffc084c:	4770      	bx	lr

2ffc084e <TIM15_IRQHandler>:
2ffc084e:	b480      	push	{r7}
2ffc0850:	af00      	add	r7, sp, #0
2ffc0852:	bf00      	nop
2ffc0854:	46bd      	mov	sp, r7
2ffc0856:	f85d 7b04 	ldr.w	r7, [sp], #4
2ffc085a:	4770      	bx	lr

2ffc085c <TIM16_IRQHandler>:
2ffc085c:	b480      	push	{r7}
2ffc085e:	af00      	add	r7, sp, #0
2ffc0860:	bf00      	nop
2ffc0862:	46bd      	mov	sp, r7
2ffc0864:	f85d 7b04 	ldr.w	r7, [sp], #4
2ffc0868:	4770      	bx	lr

2ffc086a <TIM17_IRQHandler>:
2ffc086a:	b480      	push	{r7}
2ffc086c:	af00      	add	r7, sp, #0
2ffc086e:	bf00      	nop
2ffc0870:	46bd      	mov	sp, r7
2ffc0872:	f85d 7b04 	ldr.w	r7, [sp], #4
2ffc0876:	4770      	bx	lr

2ffc0878 <TIM12_IRQHandler>:
2ffc0878:	b480      	push	{r7}
2ffc087a:	af00      	add	r7, sp, #0
2ffc087c:	bf00      	nop
2ffc087e:	46bd      	mov	sp, r7
2ffc0880:	f85d 7b04 	ldr.w	r7, [sp], #4
2ffc0884:	4770      	bx	lr

2ffc0886 <PKA_IRQHandler>:
2ffc0886:	b480      	push	{r7}
2ffc0888:	af00      	add	r7, sp, #0
2ffc088a:	bf00      	nop
2ffc088c:	46bd      	mov	sp, r7
2ffc088e:	f85d 7b04 	ldr.w	r7, [sp], #4
2ffc0892:	4770      	bx	lr

2ffc0894 <EXTI14_IRQHandler>:
2ffc0894:	b480      	push	{r7}
2ffc0896:	af00      	add	r7, sp, #0
2ffc0898:	bf00      	nop
2ffc089a:	46bd      	mov	sp, r7
2ffc089c:	f85d 7b04 	ldr.w	r7, [sp], #4
2ffc08a0:	4770      	bx	lr

2ffc08a2 <MDMA_IRQHandler>:
2ffc08a2:	b480      	push	{r7}
2ffc08a4:	af00      	add	r7, sp, #0
2ffc08a6:	bf00      	nop
2ffc08a8:	46bd      	mov	sp, r7
2ffc08aa:	f85d 7b04 	ldr.w	r7, [sp], #4
2ffc08ae:	4770      	bx	lr

2ffc08b0 <SDMMC2_IRQHandler>:
2ffc08b0:	b480      	push	{r7}
2ffc08b2:	af00      	add	r7, sp, #0
2ffc08b4:	bf00      	nop
2ffc08b6:	46bd      	mov	sp, r7
2ffc08b8:	f85d 7b04 	ldr.w	r7, [sp], #4
2ffc08bc:	4770      	bx	lr

2ffc08be <EXTI15_IRQHandler>:
2ffc08be:	b480      	push	{r7}
2ffc08c0:	af00      	add	r7, sp, #0
2ffc08c2:	bf00      	nop
2ffc08c4:	46bd      	mov	sp, r7
2ffc08c6:	f85d 7b04 	ldr.w	r7, [sp], #4
2ffc08ca:	4770      	bx	lr

2ffc08cc <MDMA_SEC_IT_IRQHandler>:
2ffc08cc:	b480      	push	{r7}
2ffc08ce:	af00      	add	r7, sp, #0
2ffc08d0:	bf00      	nop
2ffc08d2:	46bd      	mov	sp, r7
2ffc08d4:	f85d 7b04 	ldr.w	r7, [sp], #4
2ffc08d8:	4770      	bx	lr

2ffc08da <TIM13_IRQHandler>:
2ffc08da:	b480      	push	{r7}
2ffc08dc:	af00      	add	r7, sp, #0
2ffc08de:	bf00      	nop
2ffc08e0:	46bd      	mov	sp, r7
2ffc08e2:	f85d 7b04 	ldr.w	r7, [sp], #4
2ffc08e6:	4770      	bx	lr

2ffc08e8 <TIM14_IRQHandler>:
2ffc08e8:	b480      	push	{r7}
2ffc08ea:	af00      	add	r7, sp, #0
2ffc08ec:	bf00      	nop
2ffc08ee:	46bd      	mov	sp, r7
2ffc08f0:	f85d 7b04 	ldr.w	r7, [sp], #4
2ffc08f4:	4770      	bx	lr

2ffc08f6 <RNG1_IRQHandler>:
2ffc08f6:	b480      	push	{r7}
2ffc08f8:	af00      	add	r7, sp, #0
2ffc08fa:	bf00      	nop
2ffc08fc:	46bd      	mov	sp, r7
2ffc08fe:	f85d 7b04 	ldr.w	r7, [sp], #4
2ffc0902:	4770      	bx	lr

2ffc0904 <I2C5_EV_IRQHandler>:
2ffc0904:	b480      	push	{r7}
2ffc0906:	af00      	add	r7, sp, #0
2ffc0908:	bf00      	nop
2ffc090a:	46bd      	mov	sp, r7
2ffc090c:	f85d 7b04 	ldr.w	r7, [sp], #4
2ffc0910:	4770      	bx	lr

2ffc0912 <I2C5_ER_IRQHandler>:
2ffc0912:	b480      	push	{r7}
2ffc0914:	af00      	add	r7, sp, #0
2ffc0916:	bf00      	nop
2ffc0918:	46bd      	mov	sp, r7
2ffc091a:	f85d 7b04 	ldr.w	r7, [sp], #4
2ffc091e:	4770      	bx	lr

2ffc0920 <LPTIM2_IRQHandler>:
2ffc0920:	b480      	push	{r7}
2ffc0922:	af00      	add	r7, sp, #0
2ffc0924:	bf00      	nop
2ffc0926:	46bd      	mov	sp, r7
2ffc0928:	f85d 7b04 	ldr.w	r7, [sp], #4
2ffc092c:	4770      	bx	lr

2ffc092e <LPTIM3_IRQHandler>:
2ffc092e:	b480      	push	{r7}
2ffc0930:	af00      	add	r7, sp, #0
2ffc0932:	bf00      	nop
2ffc0934:	46bd      	mov	sp, r7
2ffc0936:	f85d 7b04 	ldr.w	r7, [sp], #4
2ffc093a:	4770      	bx	lr

2ffc093c <LPTIM4_IRQHandler>:
2ffc093c:	b480      	push	{r7}
2ffc093e:	af00      	add	r7, sp, #0
2ffc0940:	bf00      	nop
2ffc0942:	46bd      	mov	sp, r7
2ffc0944:	f85d 7b04 	ldr.w	r7, [sp], #4
2ffc0948:	4770      	bx	lr

2ffc094a <LPTIM5_IRQHandler>:
2ffc094a:	b480      	push	{r7}
2ffc094c:	af00      	add	r7, sp, #0
2ffc094e:	bf00      	nop
2ffc0950:	46bd      	mov	sp, r7
2ffc0952:	f85d 7b04 	ldr.w	r7, [sp], #4
2ffc0956:	4770      	bx	lr

2ffc0958 <ETH1_LPI_IRQHandler>:
2ffc0958:	b480      	push	{r7}
2ffc095a:	af00      	add	r7, sp, #0
2ffc095c:	bf00      	nop
2ffc095e:	46bd      	mov	sp, r7
2ffc0960:	f85d 7b04 	ldr.w	r7, [sp], #4
2ffc0964:	4770      	bx	lr

2ffc0966 <ETH2_LPI_IRQHandler>:
2ffc0966:	b480      	push	{r7}
2ffc0968:	af00      	add	r7, sp, #0
2ffc096a:	bf00      	nop
2ffc096c:	46bd      	mov	sp, r7
2ffc096e:	f85d 7b04 	ldr.w	r7, [sp], #4
2ffc0972:	4770      	bx	lr

2ffc0974 <RCC_WAKEUP__IRQHandler>:
2ffc0974:	b480      	push	{r7}
2ffc0976:	af00      	add	r7, sp, #0
2ffc0978:	bf00      	nop
2ffc097a:	46bd      	mov	sp, r7
2ffc097c:	f85d 7b04 	ldr.w	r7, [sp], #4
2ffc0980:	4770      	bx	lr

2ffc0982 <DTS_IRQHandler>:
2ffc0982:	b480      	push	{r7}
2ffc0984:	af00      	add	r7, sp, #0
2ffc0986:	bf00      	nop
2ffc0988:	46bd      	mov	sp, r7
2ffc098a:	f85d 7b04 	ldr.w	r7, [sp], #4
2ffc098e:	4770      	bx	lr

2ffc0990 <MPU_WAKEUP_PIN_IRQHandler>:
2ffc0990:	b480      	push	{r7}
2ffc0992:	af00      	add	r7, sp, #0
2ffc0994:	bf00      	nop
2ffc0996:	46bd      	mov	sp, r7
2ffc0998:	f85d 7b04 	ldr.w	r7, [sp], #4
2ffc099c:	4770      	bx	lr

2ffc099e <IWDG1_IRQHandler>:
2ffc099e:	b480      	push	{r7}
2ffc09a0:	af00      	add	r7, sp, #0
2ffc09a2:	bf00      	nop
2ffc09a4:	46bd      	mov	sp, r7
2ffc09a6:	f85d 7b04 	ldr.w	r7, [sp], #4
2ffc09aa:	4770      	bx	lr

2ffc09ac <IWDG2_IRQHandler>:
2ffc09ac:	b480      	push	{r7}
2ffc09ae:	af00      	add	r7, sp, #0
2ffc09b0:	bf00      	nop
2ffc09b2:	46bd      	mov	sp, r7
2ffc09b4:	f85d 7b04 	ldr.w	r7, [sp], #4
2ffc09b8:	4770      	bx	lr

2ffc09ba <TAMP_SIRQHandler>:
2ffc09ba:	b480      	push	{r7}
2ffc09bc:	af00      	add	r7, sp, #0
2ffc09be:	bf00      	nop
2ffc09c0:	46bd      	mov	sp, r7
2ffc09c2:	f85d 7b04 	ldr.w	r7, [sp], #4
2ffc09c6:	4770      	bx	lr

2ffc09c8 <RTC_WKUP_ALARM_S_IRQHandler>:
2ffc09c8:	b480      	push	{r7}
2ffc09ca:	af00      	add	r7, sp, #0
2ffc09cc:	bf00      	nop
2ffc09ce:	46bd      	mov	sp, r7
2ffc09d0:	f85d 7b04 	ldr.w	r7, [sp], #4
2ffc09d4:	4770      	bx	lr

2ffc09d6 <RTC_TS_S_IRQHandler>:
2ffc09d6:	b480      	push	{r7}
2ffc09d8:	af00      	add	r7, sp, #0
2ffc09da:	bf00      	nop
2ffc09dc:	46bd      	mov	sp, r7
2ffc09de:	f85d 7b04 	ldr.w	r7, [sp], #4
2ffc09e2:	4770      	bx	lr

2ffc09e4 <LTDC_SEC_IRQHandler>:
2ffc09e4:	b480      	push	{r7}
2ffc09e6:	af00      	add	r7, sp, #0
2ffc09e8:	bf00      	nop
2ffc09ea:	46bd      	mov	sp, r7
2ffc09ec:	f85d 7b04 	ldr.w	r7, [sp], #4
2ffc09f0:	4770      	bx	lr

2ffc09f2 <LTDC_SEC_ER_IRQHandler>:
2ffc09f2:	b480      	push	{r7}
2ffc09f4:	af00      	add	r7, sp, #0
2ffc09f6:	bf00      	nop
2ffc09f8:	46bd      	mov	sp, r7
2ffc09fa:	f85d 7b04 	ldr.w	r7, [sp], #4
2ffc09fe:	4770      	bx	lr

2ffc0a00 <PMUIRQ0_IRQHandler>:
2ffc0a00:	b480      	push	{r7}
2ffc0a02:	af00      	add	r7, sp, #0
2ffc0a04:	bf00      	nop
2ffc0a06:	46bd      	mov	sp, r7
2ffc0a08:	f85d 7b04 	ldr.w	r7, [sp], #4
2ffc0a0c:	4770      	bx	lr

2ffc0a0e <COMMRX0_IRQHandler>:
2ffc0a0e:	b480      	push	{r7}
2ffc0a10:	af00      	add	r7, sp, #0
2ffc0a12:	bf00      	nop
2ffc0a14:	46bd      	mov	sp, r7
2ffc0a16:	f85d 7b04 	ldr.w	r7, [sp], #4
2ffc0a1a:	4770      	bx	lr

2ffc0a1c <COMMTX0_IRQHandler>:
2ffc0a1c:	b480      	push	{r7}
2ffc0a1e:	af00      	add	r7, sp, #0
2ffc0a20:	bf00      	nop
2ffc0a22:	46bd      	mov	sp, r7
2ffc0a24:	f85d 7b04 	ldr.w	r7, [sp], #4
2ffc0a28:	4770      	bx	lr

2ffc0a2a <AXIERRIRQ_IRQHandler>:
2ffc0a2a:	b480      	push	{r7}
2ffc0a2c:	af00      	add	r7, sp, #0
2ffc0a2e:	bf00      	nop
2ffc0a30:	46bd      	mov	sp, r7
2ffc0a32:	f85d 7b04 	ldr.w	r7, [sp], #4
2ffc0a36:	4770      	bx	lr

2ffc0a38 <DDRPERFM_IRQHandler>:
2ffc0a38:	b480      	push	{r7}
2ffc0a3a:	af00      	add	r7, sp, #0
2ffc0a3c:	bf00      	nop
2ffc0a3e:	46bd      	mov	sp, r7
2ffc0a40:	f85d 7b04 	ldr.w	r7, [sp], #4
2ffc0a44:	4770      	bx	lr

2ffc0a46 <nCTIIRQ0_IRQHandler>:
2ffc0a46:	b480      	push	{r7}
2ffc0a48:	af00      	add	r7, sp, #0
2ffc0a4a:	bf00      	nop
2ffc0a4c:	46bd      	mov	sp, r7
2ffc0a4e:	f85d 7b04 	ldr.w	r7, [sp], #4
2ffc0a52:	4770      	bx	lr

2ffc0a54 <MCE_IRQHandler>:
2ffc0a54:	b480      	push	{r7}
2ffc0a56:	af00      	add	r7, sp, #0
2ffc0a58:	bf00      	nop
2ffc0a5a:	46bd      	mov	sp, r7
2ffc0a5c:	f85d 7b04 	ldr.w	r7, [sp], #4
2ffc0a60:	4770      	bx	lr

2ffc0a62 <DFSDM1_IRQHandler>:
2ffc0a62:	b480      	push	{r7}
2ffc0a64:	af00      	add	r7, sp, #0
2ffc0a66:	bf00      	nop
2ffc0a68:	46bd      	mov	sp, r7
2ffc0a6a:	f85d 7b04 	ldr.w	r7, [sp], #4
2ffc0a6e:	4770      	bx	lr

2ffc0a70 <DFSDM2_IRQHandler>:
2ffc0a70:	b480      	push	{r7}
2ffc0a72:	af00      	add	r7, sp, #0
2ffc0a74:	bf00      	nop
2ffc0a76:	46bd      	mov	sp, r7
2ffc0a78:	f85d 7b04 	ldr.w	r7, [sp], #4
2ffc0a7c:	4770      	bx	lr

2ffc0a7e <DMA3_Stream0_IRQHandler>:
2ffc0a7e:	b480      	push	{r7}
2ffc0a80:	af00      	add	r7, sp, #0
2ffc0a82:	bf00      	nop
2ffc0a84:	46bd      	mov	sp, r7
2ffc0a86:	f85d 7b04 	ldr.w	r7, [sp], #4
2ffc0a8a:	4770      	bx	lr

2ffc0a8c <DMA3_Stream1_IRQHandler>:
2ffc0a8c:	b480      	push	{r7}
2ffc0a8e:	af00      	add	r7, sp, #0
2ffc0a90:	bf00      	nop
2ffc0a92:	46bd      	mov	sp, r7
2ffc0a94:	f85d 7b04 	ldr.w	r7, [sp], #4
2ffc0a98:	4770      	bx	lr

2ffc0a9a <DMA3_Stream2_IRQHandler>:
2ffc0a9a:	b480      	push	{r7}
2ffc0a9c:	af00      	add	r7, sp, #0
2ffc0a9e:	bf00      	nop
2ffc0aa0:	46bd      	mov	sp, r7
2ffc0aa2:	f85d 7b04 	ldr.w	r7, [sp], #4
2ffc0aa6:	4770      	bx	lr

2ffc0aa8 <DMA3_Stream3_IRQHandler>:
2ffc0aa8:	b480      	push	{r7}
2ffc0aaa:	af00      	add	r7, sp, #0
2ffc0aac:	bf00      	nop
2ffc0aae:	46bd      	mov	sp, r7
2ffc0ab0:	f85d 7b04 	ldr.w	r7, [sp], #4
2ffc0ab4:	4770      	bx	lr

2ffc0ab6 <DMA3_Stream4_IRQHandler>:
2ffc0ab6:	b480      	push	{r7}
2ffc0ab8:	af00      	add	r7, sp, #0
2ffc0aba:	bf00      	nop
2ffc0abc:	46bd      	mov	sp, r7
2ffc0abe:	f85d 7b04 	ldr.w	r7, [sp], #4
2ffc0ac2:	4770      	bx	lr

2ffc0ac4 <DMA3_Stream5_IRQHandler>:
2ffc0ac4:	b480      	push	{r7}
2ffc0ac6:	af00      	add	r7, sp, #0
2ffc0ac8:	bf00      	nop
2ffc0aca:	46bd      	mov	sp, r7
2ffc0acc:	f85d 7b04 	ldr.w	r7, [sp], #4
2ffc0ad0:	4770      	bx	lr

2ffc0ad2 <DMA3_Stream6_IRQHandler>:
2ffc0ad2:	b480      	push	{r7}
2ffc0ad4:	af00      	add	r7, sp, #0
2ffc0ad6:	bf00      	nop
2ffc0ad8:	46bd      	mov	sp, r7
2ffc0ada:	f85d 7b04 	ldr.w	r7, [sp], #4
2ffc0ade:	4770      	bx	lr

2ffc0ae0 <DMA3_Stream7_IRQHandler>:
2ffc0ae0:	b480      	push	{r7}
2ffc0ae2:	af00      	add	r7, sp, #0
2ffc0ae4:	bf00      	nop
2ffc0ae6:	46bd      	mov	sp, r7
2ffc0ae8:	f85d 7b04 	ldr.w	r7, [sp], #4
2ffc0aec:	4770      	bx	lr
	...

2ffc0af0 <__FPU_Enable>:
2ffc0af0:	b480      	push	{r7}
2ffc0af2:	af00      	add	r7, sp, #0
2ffc0af4:	ee11 1f50 	mrc	15, 0, r1, cr1, cr0, {2}
2ffc0af8:	f441 0170 	orr.w	r1, r1, #15728640	@ 0xf00000
2ffc0afc:	ee01 1f50 	mcr	15, 0, r1, cr1, cr0, {2}
2ffc0b00:	f3bf 8f6f 	isb	sy
2ffc0b04:	eef8 1a10 	vmrs	r1, fpexc
2ffc0b08:	f041 4180 	orr.w	r1, r1, #1073741824	@ 0x40000000
2ffc0b0c:	eee8 1a10 	vmsr	fpexc, r1
2ffc0b10:	f04f 0200 	mov.w	r2, #0
2ffc0b14:	ec42 2b10 	vmov	d0, r2, r2
2ffc0b18:	ec42 2b11 	vmov	d1, r2, r2
2ffc0b1c:	ec42 2b12 	vmov	d2, r2, r2
2ffc0b20:	ec42 2b13 	vmov	d3, r2, r2
2ffc0b24:	ec42 2b14 	vmov	d4, r2, r2
2ffc0b28:	ec42 2b15 	vmov	d5, r2, r2
2ffc0b2c:	ec42 2b16 	vmov	d6, r2, r2
2ffc0b30:	ec42 2b17 	vmov	d7, r2, r2
2ffc0b34:	ec42 2b18 	vmov	d8, r2, r2
2ffc0b38:	ec42 2b19 	vmov	d9, r2, r2
2ffc0b3c:	ec42 2b1a 	vmov	d10, r2, r2
2ffc0b40:	ec42 2b1b 	vmov	d11, r2, r2
2ffc0b44:	ec42 2b1c 	vmov	d12, r2, r2
2ffc0b48:	ec42 2b1d 	vmov	d13, r2, r2
2ffc0b4c:	ec42 2b1e 	vmov	d14, r2, r2
2ffc0b50:	ec42 2b1f 	vmov	d15, r2, r2
2ffc0b54:	eef1 2a10 	vmrs	r2, fpscr
2ffc0b58:	4b04      	ldr	r3, [pc, #16]	@ (2ffc0b6c <__FPU_Enable+0x7c>)
2ffc0b5a:	ea02 0203 	and.w	r2, r2, r3
2ffc0b5e:	eee1 2a10 	vmsr	fpscr, r2
2ffc0b62:	bf00      	nop
2ffc0b64:	46bd      	mov	sp, r7
2ffc0b66:	f85d 7b04 	ldr.w	r7, [sp], #4
2ffc0b6a:	4770      	bx	lr
2ffc0b6c:	00086060 	.word	0x00086060

2ffc0b70 <PL1_SetCounterFrequency>:
2ffc0b70:	b480      	push	{r7}
2ffc0b72:	b085      	sub	sp, #20
2ffc0b74:	af00      	add	r7, sp, #0
2ffc0b76:	6078      	str	r0, [r7, #4]
2ffc0b78:	687b      	ldr	r3, [r7, #4]
2ffc0b7a:	60fb      	str	r3, [r7, #12]
2ffc0b7c:	68fb      	ldr	r3, [r7, #12]
2ffc0b7e:	ee0e 3f10 	mcr	15, 0, r3, cr14, cr0, {0}
2ffc0b82:	bf00      	nop
2ffc0b84:	f3bf 8f6f 	isb	sy
2ffc0b88:	bf00      	nop
2ffc0b8a:	bf00      	nop
2ffc0b8c:	3714      	adds	r7, #20
2ffc0b8e:	46bd      	mov	sp, r7
2ffc0b90:	f85d 7b04 	ldr.w	r7, [sp], #4
2ffc0b94:	4770      	bx	lr

2ffc0b96 <PL1_SetLoadValue>:
2ffc0b96:	b480      	push	{r7}
2ffc0b98:	b085      	sub	sp, #20
2ffc0b9a:	af00      	add	r7, sp, #0
2ffc0b9c:	6078      	str	r0, [r7, #4]
2ffc0b9e:	687b      	ldr	r3, [r7, #4]
2ffc0ba0:	60fb      	str	r3, [r7, #12]
2ffc0ba2:	68fb      	ldr	r3, [r7, #12]
2ffc0ba4:	ee0e 3f12 	mcr	15, 0, r3, cr14, cr2, {0}
2ffc0ba8:	bf00      	nop
2ffc0baa:	f3bf 8f6f 	isb	sy
2ffc0bae:	bf00      	nop
2ffc0bb0:	bf00      	nop
2ffc0bb2:	3714      	adds	r7, #20
2ffc0bb4:	46bd      	mov	sp, r7
2ffc0bb6:	f85d 7b04 	ldr.w	r7, [sp], #4
2ffc0bba:	4770      	bx	lr

2ffc0bbc <PL1_GetCurrentValue>:
2ffc0bbc:	b480      	push	{r7}
2ffc0bbe:	b083      	sub	sp, #12
2ffc0bc0:	af00      	add	r7, sp, #0
2ffc0bc2:	ee1e 3f12 	mrc	15, 0, r3, cr14, cr2, {0}
2ffc0bc6:	607b      	str	r3, [r7, #4]
2ffc0bc8:	687b      	ldr	r3, [r7, #4]
2ffc0bca:	4618      	mov	r0, r3
2ffc0bcc:	370c      	adds	r7, #12
2ffc0bce:	46bd      	mov	sp, r7
2ffc0bd0:	f85d 7b04 	ldr.w	r7, [sp], #4
2ffc0bd4:	4770      	bx	lr

2ffc0bd6 <PL1_SetControl>:
2ffc0bd6:	b480      	push	{r7}
2ffc0bd8:	b085      	sub	sp, #20
2ffc0bda:	af00      	add	r7, sp, #0
2ffc0bdc:	6078      	str	r0, [r7, #4]
2ffc0bde:	687b      	ldr	r3, [r7, #4]
2ffc0be0:	60fb      	str	r3, [r7, #12]
2ffc0be2:	68fb      	ldr	r3, [r7, #12]
2ffc0be4:	ee0e 3f32 	mcr	15, 0, r3, cr14, cr2, {1}
2ffc0be8:	bf00      	nop
2ffc0bea:	f3bf 8f6f 	isb	sy
2ffc0bee:	bf00      	nop
2ffc0bf0:	bf00      	nop
2ffc0bf2:	3714      	adds	r7, #20
2ffc0bf4:	46bd      	mov	sp, r7
2ffc0bf6:	f85d 7b04 	ldr.w	r7, [sp], #4
2ffc0bfa:	4770      	bx	lr

2ffc0bfc <MMU_InvalidateTLB>:
2ffc0bfc:	b480      	push	{r7}
2ffc0bfe:	b083      	sub	sp, #12
2ffc0c00:	af00      	add	r7, sp, #0
2ffc0c02:	2300      	movs	r3, #0
2ffc0c04:	607b      	str	r3, [r7, #4]
2ffc0c06:	687b      	ldr	r3, [r7, #4]
2ffc0c08:	ee08 3f17 	mcr	15, 0, r3, cr8, cr7, {0}
2ffc0c0c:	bf00      	nop
2ffc0c0e:	f3bf 8f4f 	dsb	sy
2ffc0c12:	bf00      	nop
2ffc0c14:	f3bf 8f6f 	isb	sy
2ffc0c18:	bf00      	nop
2ffc0c1a:	bf00      	nop
2ffc0c1c:	370c      	adds	r7, #12
2ffc0c1e:	46bd      	mov	sp, r7
2ffc0c20:	f85d 7b04 	ldr.w	r7, [sp], #4
2ffc0c24:	4770      	bx	lr

2ffc0c26 <EnableSecurePhysicalTimer>:
2ffc0c26:	b580      	push	{r7, lr}
2ffc0c28:	af00      	add	r7, sp, #0
2ffc0c2a:	2000      	movs	r0, #0
2ffc0c2c:	f7ff ffd3 	bl	2ffc0bd6 <PL1_SetControl>
2ffc0c30:	f44f 4010 	mov.w	r0, #36864	@ 0x9000
2ffc0c34:	f2c0 30d0 	movt	r0, #976	@ 0x3d0
2ffc0c38:	f7ff ff9a 	bl	2ffc0b70 <PL1_SetCounterFrequency>
2ffc0c3c:	f44f 407a 	mov.w	r0, #64000	@ 0xfa00
2ffc0c40:	f7ff ffa9 	bl	2ffc0b96 <PL1_SetLoadValue>
2ffc0c44:	201d      	movs	r0, #29
2ffc0c46:	f006 fbe9 	bl	2ffc741c <IRQ_Disable>
2ffc0c4a:	201d      	movs	r0, #29
2ffc0c4c:	f006 fce9 	bl	2ffc7622 <IRQ_ClearPending>
2ffc0c50:	2110      	movs	r1, #16
2ffc0c52:	201d      	movs	r0, #29
2ffc0c54:	f006 fd00 	bl	2ffc7658 <IRQ_SetPriority>
2ffc0c58:	2104      	movs	r1, #4
2ffc0c5a:	201d      	movs	r0, #29
2ffc0c5c:	f006 fbf9 	bl	2ffc7452 <IRQ_SetMode>
2ffc0c60:	201d      	movs	r0, #29
2ffc0c62:	f006 fbc0 	bl	2ffc73e6 <IRQ_Enable>
2ffc0c66:	bf00      	nop
2ffc0c68:	bd80      	pop	{r7, pc}

2ffc0c6a <SystemInit_IRQ_ErrorHandler>:
2ffc0c6a:	b480      	push	{r7}
2ffc0c6c:	af00      	add	r7, sp, #0
2ffc0c6e:	e7fe      	b.n	2ffc0c6e <SystemInit_IRQ_ErrorHandler+0x4>

2ffc0c70 <SecurePhysicalTimer_IRQHandler>:
2ffc0c70:	b580      	push	{r7, lr}
2ffc0c72:	af00      	add	r7, sp, #0
2ffc0c74:	201d      	movs	r0, #29
2ffc0c76:	f006 fcd4 	bl	2ffc7622 <IRQ_ClearPending>
2ffc0c7a:	f7ff ff9f 	bl	2ffc0bbc <PL1_GetCurrentValue>
2ffc0c7e:	4603      	mov	r3, r0
2ffc0c80:	f503 437a 	add.w	r3, r3, #64000	@ 0xfa00
2ffc0c84:	4618      	mov	r0, r3
2ffc0c86:	f7ff ff86 	bl	2ffc0b96 <PL1_SetLoadValue>
2ffc0c8a:	f004 ef66 	blx	2ffc5b58 <_tx_timer_interrupt>
2ffc0c8e:	bf00      	nop
2ffc0c90:	bd80      	pop	{r7, pc}

2ffc0c92 <IRQ_Handler>:
2ffc0c92:	b580      	push	{r7, lr}
2ffc0c94:	b082      	sub	sp, #8
2ffc0c96:	af00      	add	r7, sp, #0
2ffc0c98:	f006 fc5c 	bl	2ffc7554 <IRQ_GetActiveIRQ>
2ffc0c9c:	4603      	mov	r3, r0
2ffc0c9e:	607b      	str	r3, [r7, #4]
2ffc0ca0:	687b      	ldr	r3, [r7, #4]
2ffc0ca2:	f5b3 7f7f 	cmp.w	r3, #1020	@ 0x3fc
2ffc0ca6:	d817      	bhi.n	2ffc0cd8 <IRQ_Handler+0x46>
2ffc0ca8:	687b      	ldr	r3, [r7, #4]
2ffc0caa:	2be7      	cmp	r3, #231	@ 0xe7
2ffc0cac:	d902      	bls.n	2ffc0cb4 <IRQ_Handler+0x22>
2ffc0cae:	f7ff ffdc 	bl	2ffc0c6a <SystemInit_IRQ_ErrorHandler>
2ffc0cb2:	e00c      	b.n	2ffc0cce <IRQ_Handler+0x3c>
2ffc0cb4:	687b      	ldr	r3, [r7, #4]
2ffc0cb6:	4618      	mov	r0, r3
2ffc0cb8:	f006 fb74 	bl	2ffc73a4 <IRQ_GetHandler>
2ffc0cbc:	6038      	str	r0, [r7, #0]
2ffc0cbe:	683b      	ldr	r3, [r7, #0]
2ffc0cc0:	2b00      	cmp	r3, #0
2ffc0cc2:	d002      	beq.n	2ffc0cca <IRQ_Handler+0x38>
2ffc0cc4:	683b      	ldr	r3, [r7, #0]
2ffc0cc6:	4798      	blx	r3
2ffc0cc8:	e001      	b.n	2ffc0cce <IRQ_Handler+0x3c>
2ffc0cca:	f7ff ffce 	bl	2ffc0c6a <SystemInit_IRQ_ErrorHandler>
2ffc0cce:	687b      	ldr	r3, [r7, #4]
2ffc0cd0:	4618      	mov	r0, r3
2ffc0cd2:	f006 fc7d 	bl	2ffc75d0 <IRQ_EndOfInterrupt>
2ffc0cd6:	e7df      	b.n	2ffc0c98 <IRQ_Handler+0x6>
2ffc0cd8:	687b      	ldr	r3, [r7, #4]
2ffc0cda:	f240 32ff 	movw	r2, #1023	@ 0x3ff
2ffc0cde:	4293      	cmp	r3, r2
2ffc0ce0:	d002      	beq.n	2ffc0ce8 <IRQ_Handler+0x56>
2ffc0ce2:	f7ff ffc2 	bl	2ffc0c6a <SystemInit_IRQ_ErrorHandler>
2ffc0ce6:	e7d7      	b.n	2ffc0c98 <IRQ_Handler+0x6>
2ffc0ce8:	bf00      	nop
2ffc0cea:	bf00      	nop
2ffc0cec:	3708      	adds	r7, #8
2ffc0cee:	46bd      	mov	sp, r7
2ffc0cf0:	bd80      	pop	{r7, pc}
	...

2ffc0cf4 <ZeroBss>:
2ffc0cf4:	b480      	push	{r7}
2ffc0cf6:	af00      	add	r7, sp, #0
2ffc0cf8:	e92d 0ff0 	stmdb	sp!, {r4, r5, r6, r7, r8, r9, sl, fp}
2ffc0cfc:	4a08      	ldr	r2, [pc, #32]	@ (2ffc0d20 <LoopFillZerobss+0x1a>)
2ffc0cfe:	e002      	b.n	2ffc0d06 <LoopFillZerobss>

2ffc0d00 <FillZerobss>:
2ffc0d00:	2300      	movs	r3, #0
2ffc0d02:	6013      	str	r3, [r2, #0]
2ffc0d04:	3204      	adds	r2, #4

2ffc0d06 <LoopFillZerobss>:
2ffc0d06:	4b07      	ldr	r3, [pc, #28]	@ (2ffc0d24 <LoopFillZerobss+0x1e>)
2ffc0d08:	429a      	cmp	r2, r3
2ffc0d0a:	d3f9      	bcc.n	2ffc0d00 <FillZerobss>
2ffc0d0c:	f3bf 8f4f 	dsb	sy
2ffc0d10:	e8bd 0ff0 	ldmia.w	sp!, {r4, r5, r6, r7, r8, r9, sl, fp}
2ffc0d14:	bf00      	nop
2ffc0d16:	46bd      	mov	sp, r7
2ffc0d18:	f85d 7b04 	ldr.w	r7, [sp], #4
2ffc0d1c:	4770      	bx	lr
2ffc0d1e:	0000      	.short	0x0000
2ffc0d20:	2ffca460 	.word	0x2ffca460
2ffc0d24:	2ffcc680 	.word	0x2ffcc680

2ffc0d28 <SystemInit>:
2ffc0d28:	b580      	push	{r7, lr}
2ffc0d2a:	b0a0      	sub	sp, #128	@ 0x80
2ffc0d2c:	af00      	add	r7, sp, #0
2ffc0d2e:	f7ff ffe1 	bl	2ffc0cf4 <ZeroBss>
2ffc0d32:	f7ff ff63 	bl	2ffc0bfc <MMU_InvalidateTLB>
2ffc0d36:	f24d 0380 	movw	r3, #53376	@ 0xd080
2ffc0d3a:	f2c5 0300 	movt	r3, #20480	@ 0x5000
2ffc0d3e:	2200      	movs	r2, #0
2ffc0d40:	601a      	str	r2, [r3, #0]
2ffc0d42:	f24d 0380 	movw	r3, #53376	@ 0xd080
2ffc0d46:	f2c5 0300 	movt	r3, #20480	@ 0x5000
2ffc0d4a:	2200      	movs	r2, #0
2ffc0d4c:	611a      	str	r2, [r3, #16]
2ffc0d4e:	f24d 0380 	movw	r3, #53376	@ 0xd080
2ffc0d52:	f2c5 0300 	movt	r3, #20480	@ 0x5000
2ffc0d56:	2200      	movs	r2, #0
2ffc0d58:	621a      	str	r2, [r3, #32]
2ffc0d5a:	f24d 0380 	movw	r3, #53376	@ 0xd080
2ffc0d5e:	f2c5 0300 	movt	r3, #20480	@ 0x5000
2ffc0d62:	2200      	movs	r2, #0
2ffc0d64:	605a      	str	r2, [r3, #4]
2ffc0d66:	f24d 0380 	movw	r3, #53376	@ 0xd080
2ffc0d6a:	f2c5 0300 	movt	r3, #20480	@ 0x5000
2ffc0d6e:	2200      	movs	r2, #0
2ffc0d70:	615a      	str	r2, [r3, #20]
2ffc0d72:	f24d 0380 	movw	r3, #53376	@ 0xd080
2ffc0d76:	f2c5 0300 	movt	r3, #20480	@ 0x5000
2ffc0d7a:	2200      	movs	r2, #0
2ffc0d7c:	625a      	str	r2, [r3, #36]	@ 0x24
2ffc0d7e:	2300      	movs	r3, #0
2ffc0d80:	607b      	str	r3, [r7, #4]
2ffc0d82:	687b      	ldr	r3, [r7, #4]
2ffc0d84:	ee07 3fd5 	mcr	15, 0, r3, cr7, cr5, {6}
2ffc0d88:	bf00      	nop
2ffc0d8a:	f3bf 8f4f 	dsb	sy
2ffc0d8e:	bf00      	nop
2ffc0d90:	f3bf 8f6f 	isb	sy
2ffc0d94:	bf00      	nop
2ffc0d96:	bf00      	nop
2ffc0d98:	2300      	movs	r3, #0
2ffc0d9a:	60bb      	str	r3, [r7, #8]
2ffc0d9c:	68bb      	ldr	r3, [r7, #8]
2ffc0d9e:	ee07 3f15 	mcr	15, 0, r3, cr7, cr5, {0}
2ffc0da2:	bf00      	nop
2ffc0da4:	f3bf 8f4f 	dsb	sy
2ffc0da8:	bf00      	nop
2ffc0daa:	f3bf 8f6f 	isb	sy
2ffc0dae:	bf00      	nop
2ffc0db0:	bf00      	nop
2ffc0db2:	2300      	movs	r3, #0
2ffc0db4:	66bb      	str	r3, [r7, #104]	@ 0x68
2ffc0db6:	ee30 3f30 	mrc	15, 1, r3, cr0, cr0, {1}
2ffc0dba:	667b      	str	r3, [r7, #100]	@ 0x64
2ffc0dbc:	6e7b      	ldr	r3, [r7, #100]	@ 0x64
2ffc0dbe:	663b      	str	r3, [r7, #96]	@ 0x60
2ffc0dc0:	2300      	movs	r3, #0
2ffc0dc2:	65fb      	str	r3, [r7, #92]	@ 0x5c
2ffc0dc4:	e0a7      	b.n	2ffc0f16 <SystemInit+0x1ee>
2ffc0dc6:	6dfb      	ldr	r3, [r7, #92]	@ 0x5c
2ffc0dc8:	2203      	movs	r2, #3
2ffc0dca:	fb02 f303 	mul.w	r3, r2, r3
2ffc0dce:	6e3a      	ldr	r2, [r7, #96]	@ 0x60
2ffc0dd0:	fa22 f303 	lsr.w	r3, r2, r3
2ffc0dd4:	f003 0307 	and.w	r3, r3, #7
2ffc0dd8:	65bb      	str	r3, [r7, #88]	@ 0x58
2ffc0dda:	6dbb      	ldr	r3, [r7, #88]	@ 0x58
2ffc0ddc:	2b01      	cmp	r3, #1
2ffc0dde:	f240 8097 	bls.w	2ffc0f10 <SystemInit+0x1e8>
2ffc0de2:	6dbb      	ldr	r3, [r7, #88]	@ 0x58
2ffc0de4:	2b04      	cmp	r3, #4
2ffc0de6:	f200 8093 	bhi.w	2ffc0f10 <SystemInit+0x1e8>
2ffc0dea:	6dfb      	ldr	r3, [r7, #92]	@ 0x5c
2ffc0dec:	657b      	str	r3, [r7, #84]	@ 0x54
2ffc0dee:	6ebb      	ldr	r3, [r7, #104]	@ 0x68
2ffc0df0:	653b      	str	r3, [r7, #80]	@ 0x50
2ffc0df2:	6d7b      	ldr	r3, [r7, #84]	@ 0x54
2ffc0df4:	005b      	lsls	r3, r3, #1
2ffc0df6:	64fb      	str	r3, [r7, #76]	@ 0x4c
2ffc0df8:	6cfb      	ldr	r3, [r7, #76]	@ 0x4c
2ffc0dfa:	64bb      	str	r3, [r7, #72]	@ 0x48
2ffc0dfc:	6cbb      	ldr	r3, [r7, #72]	@ 0x48
2ffc0dfe:	ee40 3f10 	mcr	15, 2, r3, cr0, cr0, {0}
2ffc0e02:	bf00      	nop
2ffc0e04:	ee30 3f10 	mrc	15, 1, r3, cr0, cr0, {0}
2ffc0e08:	647b      	str	r3, [r7, #68]	@ 0x44
2ffc0e0a:	6c7b      	ldr	r3, [r7, #68]	@ 0x44
2ffc0e0c:	643b      	str	r3, [r7, #64]	@ 0x40
2ffc0e0e:	6c3b      	ldr	r3, [r7, #64]	@ 0x40
2ffc0e10:	0b5b      	lsrs	r3, r3, #13
2ffc0e12:	f3c3 030e 	ubfx	r3, r3, #0, #15
2ffc0e16:	3301      	adds	r3, #1
2ffc0e18:	63fb      	str	r3, [r7, #60]	@ 0x3c
2ffc0e1a:	6c3b      	ldr	r3, [r7, #64]	@ 0x40
2ffc0e1c:	08db      	lsrs	r3, r3, #3
2ffc0e1e:	f3c3 0309 	ubfx	r3, r3, #0, #10
2ffc0e22:	3301      	adds	r3, #1
2ffc0e24:	63bb      	str	r3, [r7, #56]	@ 0x38
2ffc0e26:	6c3b      	ldr	r3, [r7, #64]	@ 0x40
2ffc0e28:	f003 0307 	and.w	r3, r3, #7
2ffc0e2c:	3304      	adds	r3, #4
2ffc0e2e:	637b      	str	r3, [r7, #52]	@ 0x34
2ffc0e30:	6bbb      	ldr	r3, [r7, #56]	@ 0x38
2ffc0e32:	633b      	str	r3, [r7, #48]	@ 0x30
2ffc0e34:	6b3b      	ldr	r3, [r7, #48]	@ 0x30
2ffc0e36:	2b01      	cmp	r3, #1
2ffc0e38:	d801      	bhi.n	2ffc0e3e <SystemInit+0x116>
2ffc0e3a:	2300      	movs	r3, #0
2ffc0e3c:	e01c      	b.n	2ffc0e78 <SystemInit+0x150>
2ffc0e3e:	2300      	movs	r3, #0
2ffc0e40:	f887 302f 	strb.w	r3, [r7, #47]	@ 0x2f
2ffc0e44:	6b3b      	ldr	r3, [r7, #48]	@ 0x30
2ffc0e46:	62bb      	str	r3, [r7, #40]	@ 0x28
2ffc0e48:	e007      	b.n	2ffc0e5a <SystemInit+0x132>
2ffc0e4a:	f897 302f 	ldrb.w	r3, [r7, #47]	@ 0x2f
2ffc0e4e:	3301      	adds	r3, #1
2ffc0e50:	f887 302f 	strb.w	r3, [r7, #47]	@ 0x2f
2ffc0e54:	6abb      	ldr	r3, [r7, #40]	@ 0x28
2ffc0e56:	085b      	lsrs	r3, r3, #1
2ffc0e58:	62bb      	str	r3, [r7, #40]	@ 0x28
2ffc0e5a:	6abb      	ldr	r3, [r7, #40]	@ 0x28
2ffc0e5c:	2b01      	cmp	r3, #1
2ffc0e5e:	d8f4      	bhi.n	2ffc0e4a <SystemInit+0x122>
2ffc0e60:	6b3b      	ldr	r3, [r7, #48]	@ 0x30
2ffc0e62:	f003 0301 	and.w	r3, r3, #1
2ffc0e66:	2b00      	cmp	r3, #0
2ffc0e68:	d004      	beq.n	2ffc0e74 <SystemInit+0x14c>
2ffc0e6a:	f897 302f 	ldrb.w	r3, [r7, #47]	@ 0x2f
2ffc0e6e:	3301      	adds	r3, #1
2ffc0e70:	f887 302f 	strb.w	r3, [r7, #47]	@ 0x2f
2ffc0e74:	f897 302f 	ldrb.w	r3, [r7, #47]	@ 0x2f
2ffc0e78:	627b      	str	r3, [r7, #36]	@ 0x24
2ffc0e7a:	6a7b      	ldr	r3, [r7, #36]	@ 0x24
2ffc0e7c:	2b00      	cmp	r3, #0
2ffc0e7e:	db46      	blt.n	2ffc0f0e <SystemInit+0x1e6>
2ffc0e80:	6a7b      	ldr	r3, [r7, #36]	@ 0x24
2ffc0e82:	2b20      	cmp	r3, #32
2ffc0e84:	dc43      	bgt.n	2ffc0f0e <SystemInit+0x1e6>
2ffc0e86:	6a7b      	ldr	r3, [r7, #36]	@ 0x24
2ffc0e88:	f1c3 0320 	rsb	r3, r3, #32
2ffc0e8c:	623b      	str	r3, [r7, #32]
2ffc0e8e:	6bbb      	ldr	r3, [r7, #56]	@ 0x38
2ffc0e90:	3b01      	subs	r3, #1
2ffc0e92:	61fb      	str	r3, [r7, #28]
2ffc0e94:	e035      	b.n	2ffc0f02 <SystemInit+0x1da>
2ffc0e96:	6bfb      	ldr	r3, [r7, #60]	@ 0x3c
2ffc0e98:	3b01      	subs	r3, #1
2ffc0e9a:	61bb      	str	r3, [r7, #24]
2ffc0e9c:	e02b      	b.n	2ffc0ef6 <SystemInit+0x1ce>
2ffc0e9e:	6d7b      	ldr	r3, [r7, #84]	@ 0x54
2ffc0ea0:	005a      	lsls	r2, r3, #1
2ffc0ea2:	69b9      	ldr	r1, [r7, #24]
2ffc0ea4:	6b7b      	ldr	r3, [r7, #52]	@ 0x34
2ffc0ea6:	fa01 f303 	lsl.w	r3, r1, r3
2ffc0eaa:	431a      	orrs	r2, r3
2ffc0eac:	69f9      	ldr	r1, [r7, #28]
2ffc0eae:	6a3b      	ldr	r3, [r7, #32]
2ffc0eb0:	fa01 f303 	lsl.w	r3, r1, r3
2ffc0eb4:	4313      	orrs	r3, r2
2ffc0eb6:	64fb      	str	r3, [r7, #76]	@ 0x4c
2ffc0eb8:	6d3b      	ldr	r3, [r7, #80]	@ 0x50
2ffc0eba:	2b00      	cmp	r3, #0
2ffc0ebc:	d003      	beq.n	2ffc0ec6 <SystemInit+0x19e>
2ffc0ebe:	6d3b      	ldr	r3, [r7, #80]	@ 0x50
2ffc0ec0:	2b01      	cmp	r3, #1
2ffc0ec2:	d007      	beq.n	2ffc0ed4 <SystemInit+0x1ac>
2ffc0ec4:	e00d      	b.n	2ffc0ee2 <SystemInit+0x1ba>
2ffc0ec6:	6cfb      	ldr	r3, [r7, #76]	@ 0x4c
2ffc0ec8:	617b      	str	r3, [r7, #20]
2ffc0eca:	697b      	ldr	r3, [r7, #20]
2ffc0ecc:	ee07 3f56 	mcr	15, 0, r3, cr7, cr6, {2}
2ffc0ed0:	bf00      	nop
2ffc0ed2:	e00d      	b.n	2ffc0ef0 <SystemInit+0x1c8>
2ffc0ed4:	6cfb      	ldr	r3, [r7, #76]	@ 0x4c
2ffc0ed6:	613b      	str	r3, [r7, #16]
2ffc0ed8:	693b      	ldr	r3, [r7, #16]
2ffc0eda:	ee07 3f5a 	mcr	15, 0, r3, cr7, cr10, {2}
2ffc0ede:	bf00      	nop
2ffc0ee0:	e006      	b.n	2ffc0ef0 <SystemInit+0x1c8>
2ffc0ee2:	6cfb      	ldr	r3, [r7, #76]	@ 0x4c
2ffc0ee4:	60fb      	str	r3, [r7, #12]
2ffc0ee6:	68fb      	ldr	r3, [r7, #12]
2ffc0ee8:	ee07 3f5e 	mcr	15, 0, r3, cr7, cr14, {2}
2ffc0eec:	bf00      	nop
2ffc0eee:	bf00      	nop
2ffc0ef0:	69bb      	ldr	r3, [r7, #24]
2ffc0ef2:	3b01      	subs	r3, #1
2ffc0ef4:	61bb      	str	r3, [r7, #24]
2ffc0ef6:	69bb      	ldr	r3, [r7, #24]
2ffc0ef8:	2b00      	cmp	r3, #0
2ffc0efa:	dad0      	bge.n	2ffc0e9e <SystemInit+0x176>
2ffc0efc:	69fb      	ldr	r3, [r7, #28]
2ffc0efe:	3b01      	subs	r3, #1
2ffc0f00:	61fb      	str	r3, [r7, #28]
2ffc0f02:	69fb      	ldr	r3, [r7, #28]
2ffc0f04:	2b00      	cmp	r3, #0
2ffc0f06:	dac6      	bge.n	2ffc0e96 <SystemInit+0x16e>
2ffc0f08:	f3bf 8f5f 	dmb	sy
2ffc0f0c:	e000      	b.n	2ffc0f10 <SystemInit+0x1e8>
2ffc0f0e:	bf00      	nop
2ffc0f10:	6dfb      	ldr	r3, [r7, #92]	@ 0x5c
2ffc0f12:	3301      	adds	r3, #1
2ffc0f14:	65fb      	str	r3, [r7, #92]	@ 0x5c
2ffc0f16:	6dfb      	ldr	r3, [r7, #92]	@ 0x5c
2ffc0f18:	2b06      	cmp	r3, #6
2ffc0f1a:	f67f af54 	bls.w	2ffc0dc6 <SystemInit+0x9e>
2ffc0f1e:	bf00      	nop
2ffc0f20:	bf00      	nop
2ffc0f22:	f7ff fde5 	bl	2ffc0af0 <__FPU_Enable>
2ffc0f26:	ee11 3f10 	mrc	15, 0, r3, cr1, cr0, {0}
2ffc0f2a:	673b      	str	r3, [r7, #112]	@ 0x70
2ffc0f2c:	6f3b      	ldr	r3, [r7, #112]	@ 0x70
2ffc0f2e:	f443 5380 	orr.w	r3, r3, #4096	@ 0x1000
2ffc0f32:	f043 0304 	orr.w	r3, r3, #4
2ffc0f36:	66fb      	str	r3, [r7, #108]	@ 0x6c
2ffc0f38:	6efb      	ldr	r3, [r7, #108]	@ 0x6c
2ffc0f3a:	ee01 3f10 	mcr	15, 0, r3, cr1, cr0, {0}
2ffc0f3e:	bf00      	nop
2ffc0f40:	f3bf 8f6f 	isb	sy
2ffc0f44:	bf00      	nop
2ffc0f46:	bf00      	nop
2ffc0f48:	ee11 3f10 	mrc	15, 0, r3, cr1, cr0, {0}
2ffc0f4c:	67bb      	str	r3, [r7, #120]	@ 0x78
2ffc0f4e:	6fbb      	ldr	r3, [r7, #120]	@ 0x78
2ffc0f50:	f443 6300 	orr.w	r3, r3, #2048	@ 0x800
2ffc0f54:	677b      	str	r3, [r7, #116]	@ 0x74
2ffc0f56:	6f7b      	ldr	r3, [r7, #116]	@ 0x74
2ffc0f58:	ee01 3f10 	mcr	15, 0, r3, cr1, cr0, {0}
2ffc0f5c:	bf00      	nop
2ffc0f5e:	f3bf 8f6f 	isb	sy
2ffc0f62:	bf00      	nop
2ffc0f64:	bf00      	nop
2ffc0f66:	f006 f9e0 	bl	2ffc732a <IRQ_Initialize>
2ffc0f6a:	2300      	movs	r3, #0
2ffc0f6c:	67fb      	str	r3, [r7, #124]	@ 0x7c
2ffc0f6e:	e00d      	b.n	2ffc0f8c <SystemInit+0x264>
2ffc0f70:	6ff8      	ldr	r0, [r7, #124]	@ 0x7c
2ffc0f72:	f24a 0308 	movw	r3, #40968	@ 0xa008
2ffc0f76:	f6c2 73fc 	movt	r3, #12284	@ 0x2ffc
2ffc0f7a:	6ffa      	ldr	r2, [r7, #124]	@ 0x7c
2ffc0f7c:	f853 3022 	ldr.w	r3, [r3, r2, lsl #2]
2ffc0f80:	4619      	mov	r1, r3
2ffc0f82:	f006 f9ee 	bl	2ffc7362 <IRQ_SetHandler>
2ffc0f86:	6ffb      	ldr	r3, [r7, #124]	@ 0x7c
2ffc0f88:	3301      	adds	r3, #1
2ffc0f8a:	67fb      	str	r3, [r7, #124]	@ 0x7c
2ffc0f8c:	6ffb      	ldr	r3, [r7, #124]	@ 0x7c
2ffc0f8e:	2be7      	cmp	r3, #231	@ 0xe7
2ffc0f90:	d9ee      	bls.n	2ffc0f70 <SystemInit+0x248>
2ffc0f92:	f7ff fe48 	bl	2ffc0c26 <EnableSecurePhysicalTimer>
2ffc0f96:	bf00      	nop
2ffc0f98:	3780      	adds	r7, #128	@ 0x80
2ffc0f9a:	46bd      	mov	sp, r7
2ffc0f9c:	bd80      	pop	{r7, pc}

2ffc0f9e <_getpid>:
2ffc0f9e:	b480      	push	{r7}
2ffc0fa0:	af00      	add	r7, sp, #0
2ffc0fa2:	2301      	movs	r3, #1
2ffc0fa4:	4618      	mov	r0, r3
2ffc0fa6:	46bd      	mov	sp, r7
2ffc0fa8:	f85d 7b04 	ldr.w	r7, [sp], #4
2ffc0fac:	4770      	bx	lr

2ffc0fae <_kill>:
2ffc0fae:	b580      	push	{r7, lr}
2ffc0fb0:	b082      	sub	sp, #8
2ffc0fb2:	af00      	add	r7, sp, #0
2ffc0fb4:	6078      	str	r0, [r7, #4]
2ffc0fb6:	6039      	str	r1, [r7, #0]
2ffc0fb8:	f007 fcd2 	bl	2ffc8960 <__errno>
2ffc0fbc:	4603      	mov	r3, r0
2ffc0fbe:	2216      	movs	r2, #22
2ffc0fc0:	601a      	str	r2, [r3, #0]
2ffc0fc2:	f04f 33ff 	mov.w	r3, #4294967295	@ 0xffffffff
2ffc0fc6:	4618      	mov	r0, r3
2ffc0fc8:	3708      	adds	r7, #8
2ffc0fca:	46bd      	mov	sp, r7
2ffc0fcc:	bd80      	pop	{r7, pc}

2ffc0fce <_exit>:
2ffc0fce:	b580      	push	{r7, lr}
2ffc0fd0:	b082      	sub	sp, #8
2ffc0fd2:	af00      	add	r7, sp, #0
2ffc0fd4:	6078      	str	r0, [r7, #4]
2ffc0fd6:	f04f 31ff 	mov.w	r1, #4294967295	@ 0xffffffff
2ffc0fda:	6878      	ldr	r0, [r7, #4]
2ffc0fdc:	f7ff ffe7 	bl	2ffc0fae <_kill>
2ffc0fe0:	e7fe      	b.n	2ffc0fe0 <_exit+0x12>

2ffc0fe2 <_ZSt23__is_constant_evaluatedv>:
2ffc0fe2:	b480      	push	{r7}
2ffc0fe4:	af00      	add	r7, sp, #0
2ffc0fe6:	2300      	movs	r3, #0
2ffc0fe8:	4618      	mov	r0, r3
2ffc0fea:	46bd      	mov	sp, r7
2ffc0fec:	f85d 7b04 	ldr.w	r7, [sp], #4
2ffc0ff0:	4770      	bx	lr

2ffc0ff2 <_ZN8mdrivlib8ReadOnly4readEPVmmm>:
2ffc0ff2:	b480      	push	{r7}
2ffc0ff4:	b085      	sub	sp, #20
2ffc0ff6:	af00      	add	r7, sp, #0
2ffc0ff8:	60f8      	str	r0, [r7, #12]
2ffc0ffa:	60b9      	str	r1, [r7, #8]
2ffc0ffc:	607a      	str	r2, [r7, #4]
2ffc0ffe:	68fb      	ldr	r3, [r7, #12]
2ffc1000:	681a      	ldr	r2, [r3, #0]
2ffc1002:	687b      	ldr	r3, [r7, #4]
2ffc1004:	401a      	ands	r2, r3
2ffc1006:	68bb      	ldr	r3, [r7, #8]
2ffc1008:	fa22 f303 	lsr.w	r3, r2, r3
2ffc100c:	4618      	mov	r0, r3
2ffc100e:	3714      	adds	r7, #20
2ffc1010:	46bd      	mov	sp, r7
2ffc1012:	f85d 7b04 	ldr.w	r7, [sp], #4
2ffc1016:	4770      	bx	lr

2ffc1018 <_ZN8mdrivlib9WriteOnly3setEPVmm>:
2ffc1018:	b480      	push	{r7}
2ffc101a:	b083      	sub	sp, #12
2ffc101c:	af00      	add	r7, sp, #0
2ffc101e:	6078      	str	r0, [r7, #4]
2ffc1020:	6039      	str	r1, [r7, #0]
2ffc1022:	687b      	ldr	r3, [r7, #4]
2ffc1024:	683a      	ldr	r2, [r7, #0]
2ffc1026:	601a      	str	r2, [r3, #0]
2ffc1028:	bf00      	nop
2ffc102a:	370c      	adds	r7, #12
2ffc102c:	46bd      	mov	sp, r7
2ffc102e:	f85d 7b04 	ldr.w	r7, [sp], #4
2ffc1032:	4770      	bx	lr

2ffc1034 <_ZN8mdrivlib9ReadWrite5writeEPVmmmm>:
2ffc1034:	b480      	push	{r7}
2ffc1036:	b085      	sub	sp, #20
2ffc1038:	af00      	add	r7, sp, #0
2ffc103a:	60f8      	str	r0, [r7, #12]
2ffc103c:	60b9      	str	r1, [r7, #8]
2ffc103e:	607a      	str	r2, [r7, #4]
2ffc1040:	603b      	str	r3, [r7, #0]
2ffc1042:	68fb      	ldr	r3, [r7, #12]
2ffc1044:	681a      	ldr	r2, [r3, #0]
2ffc1046:	687b      	ldr	r3, [r7, #4]
2ffc1048:	43db      	mvns	r3, r3
2ffc104a:	401a      	ands	r2, r3
2ffc104c:	6839      	ldr	r1, [r7, #0]
2ffc104e:	68bb      	ldr	r3, [r7, #8]
2ffc1050:	4099      	lsls	r1, r3
2ffc1052:	687b      	ldr	r3, [r7, #4]
2ffc1054:	400b      	ands	r3, r1
2ffc1056:	431a      	orrs	r2, r3
2ffc1058:	68fb      	ldr	r3, [r7, #12]
2ffc105a:	601a      	str	r2, [r3, #0]
2ffc105c:	bf00      	nop
2ffc105e:	3714      	adds	r7, #20
2ffc1060:	46bd      	mov	sp, r7
2ffc1062:	f85d 7b04 	ldr.w	r7, [sp], #4
2ffc1066:	4770      	bx	lr

2ffc1068 <_ZN8mdrivlib9ReadWrite3setEPVmm>:
2ffc1068:	b480      	push	{r7}
2ffc106a:	b083      	sub	sp, #12
2ffc106c:	af00      	add	r7, sp, #0
2ffc106e:	6078      	str	r0, [r7, #4]
2ffc1070:	6039      	str	r1, [r7, #0]
2ffc1072:	687b      	ldr	r3, [r7, #4]
2ffc1074:	681a      	ldr	r2, [r3, #0]
2ffc1076:	683b      	ldr	r3, [r7, #0]
2ffc1078:	431a      	orrs	r2, r3
2ffc107a:	687b      	ldr	r3, [r7, #4]
2ffc107c:	601a      	str	r2, [r3, #0]
2ffc107e:	bf00      	nop
2ffc1080:	370c      	adds	r7, #12
2ffc1082:	46bd      	mov	sp, r7
2ffc1084:	f85d 7b04 	ldr.w	r7, [sp], #4
2ffc1088:	4770      	bx	lr

2ffc108a <_ZN8mdrivlib9ReadWrite5clearEPVmm>:
2ffc108a:	b480      	push	{r7}
2ffc108c:	b083      	sub	sp, #12
2ffc108e:	af00      	add	r7, sp, #0
2ffc1090:	6078      	str	r0, [r7, #4]
2ffc1092:	6039      	str	r1, [r7, #0]
2ffc1094:	687b      	ldr	r3, [r7, #4]
2ffc1096:	681a      	ldr	r2, [r3, #0]
2ffc1098:	683b      	ldr	r3, [r7, #0]
2ffc109a:	43db      	mvns	r3, r3
2ffc109c:	401a      	ands	r2, r3
2ffc109e:	687b      	ldr	r3, [r7, #4]
2ffc10a0:	601a      	str	r2, [r3, #0]
2ffc10a2:	bf00      	nop
2ffc10a4:	370c      	adds	r7, #12
2ffc10a6:	46bd      	mov	sp, r7
2ffc10a8:	f85d 7b04 	ldr.w	r7, [sp], #4
2ffc10ac:	4770      	bx	lr

2ffc10ae <_ZN8mdrivlib10RCC_Enable4GPIO12get_gpio_bitEm>:
2ffc10ae:	b480      	push	{r7}
2ffc10b0:	b083      	sub	sp, #12
2ffc10b2:	af00      	add	r7, sp, #0
2ffc10b4:	6078      	str	r0, [r7, #4]
2ffc10b6:	687b      	ldr	r3, [r7, #4]
2ffc10b8:	0b1b      	lsrs	r3, r3, #12
2ffc10ba:	3b02      	subs	r3, #2
2ffc10bc:	f003 030f 	and.w	r3, r3, #15
2ffc10c0:	2201      	movs	r2, #1
2ffc10c2:	fa02 f303 	lsl.w	r3, r2, r3
2ffc10c6:	4618      	mov	r0, r3
2ffc10c8:	370c      	adds	r7, #12
2ffc10ca:	46bd      	mov	sp, r7
2ffc10cc:	f85d 7b04 	ldr.w	r7, [sp], #4
2ffc10d0:	4770      	bx	lr

2ffc10d2 <_ZN8mdrivlib10RCC_Enable4GPIO6enableEP12GPIO_TypeDef>:
2ffc10d2:	b590      	push	{r4, r7, lr}
2ffc10d4:	b085      	sub	sp, #20
2ffc10d6:	af00      	add	r7, sp, #0
2ffc10d8:	6078      	str	r0, [r7, #4]
2ffc10da:	687a      	ldr	r2, [r7, #4]
2ffc10dc:	f44f 4380 	mov.w	r3, #16384	@ 0x4000
2ffc10e0:	f2c5 4300 	movt	r3, #21504	@ 0x5400
2ffc10e4:	429a      	cmp	r2, r3
2ffc10e6:	d102      	bne.n	2ffc10ee <_ZN8mdrivlib10RCC_Enable4GPIO6enableEP12GPIO_TypeDef+0x1c>
2ffc10e8:	f000 ff7a 	bl	2ffc1fe0 <_ZN8mdrivlib12RegisterBitsINS_9ReadWriteELm1342177808ELm1EE3setEv>
2ffc10ec:	e00f      	b.n	2ffc110e <_ZN8mdrivlib10RCC_Enable4GPIO6enableEP12GPIO_TypeDef+0x3c>
2ffc10ee:	f640 2328 	movw	r3, #2600	@ 0xa28
2ffc10f2:	f2c5 0300 	movt	r3, #20480	@ 0x5000
2ffc10f6:	681c      	ldr	r4, [r3, #0]
2ffc10f8:	687b      	ldr	r3, [r7, #4]
2ffc10fa:	4618      	mov	r0, r3
2ffc10fc:	f7ff ffd7 	bl	2ffc10ae <_ZN8mdrivlib10RCC_Enable4GPIO12get_gpio_bitEm>
2ffc1100:	4602      	mov	r2, r0
2ffc1102:	f640 2328 	movw	r3, #2600	@ 0xa28
2ffc1106:	f2c5 0300 	movt	r3, #20480	@ 0x5000
2ffc110a:	4322      	orrs	r2, r4
2ffc110c:	601a      	str	r2, [r3, #0]
2ffc110e:	6878      	ldr	r0, [r7, #4]
2ffc1110:	f000 f806 	bl	2ffc1120 <_ZN8mdrivlib10RCC_Enable4GPIO10is_enabledEP12GPIO_TypeDef>
2ffc1114:	4603      	mov	r3, r0
2ffc1116:	73fb      	strb	r3, [r7, #15]
2ffc1118:	bf00      	nop
2ffc111a:	3714      	adds	r7, #20
2ffc111c:	46bd      	mov	sp, r7
2ffc111e:	bd90      	pop	{r4, r7, pc}

2ffc1120 <_ZN8mdrivlib10RCC_Enable4GPIO10is_enabledEP12GPIO_TypeDef>:
2ffc1120:	b590      	push	{r4, r7, lr}
2ffc1122:	b083      	sub	sp, #12
2ffc1124:	af00      	add	r7, sp, #0
2ffc1126:	6078      	str	r0, [r7, #4]
2ffc1128:	687a      	ldr	r2, [r7, #4]
2ffc112a:	f44f 4380 	mov.w	r3, #16384	@ 0x4000
2ffc112e:	f2c5 4300 	movt	r3, #21504	@ 0x5400
2ffc1132:	429a      	cmp	r2, r3
2ffc1134:	d108      	bne.n	2ffc1148 <_ZN8mdrivlib10RCC_Enable4GPIO10is_enabledEP12GPIO_TypeDef+0x28>
2ffc1136:	f000 ff5e 	bl	2ffc1ff6 <_ZN8mdrivlib12RegisterBitsINS_9ReadWriteELm1342177808ELm1EE4readEv>
2ffc113a:	4603      	mov	r3, r0
2ffc113c:	2b00      	cmp	r3, #0
2ffc113e:	bf14      	ite	ne
2ffc1140:	2301      	movne	r3, #1
2ffc1142:	2300      	moveq	r3, #0
2ffc1144:	b2db      	uxtb	r3, r3
2ffc1146:	e00f      	b.n	2ffc1168 <_ZN8mdrivlib10RCC_Enable4GPIO10is_enabledEP12GPIO_TypeDef+0x48>
2ffc1148:	f640 2328 	movw	r3, #2600	@ 0xa28
2ffc114c:	f2c5 0300 	movt	r3, #20480	@ 0x5000
2ffc1150:	681c      	ldr	r4, [r3, #0]
2ffc1152:	687b      	ldr	r3, [r7, #4]
2ffc1154:	4618      	mov	r0, r3
2ffc1156:	f7ff ffaa 	bl	2ffc10ae <_ZN8mdrivlib10RCC_Enable4GPIO12get_gpio_bitEm>
2ffc115a:	4603      	mov	r3, r0
2ffc115c:	4023      	ands	r3, r4
2ffc115e:	2b00      	cmp	r3, #0
2ffc1160:	bf14      	ite	ne
2ffc1162:	2301      	movne	r3, #1
2ffc1164:	2300      	moveq	r3, #0
2ffc1166:	b2db      	uxtb	r3, r3
2ffc1168:	4618      	mov	r0, r3
2ffc116a:	370c      	adds	r7, #12
2ffc116c:	46bd      	mov	sp, r7
2ffc116e:	bd90      	pop	{r4, r7, pc}

2ffc1170 <_ZN12SystemClocks16init_core_clocksEmm>:
2ffc1170:	b580      	push	{r7, lr}
2ffc1172:	b090      	sub	sp, #64	@ 0x40
2ffc1174:	af00      	add	r7, sp, #0
2ffc1176:	6078      	str	r0, [r7, #4]
2ffc1178:	6039      	str	r1, [r7, #0]
2ffc117a:	2303      	movs	r3, #3
2ffc117c:	63fb      	str	r3, [r7, #60]	@ 0x3c
2ffc117e:	683b      	ldr	r3, [r7, #0]
2ffc1180:	f240 228a 	movw	r2, #650	@ 0x28a
2ffc1184:	4293      	cmp	r3, r2
2ffc1186:	d101      	bne.n	2ffc118c <_ZN12SystemClocks16init_core_clocksEmm+0x1c>
2ffc1188:	2351      	movs	r3, #81	@ 0x51
2ffc118a:	e000      	b.n	2ffc118e <_ZN12SystemClocks16init_core_clocksEmm+0x1e>
2ffc118c:	2364      	movs	r3, #100	@ 0x64
2ffc118e:	63bb      	str	r3, [r7, #56]	@ 0x38
2ffc1190:	2301      	movs	r3, #1
2ffc1192:	637b      	str	r3, [r7, #52]	@ 0x34
2ffc1194:	2302      	movs	r3, #2
2ffc1196:	633b      	str	r3, [r7, #48]	@ 0x30
2ffc1198:	2302      	movs	r3, #2
2ffc119a:	62fb      	str	r3, [r7, #44]	@ 0x2c
2ffc119c:	2300      	movs	r3, #0
2ffc119e:	62bb      	str	r3, [r7, #40]	@ 0x28
2ffc11a0:	2303      	movs	r3, #3
2ffc11a2:	627b      	str	r3, [r7, #36]	@ 0x24
2ffc11a4:	2342      	movs	r3, #66	@ 0x42
2ffc11a6:	623b      	str	r3, [r7, #32]
2ffc11a8:	2302      	movs	r3, #2
2ffc11aa:	61fb      	str	r3, [r7, #28]
2ffc11ac:	2301      	movs	r3, #1
2ffc11ae:	61bb      	str	r3, [r7, #24]
2ffc11b0:	2301      	movs	r3, #1
2ffc11b2:	617b      	str	r3, [r7, #20]
2ffc11b4:	f44f 53a0 	mov.w	r3, #5120	@ 0x1400
2ffc11b8:	613b      	str	r3, [r7, #16]
2ffc11ba:	2000      	movs	r0, #0
2ffc11bc:	f000 ff28 	bl	2ffc2010 <_ZN8mdrivlib12RegisterBitsINS_9ReadWriteELm1342177312ELm3EE5writeEm>
2ffc11c0:	2000      	movs	r0, #0
2ffc11c2:	f000 ff35 	bl	2ffc2030 <_ZN8mdrivlib12RegisterBitsINS_9ReadWriteELm1342177316ELm7EE5writeEm>
2ffc11c6:	f000 ff43 	bl	2ffc2050 <_ZN8mdrivlib20RegisterDualSetClearILm1342177292ELm256ELm1342177296ELm256EE5clearEv>
2ffc11ca:	bf00      	nop
2ffc11cc:	f000 ff4b 	bl	2ffc2066 <_ZN8mdrivlib12RegisterBitsINS_8ReadOnlyELm1342179336ELm256EE4readEv>
2ffc11d0:	4603      	mov	r3, r0
2ffc11d2:	2b00      	cmp	r3, #0
2ffc11d4:	bf14      	ite	ne
2ffc11d6:	2301      	movne	r3, #1
2ffc11d8:	2300      	moveq	r3, #0
2ffc11da:	b2db      	uxtb	r3, r3
2ffc11dc:	2b00      	cmp	r3, #0
2ffc11de:	d1f5      	bne.n	2ffc11cc <_ZN12SystemClocks16init_core_clocksEmm+0x5c>
2ffc11e0:	f000 ff4f 	bl	2ffc2082 <_ZN8mdrivlib20RegisterDualSetClearILm1342177292ELm128ELm1342177296ELm128EE5clearEv>
2ffc11e4:	f000 ff57 	bl	2ffc2096 <_ZN8mdrivlib20RegisterDualSetClearILm1342177292ELm1024ELm1342177296ELm1024EE3setEv>
2ffc11e8:	f000 ff60 	bl	2ffc20ac <_ZN8mdrivlib20RegisterDualSetClearILm1342177292ELm256ELm1342177296ELm256EE3setEv>
2ffc11ec:	bf00      	nop
2ffc11ee:	f000 ff3a 	bl	2ffc2066 <_ZN8mdrivlib12RegisterBitsINS_8ReadOnlyELm1342179336ELm256EE4readEv>
2ffc11f2:	4603      	mov	r3, r0
2ffc11f4:	2b00      	cmp	r3, #0
2ffc11f6:	bf0c      	ite	eq
2ffc11f8:	2301      	moveq	r3, #1
2ffc11fa:	2300      	movne	r3, #0
2ffc11fc:	b2db      	uxtb	r3, r3
2ffc11fe:	2b00      	cmp	r3, #0
2ffc1200:	d1f5      	bne.n	2ffc11ee <_ZN12SystemClocks16init_core_clocksEmm+0x7e>
2ffc1202:	f000 ff5e 	bl	2ffc20c2 <_ZN8mdrivlib12RegisterBitsINS_9ReadWriteELm1342177408ELm16EE5clearEv>
2ffc1206:	f000 ff66 	bl	2ffc20d6 <_ZN8mdrivlib12RegisterBitsINS_9ReadWriteELm1342177408ELm32EE5clearEv>
2ffc120a:	f000 ff6e 	bl	2ffc20ea <_ZN8mdrivlib12RegisterBitsINS_9ReadWriteELm1342177408ELm64EE5clearEv>
2ffc120e:	f000 ff76 	bl	2ffc20fe <_ZN8mdrivlib12RegisterBitsINS_9ReadWriteELm1342177408ELm1EE5clearEv>
2ffc1212:	bf00      	nop
2ffc1214:	f000 ff7d 	bl	2ffc2112 <_ZN8mdrivlib12RegisterBitsINS_8ReadOnlyELm1342177408ELm2EE4readEv>
2ffc1218:	4603      	mov	r3, r0
2ffc121a:	2b00      	cmp	r3, #0
2ffc121c:	bf14      	ite	ne
2ffc121e:	2301      	movne	r3, #1
2ffc1220:	2300      	moveq	r3, #0
2ffc1222:	b2db      	uxtb	r3, r3
2ffc1224:	2b00      	cmp	r3, #0
2ffc1226:	d1f5      	bne.n	2ffc1214 <_ZN12SystemClocks16init_core_clocksEmm+0xa4>
2ffc1228:	2001      	movs	r0, #1
2ffc122a:	f000 ff7e 	bl	2ffc212a <_ZN8mdrivlib12RegisterBitsINS_9ReadWriteELm1342177320ELm3EE5writeEm>
2ffc122e:	bf00      	nop
2ffc1230:	f000 ff8b 	bl	2ffc214a <_ZN8mdrivlib12RegisterBitsINS_8ReadOnlyELm1342177320ELm2147483648EE4readEv>
2ffc1234:	4603      	mov	r3, r0
2ffc1236:	2b00      	cmp	r3, #0
2ffc1238:	bf0c      	ite	eq
2ffc123a:	2301      	moveq	r3, #1
2ffc123c:	2300      	movne	r3, #0
2ffc123e:	b2db      	uxtb	r3, r3
2ffc1240:	2b00      	cmp	r3, #0
2ffc1242:	d1f5      	bne.n	2ffc1230 <_ZN12SystemClocks16init_core_clocksEmm+0xc0>
2ffc1244:	2002      	movs	r0, #2
2ffc1246:	f000 ff8d 	bl	2ffc2164 <_ZN8mdrivlib12RegisterBitsINS_9ReadWriteELm1342177412ELm4128768EE5writeEm>
2ffc124a:	6bbb      	ldr	r3, [r7, #56]	@ 0x38
2ffc124c:	3b01      	subs	r3, #1
2ffc124e:	4618      	mov	r0, r3
2ffc1250:	f000 ff99 	bl	2ffc2186 <_ZN8mdrivlib12RegisterBitsINS_9ReadWriteELm1342177412ELm511EE5writeEm>
2ffc1254:	2000      	movs	r0, #0
2ffc1256:	f000 ffa7 	bl	2ffc21a8 <_ZN8mdrivlib12RegisterBitsINS_9ReadWriteELm1342177416ELm127EE5writeEm>
2ffc125a:	2001      	movs	r0, #1
2ffc125c:	f000 ffb4 	bl	2ffc21c8 <_ZN8mdrivlib12RegisterBitsINS_9ReadWriteELm1342177416ELm32512EE5writeEm>
2ffc1260:	2001      	movs	r0, #1
2ffc1262:	f000 ffc2 	bl	2ffc21ea <_ZN8mdrivlib12RegisterBitsINS_9ReadWriteELm1342177416ELm8323072EE5writeEm>
2ffc1266:	f000 ffd1 	bl	2ffc220c <_ZN8mdrivlib12RegisterBitsINS_9ReadWriteELm1342177420ELm65536EE5clearEv>
2ffc126a:	2000      	movs	r0, #0
2ffc126c:	f000 ffd9 	bl	2ffc2222 <_ZN8mdrivlib12RegisterBitsINS_9ReadWriteELm1342177420ELm65528EE5writeEm>
2ffc1270:	f000 ffe8 	bl	2ffc2244 <_ZN8mdrivlib12RegisterBitsINS_9ReadWriteELm1342177420ELm65536EE3setEv>
2ffc1274:	f000 fff1 	bl	2ffc225a <_ZN8mdrivlib12RegisterBitsINS_9ReadWriteELm1342177408ELm4EE5clearEv>
2ffc1278:	f000 fff9 	bl	2ffc226e <_ZN8mdrivlib12RegisterBitsINS_9ReadWriteELm1342177408ELm1EE3setEv>
2ffc127c:	bf00      	nop
2ffc127e:	f000 ff48 	bl	2ffc2112 <_ZN8mdrivlib12RegisterBitsINS_8ReadOnlyELm1342177408ELm2EE4readEv>
2ffc1282:	4603      	mov	r3, r0
2ffc1284:	2b00      	cmp	r3, #0
2ffc1286:	bf0c      	ite	eq
2ffc1288:	2301      	moveq	r3, #1
2ffc128a:	2300      	movne	r3, #0
2ffc128c:	b2db      	uxtb	r3, r3
2ffc128e:	2b00      	cmp	r3, #0
2ffc1290:	d1f5      	bne.n	2ffc127e <_ZN12SystemClocks16init_core_clocksEmm+0x10e>
2ffc1292:	f000 fff6 	bl	2ffc2282 <_ZN8mdrivlib12RegisterBitsINS_9ReadWriteELm1342177408ELm16EE3setEv>
2ffc1296:	f000 fffe 	bl	2ffc2296 <_ZN8mdrivlib12RegisterBitsINS_9ReadWriteELm1342177408ELm32EE3setEv>
2ffc129a:	f001 f806 	bl	2ffc22aa <_ZN8mdrivlib12RegisterBitsINS_9ReadWriteELm1342177408ELm64EE3setEv>
2ffc129e:	f001 f80e 	bl	2ffc22be <_ZN8mdrivlib12RegisterBitsINS_9ReadWriteELm1342177428ELm16EE5clearEv>
2ffc12a2:	f001 f816 	bl	2ffc22d2 <_ZN8mdrivlib12RegisterBitsINS_9ReadWriteELm1342177428ELm32EE5clearEv>
2ffc12a6:	f001 f81e 	bl	2ffc22e6 <_ZN8mdrivlib12RegisterBitsINS_9ReadWriteELm1342177428ELm64EE5clearEv>
2ffc12aa:	f001 f826 	bl	2ffc22fa <_ZN8mdrivlib12RegisterBitsINS_9ReadWriteELm1342177428ELm1EE5clearEv>
2ffc12ae:	bf00      	nop
2ffc12b0:	f001 f82d 	bl	2ffc230e <_ZN8mdrivlib12RegisterBitsINS_8ReadOnlyELm1342177428ELm2EE4readEv>
2ffc12b4:	4603      	mov	r3, r0
2ffc12b6:	2b00      	cmp	r3, #0
2ffc12b8:	bf14      	ite	ne
2ffc12ba:	2301      	movne	r3, #1
2ffc12bc:	2300      	moveq	r3, #0
2ffc12be:	b2db      	uxtb	r3, r3
2ffc12c0:	2b00      	cmp	r3, #0
2ffc12c2:	d1f5      	bne.n	2ffc12b0 <_ZN12SystemClocks16init_core_clocksEmm+0x140>
2ffc12c4:	2002      	movs	r0, #2
2ffc12c6:	f001 f82e 	bl	2ffc2326 <_ZN8mdrivlib12RegisterBitsINS_9ReadWriteELm1342177432ELm4128768EE5writeEm>
2ffc12ca:	2041      	movs	r0, #65	@ 0x41
2ffc12cc:	f001 f83c 	bl	2ffc2348 <_ZN8mdrivlib12RegisterBitsINS_9ReadWriteELm1342177432ELm511EE5writeEm>
2ffc12d0:	2001      	movs	r0, #1
2ffc12d2:	f001 f84a 	bl	2ffc236a <_ZN8mdrivlib12RegisterBitsINS_9ReadWriteELm1342177436ELm127EE5writeEm>
2ffc12d6:	2000      	movs	r0, #0
2ffc12d8:	f001 f857 	bl	2ffc238a <_ZN8mdrivlib12RegisterBitsINS_9ReadWriteELm1342177436ELm32512EE5writeEm>
2ffc12dc:	2000      	movs	r0, #0
2ffc12de:	f001 f865 	bl	2ffc23ac <_ZN8mdrivlib12RegisterBitsINS_9ReadWriteELm1342177436ELm8323072EE5writeEm>
2ffc12e2:	f001 f874 	bl	2ffc23ce <_ZN8mdrivlib12RegisterBitsINS_9ReadWriteELm1342177440ELm65536EE5clearEv>
2ffc12e6:	f44f 50a0 	mov.w	r0, #5120	@ 0x1400
2ffc12ea:	f001 f87b 	bl	2ffc23e4 <_ZN8mdrivlib12RegisterBitsINS_9ReadWriteELm1342177440ELm65528EE5writeEm>
2ffc12ee:	f001 f88a 	bl	2ffc2406 <_ZN8mdrivlib12RegisterBitsINS_9ReadWriteELm1342177440ELm65536EE3setEv>
2ffc12f2:	f001 f893 	bl	2ffc241c <_ZN8mdrivlib12RegisterBitsINS_9ReadWriteELm1342177428ELm4EE5clearEv>
2ffc12f6:	f001 f89b 	bl	2ffc2430 <_ZN8mdrivlib12RegisterBitsINS_9ReadWriteELm1342177428ELm1EE3setEv>
2ffc12fa:	bf00      	nop
2ffc12fc:	f001 f807 	bl	2ffc230e <_ZN8mdrivlib12RegisterBitsINS_8ReadOnlyELm1342177428ELm2EE4readEv>
2ffc1300:	4603      	mov	r3, r0
2ffc1302:	2b00      	cmp	r3, #0
2ffc1304:	bf0c      	ite	eq
2ffc1306:	2301      	moveq	r3, #1
2ffc1308:	2300      	movne	r3, #0
2ffc130a:	b2db      	uxtb	r3, r3
2ffc130c:	2b00      	cmp	r3, #0
2ffc130e:	d1f5      	bne.n	2ffc12fc <_ZN12SystemClocks16init_core_clocksEmm+0x18c>
2ffc1310:	f001 f898 	bl	2ffc2444 <_ZN8mdrivlib12RegisterBitsINS_9ReadWriteELm1342177428ELm16EE3setEv>
2ffc1314:	f001 f8a0 	bl	2ffc2458 <_ZN8mdrivlib12RegisterBitsINS_9ReadWriteELm1342177428ELm32EE3setEv>
2ffc1318:	f001 f8a8 	bl	2ffc246c <_ZN8mdrivlib12RegisterBitsINS_9ReadWriteELm1342177428ELm64EE3setEv>
2ffc131c:	2002      	movs	r0, #2
2ffc131e:	f000 fe77 	bl	2ffc2010 <_ZN8mdrivlib12RegisterBitsINS_9ReadWriteELm1342177312ELm3EE5writeEm>
2ffc1322:	bf00      	nop
2ffc1324:	f001 f8ac 	bl	2ffc2480 <_ZN8mdrivlib12RegisterBitsINS_8ReadOnlyELm1342177312ELm2147483648EE4readEv>
2ffc1328:	4603      	mov	r3, r0
2ffc132a:	2b00      	cmp	r3, #0
2ffc132c:	bf0c      	ite	eq
2ffc132e:	2301      	moveq	r3, #1
2ffc1330:	2300      	movne	r3, #0
2ffc1332:	b2db      	uxtb	r3, r3
2ffc1334:	2b00      	cmp	r3, #0
2ffc1336:	d1f5      	bne.n	2ffc1324 <_ZN12SystemClocks16init_core_clocksEmm+0x1b4>
2ffc1338:	2002      	movs	r0, #2
2ffc133a:	f000 fe79 	bl	2ffc2030 <_ZN8mdrivlib12RegisterBitsINS_9ReadWriteELm1342177316ELm7EE5writeEm>
2ffc133e:	bf00      	nop
2ffc1340:	f001 f89e 	bl	2ffc2480 <_ZN8mdrivlib12RegisterBitsINS_8ReadOnlyELm1342177312ELm2147483648EE4readEv>
2ffc1344:	4603      	mov	r3, r0
2ffc1346:	2b00      	cmp	r3, #0
2ffc1348:	bf0c      	ite	eq
2ffc134a:	2301      	moveq	r3, #1
2ffc134c:	2300      	movne	r3, #0
2ffc134e:	b2db      	uxtb	r3, r3
2ffc1350:	2b00      	cmp	r3, #0
2ffc1352:	d1f5      	bne.n	2ffc1340 <_ZN12SystemClocks16init_core_clocksEmm+0x1d0>
2ffc1354:	2000      	movs	r0, #0
2ffc1356:	f001 f8a0 	bl	2ffc249a <_ZN8mdrivlib12RegisterBitsINS_9ReadWriteELm1342177328ELm7EE5writeEm>
2ffc135a:	bf00      	nop
2ffc135c:	f001 f8ad 	bl	2ffc24ba <_ZN8mdrivlib12RegisterBitsINS_8ReadOnlyELm1342177328ELm2147483648EE4readEv>
2ffc1360:	4603      	mov	r3, r0
2ffc1362:	2b00      	cmp	r3, #0
2ffc1364:	bf0c      	ite	eq
2ffc1366:	2301      	moveq	r3, #1
2ffc1368:	2300      	movne	r3, #0
2ffc136a:	b2db      	uxtb	r3, r3
2ffc136c:	2b00      	cmp	r3, #0
2ffc136e:	d1f5      	bne.n	2ffc135c <_ZN12SystemClocks16init_core_clocksEmm+0x1ec>
2ffc1370:	687b      	ldr	r3, [r7, #4]
2ffc1372:	ee07 3a90 	vmov	s15, r3
2ffc1376:	eeb8 7a67 	vcvt.f32.u32	s14, s15
2ffc137a:	6bbb      	ldr	r3, [r7, #56]	@ 0x38
2ffc137c:	ee07 3a90 	vmov	s15, r3
2ffc1380:	eef8 7a67 	vcvt.f32.u32	s15, s15
2ffc1384:	ee27 7a27 	vmul.f32	s14, s14, s15
2ffc1388:	eef0 6a08 	vmov.f32	s13, #8	@ 0x40400000  3.0
2ffc138c:	eec7 7a26 	vdiv.f32	s15, s14, s13
2ffc1390:	edc7 7a03 	vstr	s15, [r7, #12]
2ffc1394:	edd7 7a03 	vldr	s15, [r7, #12]
2ffc1398:	eefc 7ae7 	vcvt.u32.f32	s15, s15
2ffc139c:	ee17 2a90 	vmov	r2, s15
2ffc13a0:	f24a 33a8 	movw	r3, #41896	@ 0xa3a8
2ffc13a4:	f6c2 73fc 	movt	r3, #12284	@ 0x2ffc
2ffc13a8:	601a      	str	r2, [r3, #0]
2ffc13aa:	f24a 33a8 	movw	r3, #41896	@ 0xa3a8
2ffc13ae:	f6c2 73fc 	movt	r3, #12284	@ 0x2ffc
2ffc13b2:	681b      	ldr	r3, [r3, #0]
2ffc13b4:	4618      	mov	r0, r3
2ffc13b6:	3740      	adds	r7, #64	@ 0x40
2ffc13b8:	46bd      	mov	sp, r7
2ffc13ba:	bd80      	pop	{r7, pc}

2ffc13bc <_ZL6udelaym>:
2ffc13bc:	b480      	push	{r7}
2ffc13be:	b087      	sub	sp, #28
2ffc13c0:	af00      	add	r7, sp, #0
2ffc13c2:	6078      	str	r0, [r7, #4]
2ffc13c4:	2305      	movs	r3, #5
2ffc13c6:	617b      	str	r3, [r7, #20]
2ffc13c8:	687b      	ldr	r3, [r7, #4]
2ffc13ca:	2205      	movs	r2, #5
2ffc13cc:	fb02 f303 	mul.w	r3, r2, r3
2ffc13d0:	613b      	str	r3, [r7, #16]
2ffc13d2:	693b      	ldr	r3, [r7, #16]
2ffc13d4:	60fb      	str	r3, [r7, #12]
2ffc13d6:	e002      	b.n	2ffc13de <_ZL6udelaym+0x22>
2ffc13d8:	68fb      	ldr	r3, [r7, #12]
2ffc13da:	3b01      	subs	r3, #1
2ffc13dc:	60fb      	str	r3, [r7, #12]
2ffc13de:	68fb      	ldr	r3, [r7, #12]
2ffc13e0:	2b00      	cmp	r3, #0
2ffc13e2:	bf14      	ite	ne
2ffc13e4:	2301      	movne	r3, #1
2ffc13e6:	2300      	moveq	r3, #0
2ffc13e8:	b2db      	uxtb	r3, r3
2ffc13ea:	2b00      	cmp	r3, #0
2ffc13ec:	d1f4      	bne.n	2ffc13d8 <_ZL6udelaym+0x1c>
2ffc13ee:	bf00      	nop
2ffc13f0:	bf00      	nop
2ffc13f2:	371c      	adds	r7, #28
2ffc13f4:	46bd      	mov	sp, r7
2ffc13f6:	f85d 7b04 	ldr.w	r7, [sp], #4
2ffc13fa:	4770      	bx	lr

2ffc13fc <LL_GPIO_SetPinMode>:
2ffc13fc:	b480      	push	{r7}
2ffc13fe:	b085      	sub	sp, #20
2ffc1400:	af00      	add	r7, sp, #0
2ffc1402:	60f8      	str	r0, [r7, #12]
2ffc1404:	60b9      	str	r1, [r7, #8]
2ffc1406:	607a      	str	r2, [r7, #4]
2ffc1408:	68fb      	ldr	r3, [r7, #12]
2ffc140a:	681a      	ldr	r2, [r3, #0]
2ffc140c:	68bb      	ldr	r3, [r7, #8]
2ffc140e:	fb03 f303 	mul.w	r3, r3, r3
2ffc1412:	2103      	movs	r1, #3
2ffc1414:	fb01 f303 	mul.w	r3, r1, r3
2ffc1418:	43db      	mvns	r3, r3
2ffc141a:	401a      	ands	r2, r3
2ffc141c:	68bb      	ldr	r3, [r7, #8]
2ffc141e:	fb03 f303 	mul.w	r3, r3, r3
2ffc1422:	6879      	ldr	r1, [r7, #4]
2ffc1424:	fb01 f303 	mul.w	r3, r1, r3
2ffc1428:	431a      	orrs	r2, r3
2ffc142a:	68fb      	ldr	r3, [r7, #12]
2ffc142c:	601a      	str	r2, [r3, #0]
2ffc142e:	bf00      	nop
2ffc1430:	3714      	adds	r7, #20
2ffc1432:	46bd      	mov	sp, r7
2ffc1434:	f85d 7b04 	ldr.w	r7, [sp], #4
2ffc1438:	4770      	bx	lr

2ffc143a <LL_GPIO_SetPinOutputType>:
2ffc143a:	b480      	push	{r7}
2ffc143c:	b085      	sub	sp, #20
2ffc143e:	af00      	add	r7, sp, #0
2ffc1440:	60f8      	str	r0, [r7, #12]
2ffc1442:	60b9      	str	r1, [r7, #8]
2ffc1444:	607a      	str	r2, [r7, #4]
2ffc1446:	68fb      	ldr	r3, [r7, #12]
2ffc1448:	685a      	ldr	r2, [r3, #4]
2ffc144a:	68bb      	ldr	r3, [r7, #8]
2ffc144c:	43db      	mvns	r3, r3
2ffc144e:	401a      	ands	r2, r3
2ffc1450:	68bb      	ldr	r3, [r7, #8]
2ffc1452:	6879      	ldr	r1, [r7, #4]
2ffc1454:	fb01 f303 	mul.w	r3, r1, r3
2ffc1458:	431a      	orrs	r2, r3
2ffc145a:	68fb      	ldr	r3, [r7, #12]
2ffc145c:	605a      	str	r2, [r3, #4]
2ffc145e:	bf00      	nop
2ffc1460:	3714      	adds	r7, #20
2ffc1462:	46bd      	mov	sp, r7
2ffc1464:	f85d 7b04 	ldr.w	r7, [sp], #4
2ffc1468:	4770      	bx	lr

2ffc146a <LL_GPIO_SetPinSpeed>:
2ffc146a:	b480      	push	{r7}
2ffc146c:	b085      	sub	sp, #20
2ffc146e:	af00      	add	r7, sp, #0
2ffc1470:	60f8      	str	r0, [r7, #12]
2ffc1472:	60b9      	str	r1, [r7, #8]
2ffc1474:	607a      	str	r2, [r7, #4]
2ffc1476:	68fb      	ldr	r3, [r7, #12]
2ffc1478:	689a      	ldr	r2, [r3, #8]
2ffc147a:	68bb      	ldr	r3, [r7, #8]
2ffc147c:	fb03 f303 	mul.w	r3, r3, r3
2ffc1480:	2103      	movs	r1, #3
2ffc1482:	fb01 f303 	mul.w	r3, r1, r3
2ffc1486:	43db      	mvns	r3, r3
2ffc1488:	401a      	ands	r2, r3
2ffc148a:	68bb      	ldr	r3, [r7, #8]
2ffc148c:	fb03 f303 	mul.w	r3, r3, r3
2ffc1490:	6879      	ldr	r1, [r7, #4]
2ffc1492:	fb01 f303 	mul.w	r3, r1, r3
2ffc1496:	431a      	orrs	r2, r3
2ffc1498:	68fb      	ldr	r3, [r7, #12]
2ffc149a:	609a      	str	r2, [r3, #8]
2ffc149c:	bf00      	nop
2ffc149e:	3714      	adds	r7, #20
2ffc14a0:	46bd      	mov	sp, r7
2ffc14a2:	f85d 7b04 	ldr.w	r7, [sp], #4
2ffc14a6:	4770      	bx	lr

2ffc14a8 <LL_GPIO_SetPinPull>:
2ffc14a8:	b480      	push	{r7}
2ffc14aa:	b085      	sub	sp, #20
2ffc14ac:	af00      	add	r7, sp, #0
2ffc14ae:	60f8      	str	r0, [r7, #12]
2ffc14b0:	60b9      	str	r1, [r7, #8]
2ffc14b2:	607a      	str	r2, [r7, #4]
2ffc14b4:	68fb      	ldr	r3, [r7, #12]
2ffc14b6:	68da      	ldr	r2, [r3, #12]
2ffc14b8:	68bb      	ldr	r3, [r7, #8]
2ffc14ba:	fb03 f303 	mul.w	r3, r3, r3
2ffc14be:	2103      	movs	r1, #3
2ffc14c0:	fb01 f303 	mul.w	r3, r1, r3
2ffc14c4:	43db      	mvns	r3, r3
2ffc14c6:	401a      	ands	r2, r3
2ffc14c8:	68bb      	ldr	r3, [r7, #8]
2ffc14ca:	fb03 f303 	mul.w	r3, r3, r3
2ffc14ce:	6879      	ldr	r1, [r7, #4]
2ffc14d0:	fb01 f303 	mul.w	r3, r1, r3
2ffc14d4:	431a      	orrs	r2, r3
2ffc14d6:	68fb      	ldr	r3, [r7, #12]
2ffc14d8:	60da      	str	r2, [r3, #12]
2ffc14da:	bf00      	nop
2ffc14dc:	3714      	adds	r7, #20
2ffc14de:	46bd      	mov	sp, r7
2ffc14e0:	f85d 7b04 	ldr.w	r7, [sp], #4
2ffc14e4:	4770      	bx	lr

2ffc14e6 <LL_GPIO_SetAFPin_0_7>:
2ffc14e6:	b480      	push	{r7}
2ffc14e8:	b085      	sub	sp, #20
2ffc14ea:	af00      	add	r7, sp, #0
2ffc14ec:	60f8      	str	r0, [r7, #12]
2ffc14ee:	60b9      	str	r1, [r7, #8]
2ffc14f0:	607a      	str	r2, [r7, #4]
2ffc14f2:	68fb      	ldr	r3, [r7, #12]
2ffc14f4:	6a1a      	ldr	r2, [r3, #32]
2ffc14f6:	68bb      	ldr	r3, [r7, #8]
2ffc14f8:	fb03 f303 	mul.w	r3, r3, r3
2ffc14fc:	68b9      	ldr	r1, [r7, #8]
2ffc14fe:	fb01 f303 	mul.w	r3, r1, r3
2ffc1502:	68b9      	ldr	r1, [r7, #8]
2ffc1504:	fb01 f303 	mul.w	r3, r1, r3
2ffc1508:	210f      	movs	r1, #15
2ffc150a:	fb01 f303 	mul.w	r3, r1, r3
2ffc150e:	43db      	mvns	r3, r3
2ffc1510:	401a      	ands	r2, r3
2ffc1512:	68bb      	ldr	r3, [r7, #8]
2ffc1514:	fb03 f303 	mul.w	r3, r3, r3
2ffc1518:	68b9      	ldr	r1, [r7, #8]
2ffc151a:	fb01 f303 	mul.w	r3, r1, r3
2ffc151e:	68b9      	ldr	r1, [r7, #8]
2ffc1520:	fb01 f303 	mul.w	r3, r1, r3
2ffc1524:	6879      	ldr	r1, [r7, #4]
2ffc1526:	fb01 f303 	mul.w	r3, r1, r3
2ffc152a:	431a      	orrs	r2, r3
2ffc152c:	68fb      	ldr	r3, [r7, #12]
2ffc152e:	621a      	str	r2, [r3, #32]
2ffc1530:	bf00      	nop
2ffc1532:	3714      	adds	r7, #20
2ffc1534:	46bd      	mov	sp, r7
2ffc1536:	f85d 7b04 	ldr.w	r7, [sp], #4
2ffc153a:	4770      	bx	lr

2ffc153c <LL_GPIO_SetAFPin_8_15>:
2ffc153c:	b480      	push	{r7}
2ffc153e:	b085      	sub	sp, #20
2ffc1540:	af00      	add	r7, sp, #0
2ffc1542:	60f8      	str	r0, [r7, #12]
2ffc1544:	60b9      	str	r1, [r7, #8]
2ffc1546:	607a      	str	r2, [r7, #4]
2ffc1548:	68fb      	ldr	r3, [r7, #12]
2ffc154a:	6a5a      	ldr	r2, [r3, #36]	@ 0x24
2ffc154c:	68bb      	ldr	r3, [r7, #8]
2ffc154e:	0a1b      	lsrs	r3, r3, #8
2ffc1550:	68b9      	ldr	r1, [r7, #8]
2ffc1552:	0a09      	lsrs	r1, r1, #8
2ffc1554:	fb01 f303 	mul.w	r3, r1, r3
2ffc1558:	68b9      	ldr	r1, [r7, #8]
2ffc155a:	0a09      	lsrs	r1, r1, #8
2ffc155c:	fb01 f303 	mul.w	r3, r1, r3
2ffc1560:	68b9      	ldr	r1, [r7, #8]
2ffc1562:	0a09      	lsrs	r1, r1, #8
2ffc1564:	fb01 f303 	mul.w	r3, r1, r3
2ffc1568:	210f      	movs	r1, #15
2ffc156a:	fb01 f303 	mul.w	r3, r1, r3
2ffc156e:	43db      	mvns	r3, r3
2ffc1570:	401a      	ands	r2, r3
2ffc1572:	68bb      	ldr	r3, [r7, #8]
2ffc1574:	0a1b      	lsrs	r3, r3, #8
2ffc1576:	68b9      	ldr	r1, [r7, #8]
2ffc1578:	0a09      	lsrs	r1, r1, #8
2ffc157a:	fb01 f303 	mul.w	r3, r1, r3
2ffc157e:	68b9      	ldr	r1, [r7, #8]
2ffc1580:	0a09      	lsrs	r1, r1, #8
2ffc1582:	fb01 f303 	mul.w	r3, r1, r3
2ffc1586:	68b9      	ldr	r1, [r7, #8]
2ffc1588:	0a09      	lsrs	r1, r1, #8
2ffc158a:	fb01 f303 	mul.w	r3, r1, r3
2ffc158e:	6879      	ldr	r1, [r7, #4]
2ffc1590:	fb01 f303 	mul.w	r3, r1, r3
2ffc1594:	431a      	orrs	r2, r3
2ffc1596:	68fb      	ldr	r3, [r7, #12]
2ffc1598:	625a      	str	r2, [r3, #36]	@ 0x24
2ffc159a:	bf00      	nop
2ffc159c:	3714      	adds	r7, #20
2ffc159e:	46bd      	mov	sp, r7
2ffc15a0:	f85d 7b04 	ldr.w	r7, [sp], #4
2ffc15a4:	4770      	bx	lr

2ffc15a6 <LL_GPIO_SetOutputPin>:
2ffc15a6:	b480      	push	{r7}
2ffc15a8:	b083      	sub	sp, #12
2ffc15aa:	af00      	add	r7, sp, #0
2ffc15ac:	6078      	str	r0, [r7, #4]
2ffc15ae:	6039      	str	r1, [r7, #0]
2ffc15b0:	687b      	ldr	r3, [r7, #4]
2ffc15b2:	683a      	ldr	r2, [r7, #0]
2ffc15b4:	619a      	str	r2, [r3, #24]
2ffc15b6:	bf00      	nop
2ffc15b8:	370c      	adds	r7, #12
2ffc15ba:	46bd      	mov	sp, r7
2ffc15bc:	f85d 7b04 	ldr.w	r7, [sp], #4
2ffc15c0:	4770      	bx	lr

2ffc15c2 <LL_GPIO_ResetOutputPin>:
2ffc15c2:	b480      	push	{r7}
2ffc15c4:	b083      	sub	sp, #12
2ffc15c6:	af00      	add	r7, sp, #0
2ffc15c8:	6078      	str	r0, [r7, #4]
2ffc15ca:	6039      	str	r1, [r7, #0]
2ffc15cc:	683b      	ldr	r3, [r7, #0]
2ffc15ce:	041a      	lsls	r2, r3, #16
2ffc15d0:	687b      	ldr	r3, [r7, #4]
2ffc15d2:	619a      	str	r2, [r3, #24]
2ffc15d4:	bf00      	nop
2ffc15d6:	370c      	adds	r7, #12
2ffc15d8:	46bd      	mov	sp, r7
2ffc15da:	f85d 7b04 	ldr.w	r7, [sp], #4
2ffc15de:	4770      	bx	lr

2ffc15e0 <_ZNK7PinConf4initE7PinMode7PinPull11PinPolarity8PinSpeed8PinOType>:
2ffc15e0:	b580      	push	{r7, lr}
2ffc15e2:	b086      	sub	sp, #24
2ffc15e4:	af00      	add	r7, sp, #0
2ffc15e6:	60f8      	str	r0, [r7, #12]
2ffc15e8:	60b9      	str	r1, [r7, #8]
2ffc15ea:	607a      	str	r2, [r7, #4]
2ffc15ec:	603b      	str	r3, [r7, #0]
2ffc15ee:	68fb      	ldr	r3, [r7, #12]
2ffc15f0:	681b      	ldr	r3, [r3, #0]
2ffc15f2:	617b      	str	r3, [r7, #20]
2ffc15f4:	68fb      	ldr	r3, [r7, #12]
2ffc15f6:	889b      	ldrh	r3, [r3, #4]
2ffc15f8:	827b      	strh	r3, [r7, #18]
2ffc15fa:	6978      	ldr	r0, [r7, #20]
2ffc15fc:	f7ff fd69 	bl	2ffc10d2 <_ZN8mdrivlib10RCC_Enable4GPIO6enableEP12GPIO_TypeDef>
2ffc1600:	8a7b      	ldrh	r3, [r7, #18]
2ffc1602:	68ba      	ldr	r2, [r7, #8]
2ffc1604:	4619      	mov	r1, r3
2ffc1606:	6978      	ldr	r0, [r7, #20]
2ffc1608:	f7ff fef8 	bl	2ffc13fc <LL_GPIO_SetPinMode>
2ffc160c:	8a7b      	ldrh	r3, [r7, #18]
2ffc160e:	687a      	ldr	r2, [r7, #4]
2ffc1610:	4619      	mov	r1, r3
2ffc1612:	6978      	ldr	r0, [r7, #20]
2ffc1614:	f7ff ff48 	bl	2ffc14a8 <LL_GPIO_SetPinPull>
2ffc1618:	8a7b      	ldrh	r3, [r7, #18]
2ffc161a:	6a3a      	ldr	r2, [r7, #32]
2ffc161c:	4619      	mov	r1, r3
2ffc161e:	6978      	ldr	r0, [r7, #20]
2ffc1620:	f7ff ff23 	bl	2ffc146a <LL_GPIO_SetPinSpeed>
2ffc1624:	68bb      	ldr	r3, [r7, #8]
2ffc1626:	2b02      	cmp	r3, #2
2ffc1628:	d002      	beq.n	2ffc1630 <_ZNK7PinConf4initE7PinMode7PinPull11PinPolarity8PinSpeed8PinOType+0x50>
2ffc162a:	68bb      	ldr	r3, [r7, #8]
2ffc162c:	2b01      	cmp	r3, #1
2ffc162e:	d105      	bne.n	2ffc163c <_ZNK7PinConf4initE7PinMode7PinPull11PinPolarity8PinSpeed8PinOType+0x5c>
2ffc1630:	8a7b      	ldrh	r3, [r7, #18]
2ffc1632:	6a7a      	ldr	r2, [r7, #36]	@ 0x24
2ffc1634:	4619      	mov	r1, r3
2ffc1636:	6978      	ldr	r0, [r7, #20]
2ffc1638:	f7ff feff 	bl	2ffc143a <LL_GPIO_SetPinOutputType>
2ffc163c:	68bb      	ldr	r3, [r7, #8]
2ffc163e:	2b02      	cmp	r3, #2
2ffc1640:	d111      	bne.n	2ffc1666 <_ZNK7PinConf4initE7PinMode7PinPull11PinPolarity8PinSpeed8PinOType+0x86>
2ffc1642:	8a7b      	ldrh	r3, [r7, #18]
2ffc1644:	2bff      	cmp	r3, #255	@ 0xff
2ffc1646:	d907      	bls.n	2ffc1658 <_ZNK7PinConf4initE7PinMode7PinPull11PinPolarity8PinSpeed8PinOType+0x78>
2ffc1648:	8a79      	ldrh	r1, [r7, #18]
2ffc164a:	68fb      	ldr	r3, [r7, #12]
2ffc164c:	689b      	ldr	r3, [r3, #8]
2ffc164e:	461a      	mov	r2, r3
2ffc1650:	6978      	ldr	r0, [r7, #20]
2ffc1652:	f7ff ff73 	bl	2ffc153c <LL_GPIO_SetAFPin_8_15>
2ffc1656:	e006      	b.n	2ffc1666 <_ZNK7PinConf4initE7PinMode7PinPull11PinPolarity8PinSpeed8PinOType+0x86>
2ffc1658:	8a79      	ldrh	r1, [r7, #18]
2ffc165a:	68fb      	ldr	r3, [r7, #12]
2ffc165c:	689b      	ldr	r3, [r3, #8]
2ffc165e:	461a      	mov	r2, r3
2ffc1660:	6978      	ldr	r0, [r7, #20]
2ffc1662:	f7ff ff40 	bl	2ffc14e6 <LL_GPIO_SetAFPin_0_7>
2ffc1666:	bf00      	nop
2ffc1668:	3718      	adds	r7, #24
2ffc166a:	46bd      	mov	sp, r7
2ffc166c:	bd80      	pop	{r7, pc}

2ffc166e <_ZNK7PinConf4initE7PinMode8PinOType7PinPull11PinPolarity8PinSpeed>:
2ffc166e:	b580      	push	{r7, lr}
2ffc1670:	b086      	sub	sp, #24
2ffc1672:	af02      	add	r7, sp, #8
2ffc1674:	60f8      	str	r0, [r7, #12]
2ffc1676:	60b9      	str	r1, [r7, #8]
2ffc1678:	607a      	str	r2, [r7, #4]
2ffc167a:	603b      	str	r3, [r7, #0]
2ffc167c:	687b      	ldr	r3, [r7, #4]
2ffc167e:	9301      	str	r3, [sp, #4]
2ffc1680:	69fb      	ldr	r3, [r7, #28]
2ffc1682:	9300      	str	r3, [sp, #0]
2ffc1684:	69bb      	ldr	r3, [r7, #24]
2ffc1686:	683a      	ldr	r2, [r7, #0]
2ffc1688:	68b9      	ldr	r1, [r7, #8]
2ffc168a:	68f8      	ldr	r0, [r7, #12]
2ffc168c:	f7ff ffa8 	bl	2ffc15e0 <_ZNK7PinConf4initE7PinMode7PinPull11PinPolarity8PinSpeed8PinOType>
2ffc1690:	bf00      	nop
2ffc1692:	3710      	adds	r7, #16
2ffc1694:	46bd      	mov	sp, r7
2ffc1696:	bd80      	pop	{r7, pc}

2ffc1698 <_ZNK7PinConf3lowEv>:
2ffc1698:	b580      	push	{r7, lr}
2ffc169a:	b084      	sub	sp, #16
2ffc169c:	af00      	add	r7, sp, #0
2ffc169e:	6078      	str	r0, [r7, #4]
2ffc16a0:	687b      	ldr	r3, [r7, #4]
2ffc16a2:	681b      	ldr	r3, [r3, #0]
2ffc16a4:	60fb      	str	r3, [r7, #12]
2ffc16a6:	687b      	ldr	r3, [r7, #4]
2ffc16a8:	889b      	ldrh	r3, [r3, #4]
2ffc16aa:	817b      	strh	r3, [r7, #10]
2ffc16ac:	897b      	ldrh	r3, [r7, #10]
2ffc16ae:	4619      	mov	r1, r3
2ffc16b0:	68f8      	ldr	r0, [r7, #12]
2ffc16b2:	f7ff ff86 	bl	2ffc15c2 <LL_GPIO_ResetOutputPin>
2ffc16b6:	bf00      	nop
2ffc16b8:	3710      	adds	r7, #16
2ffc16ba:	46bd      	mov	sp, r7
2ffc16bc:	bd80      	pop	{r7, pc}

2ffc16be <_ZNK7PinConf4highEv>:
2ffc16be:	b580      	push	{r7, lr}
2ffc16c0:	b084      	sub	sp, #16
2ffc16c2:	af00      	add	r7, sp, #0
2ffc16c4:	6078      	str	r0, [r7, #4]
2ffc16c6:	687b      	ldr	r3, [r7, #4]
2ffc16c8:	681b      	ldr	r3, [r3, #0]
2ffc16ca:	60fb      	str	r3, [r7, #12]
2ffc16cc:	687b      	ldr	r3, [r7, #4]
2ffc16ce:	889b      	ldrh	r3, [r3, #4]
2ffc16d0:	817b      	strh	r3, [r7, #10]
2ffc16d2:	897b      	ldrh	r3, [r7, #10]
2ffc16d4:	4619      	mov	r1, r3
2ffc16d6:	68f8      	ldr	r0, [r7, #12]
2ffc16d8:	f7ff ff65 	bl	2ffc15a6 <LL_GPIO_SetOutputPin>
2ffc16dc:	bf00      	nop
2ffc16de:	3710      	adds	r7, #16
2ffc16e0:	46bd      	mov	sp, r7
2ffc16e2:	bd80      	pop	{r7, pc}

2ffc16e4 <LL_USART_Enable>:
2ffc16e4:	b480      	push	{r7}
2ffc16e6:	b083      	sub	sp, #12
2ffc16e8:	af00      	add	r7, sp, #0
2ffc16ea:	6078      	str	r0, [r7, #4]
2ffc16ec:	687b      	ldr	r3, [r7, #4]
2ffc16ee:	681b      	ldr	r3, [r3, #0]
2ffc16f0:	f043 0201 	orr.w	r2, r3, #1
2ffc16f4:	687b      	ldr	r3, [r7, #4]
2ffc16f6:	601a      	str	r2, [r3, #0]
2ffc16f8:	bf00      	nop
2ffc16fa:	370c      	adds	r7, #12
2ffc16fc:	46bd      	mov	sp, r7
2ffc16fe:	f85d 7b04 	ldr.w	r7, [sp], #4
2ffc1702:	4770      	bx	lr

2ffc1704 <LL_USART_Disable>:
2ffc1704:	b480      	push	{r7}
2ffc1706:	b083      	sub	sp, #12
2ffc1708:	af00      	add	r7, sp, #0
2ffc170a:	6078      	str	r0, [r7, #4]
2ffc170c:	687b      	ldr	r3, [r7, #4]
2ffc170e:	681b      	ldr	r3, [r3, #0]
2ffc1710:	f023 0201 	bic.w	r2, r3, #1
2ffc1714:	687b      	ldr	r3, [r7, #4]
2ffc1716:	601a      	str	r2, [r3, #0]
2ffc1718:	bf00      	nop
2ffc171a:	370c      	adds	r7, #12
2ffc171c:	46bd      	mov	sp, r7
2ffc171e:	f85d 7b04 	ldr.w	r7, [sp], #4
2ffc1722:	4770      	bx	lr

2ffc1724 <LL_USART_EnableFIFO>:
2ffc1724:	b480      	push	{r7}
2ffc1726:	b083      	sub	sp, #12
2ffc1728:	af00      	add	r7, sp, #0
2ffc172a:	6078      	str	r0, [r7, #4]
2ffc172c:	687b      	ldr	r3, [r7, #4]
2ffc172e:	681b      	ldr	r3, [r3, #0]
2ffc1730:	f043 5200 	orr.w	r2, r3, #536870912	@ 0x20000000
2ffc1734:	687b      	ldr	r3, [r7, #4]
2ffc1736:	601a      	str	r2, [r3, #0]
2ffc1738:	bf00      	nop
2ffc173a:	370c      	adds	r7, #12
2ffc173c:	46bd      	mov	sp, r7
2ffc173e:	f85d 7b04 	ldr.w	r7, [sp], #4
2ffc1742:	4770      	bx	lr

2ffc1744 <_ZSt27__throw_bad_optional_accessv>:
2ffc1744:	b580      	push	{r7, lr}
2ffc1746:	af00      	add	r7, sp, #0
2ffc1748:	f007 f8b2 	bl	2ffc88b0 <abort>

2ffc174c <_ZNSt8__detail16__extent_storageILj4294967295EEC1Ej>:
2ffc174c:	b480      	push	{r7}
2ffc174e:	b083      	sub	sp, #12
2ffc1750:	af00      	add	r7, sp, #0
2ffc1752:	6078      	str	r0, [r7, #4]
2ffc1754:	6039      	str	r1, [r7, #0]
2ffc1756:	687b      	ldr	r3, [r7, #4]
2ffc1758:	683a      	ldr	r2, [r7, #0]
2ffc175a:	601a      	str	r2, [r3, #0]
2ffc175c:	687b      	ldr	r3, [r7, #4]
2ffc175e:	4618      	mov	r0, r3
2ffc1760:	370c      	adds	r7, #12
2ffc1762:	46bd      	mov	sp, r7
2ffc1764:	f85d 7b04 	ldr.w	r7, [sp], #4
2ffc1768:	4770      	bx	lr

2ffc176a <_ZNKSt8__detail16__extent_storageILj4294967295EE9_M_extentEv>:
2ffc176a:	b480      	push	{r7}
2ffc176c:	b083      	sub	sp, #12
2ffc176e:	af00      	add	r7, sp, #0
2ffc1770:	6078      	str	r0, [r7, #4]
2ffc1772:	687b      	ldr	r3, [r7, #4]
2ffc1774:	681b      	ldr	r3, [r3, #0]
2ffc1776:	4618      	mov	r0, r3
2ffc1778:	370c      	adds	r7, #12
2ffc177a:	46bd      	mov	sp, r7
2ffc177c:	f85d 7b04 	ldr.w	r7, [sp], #4
2ffc1780:	4770      	bx	lr

2ffc1782 <_ZN14I2C_ControllerC1EmRK10I2C_Config>:
2ffc1782:	b580      	push	{r7, lr}
2ffc1784:	b086      	sub	sp, #24
2ffc1786:	af02      	add	r7, sp, #8
2ffc1788:	60f8      	str	r0, [r7, #12]
2ffc178a:	60b9      	str	r1, [r7, #8]
2ffc178c:	607a      	str	r2, [r7, #4]
2ffc178e:	68fb      	ldr	r3, [r7, #12]
2ffc1790:	68ba      	ldr	r2, [r7, #8]
2ffc1792:	605a      	str	r2, [r3, #4]
2ffc1794:	68fb      	ldr	r3, [r7, #12]
2ffc1796:	2200      	movs	r2, #0
2ffc1798:	721a      	strb	r2, [r3, #8]
2ffc179a:	687b      	ldr	r3, [r7, #4]
2ffc179c:	f103 0010 	add.w	r0, r3, #16
2ffc17a0:	2302      	movs	r3, #2
2ffc17a2:	9301      	str	r3, [sp, #4]
2ffc17a4:	2300      	movs	r3, #0
2ffc17a6:	9300      	str	r3, [sp, #0]
2ffc17a8:	2300      	movs	r3, #0
2ffc17aa:	2201      	movs	r2, #1
2ffc17ac:	2102      	movs	r1, #2
2ffc17ae:	f7ff ff5e 	bl	2ffc166e <_ZNK7PinConf4initE7PinMode8PinOType7PinPull11PinPolarity8PinSpeed>
2ffc17b2:	687b      	ldr	r3, [r7, #4]
2ffc17b4:	1d18      	adds	r0, r3, #4
2ffc17b6:	2302      	movs	r3, #2
2ffc17b8:	9301      	str	r3, [sp, #4]
2ffc17ba:	2300      	movs	r3, #0
2ffc17bc:	9300      	str	r3, [sp, #0]
2ffc17be:	2300      	movs	r3, #0
2ffc17c0:	2201      	movs	r2, #1
2ffc17c2:	2102      	movs	r1, #2
2ffc17c4:	f7ff ff53 	bl	2ffc166e <_ZNK7PinConf4initE7PinMode8PinOType7PinPull11PinPolarity8PinSpeed>
2ffc17c8:	687b      	ldr	r3, [r7, #4]
2ffc17ca:	681a      	ldr	r2, [r3, #0]
2ffc17cc:	f44f 5300 	mov.w	r3, #8192	@ 0x2000
2ffc17d0:	f2c4 0301 	movt	r3, #16385	@ 0x4001
2ffc17d4:	429a      	cmp	r2, r3
2ffc17d6:	d101      	bne.n	2ffc17dc <_ZN14I2C_ControllerC1EmRK10I2C_Config+0x5a>
2ffc17d8:	f000 fe7c 	bl	2ffc24d4 <_ZN8mdrivlib12RegisterBitsINS_9ReadWriteELm1342179840ELm2097152EE3setEv>
2ffc17dc:	687b      	ldr	r3, [r7, #4]
2ffc17de:	681a      	ldr	r2, [r3, #0]
2ffc17e0:	f44f 5340 	mov.w	r3, #12288	@ 0x3000
2ffc17e4:	f2c4 0301 	movt	r3, #16385	@ 0x4001
2ffc17e8:	429a      	cmp	r2, r3
2ffc17ea:	d101      	bne.n	2ffc17f0 <_ZN14I2C_ControllerC1EmRK10I2C_Config+0x6e>
2ffc17ec:	f000 fe7e 	bl	2ffc24ec <_ZN8mdrivlib12RegisterBitsINS_9ReadWriteELm1342179840ELm4194304EE3setEv>
2ffc17f0:	687b      	ldr	r3, [r7, #4]
2ffc17f2:	681a      	ldr	r2, [r3, #0]
2ffc17f4:	f44f 4380 	mov.w	r3, #16384	@ 0x4000
2ffc17f8:	f2c4 0301 	movt	r3, #16385	@ 0x4001
2ffc17fc:	429a      	cmp	r2, r3
2ffc17fe:	d101      	bne.n	2ffc1804 <_ZN14I2C_ControllerC1EmRK10I2C_Config+0x82>
2ffc1800:	f000 fe80 	bl	2ffc2504 <_ZN8mdrivlib12RegisterBitsINS_9ReadWriteELm1342179840ELm8388608EE3setEv>
2ffc1804:	687b      	ldr	r3, [r7, #4]
2ffc1806:	681a      	ldr	r2, [r3, #0]
2ffc1808:	f44f 5300 	mov.w	r3, #8192	@ 0x2000
2ffc180c:	f6c5 4300 	movt	r3, #23552	@ 0x5c00
2ffc1810:	429a      	cmp	r2, r3
2ffc1812:	d101      	bne.n	2ffc1818 <_ZN14I2C_ControllerC1EmRK10I2C_Config+0x96>
2ffc1814:	f000 fe82 	bl	2ffc251c <_ZN8mdrivlib12RegisterBitsINS_9ReadWriteELm1342177800ELm4EE3setEv>
2ffc1818:	687b      	ldr	r3, [r7, #4]
2ffc181a:	681a      	ldr	r2, [r3, #0]
2ffc181c:	f44f 43a0 	mov.w	r3, #20480	@ 0x5000
2ffc1820:	f2c4 0301 	movt	r3, #16385	@ 0x4001
2ffc1824:	429a      	cmp	r2, r3
2ffc1826:	d101      	bne.n	2ffc182c <_ZN14I2C_ControllerC1EmRK10I2C_Config+0xaa>
2ffc1828:	f000 fe83 	bl	2ffc2532 <_ZN8mdrivlib12RegisterBitsINS_9ReadWriteELm1342179840ELm16777216EE3setEv>
2ffc182c:	687b      	ldr	r3, [r7, #4]
2ffc182e:	681a      	ldr	r2, [r3, #0]
2ffc1830:	f44f 4310 	mov.w	r3, #36864	@ 0x9000
2ffc1834:	f6c5 4300 	movt	r3, #23552	@ 0x5c00
2ffc1838:	429a      	cmp	r2, r3
2ffc183a:	d101      	bne.n	2ffc1840 <_ZN14I2C_ControllerC1EmRK10I2C_Config+0xbe>
2ffc183c:	f000 fe85 	bl	2ffc254a <_ZN8mdrivlib12RegisterBitsINS_9ReadWriteELm1342177800ELm8EE3setEv>
2ffc1840:	f04f 43a0 	mov.w	r3, #1342177280	@ 0x50000000
2ffc1844:	2202      	movs	r2, #2
2ffc1846:	f8c3 20c0 	str.w	r2, [r3, #192]	@ 0xc0
2ffc184a:	687b      	ldr	r3, [r7, #4]
2ffc184c:	681b      	ldr	r3, [r3, #0]
2ffc184e:	461a      	mov	r2, r3
2ffc1850:	68fb      	ldr	r3, [r7, #12]
2ffc1852:	601a      	str	r2, [r3, #0]
2ffc1854:	68fb      	ldr	r3, [r7, #12]
2ffc1856:	681b      	ldr	r3, [r3, #0]
2ffc1858:	681a      	ldr	r2, [r3, #0]
2ffc185a:	68fb      	ldr	r3, [r7, #12]
2ffc185c:	681b      	ldr	r3, [r3, #0]
2ffc185e:	f022 0201 	bic.w	r2, r2, #1
2ffc1862:	601a      	str	r2, [r3, #0]
2ffc1864:	68fb      	ldr	r3, [r7, #12]
2ffc1866:	681a      	ldr	r2, [r3, #0]
2ffc1868:	f240 730a 	movw	r3, #1802	@ 0x70a
2ffc186c:	f2c6 0320 	movt	r3, #24608	@ 0x6020
2ffc1870:	6113      	str	r3, [r2, #16]
2ffc1872:	68fb      	ldr	r3, [r7, #12]
2ffc1874:	681b      	ldr	r3, [r3, #0]
2ffc1876:	681a      	ldr	r2, [r3, #0]
2ffc1878:	68fb      	ldr	r3, [r7, #12]
2ffc187a:	681b      	ldr	r3, [r3, #0]
2ffc187c:	f042 0201 	orr.w	r2, r2, #1
2ffc1880:	601a      	str	r2, [r3, #0]
2ffc1882:	f06f 417f 	mvn.w	r1, #4278190080	@ 0xff000000
2ffc1886:	68f8      	ldr	r0, [r7, #12]
2ffc1888:	f000 f9c3 	bl	2ffc1c12 <_ZN14I2C_Controller13wait_not_busyEm>
2ffc188c:	4603      	mov	r3, r0
2ffc188e:	2b00      	cmp	r3, #0
2ffc1890:	d002      	beq.n	2ffc1898 <_ZN14I2C_ControllerC1EmRK10I2C_Config+0x116>
2ffc1892:	68fb      	ldr	r3, [r7, #12]
2ffc1894:	2201      	movs	r2, #1
2ffc1896:	721a      	strb	r2, [r3, #8]
2ffc1898:	68fb      	ldr	r3, [r7, #12]
2ffc189a:	4618      	mov	r0, r3
2ffc189c:	3710      	adds	r7, #16
2ffc189e:	46bd      	mov	sp, r7
2ffc18a0:	bd80      	pop	{r7, pc}

2ffc18a2 <_ZN14I2C_Controller18read_register_byteEh>:
2ffc18a2:	b590      	push	{r4, r7, lr}
2ffc18a4:	b089      	sub	sp, #36	@ 0x24
2ffc18a6:	af00      	add	r7, sp, #0
2ffc18a8:	6078      	str	r0, [r7, #4]
2ffc18aa:	460b      	mov	r3, r1
2ffc18ac:	70fb      	strb	r3, [r7, #3]
2ffc18ae:	f107 0208 	add.w	r2, r7, #8
2ffc18b2:	f107 030c 	add.w	r3, r7, #12
2ffc18b6:	4611      	mov	r1, r2
2ffc18b8:	4618      	mov	r0, r3
2ffc18ba:	f000 fe51 	bl	2ffc2560 <_ZNSt4spanIhLj4294967295EEC1ILj1EEERAT__h>
2ffc18be:	78f9      	ldrb	r1, [r7, #3]
2ffc18c0:	f107 030c 	add.w	r3, r7, #12
2ffc18c4:	cb0c      	ldmia	r3, {r2, r3}
2ffc18c6:	6878      	ldr	r0, [r7, #4]
2ffc18c8:	f000 f821 	bl	2ffc190e <_ZN14I2C_Controller13read_registerEhSt4spanIhLj4294967295EE>
2ffc18cc:	4603      	mov	r3, r0
2ffc18ce:	2b00      	cmp	r3, #0
2ffc18d0:	d00a      	beq.n	2ffc18e8 <_ZN14I2C_Controller18read_register_byteEh+0x46>
2ffc18d2:	f107 0208 	add.w	r2, r7, #8
2ffc18d6:	f107 0318 	add.w	r3, r7, #24
2ffc18da:	4611      	mov	r1, r2
2ffc18dc:	4618      	mov	r0, r3
2ffc18de:	f000 fe4e 	bl	2ffc257e <_ZNSt8optionalIhEC1IRhLb1EEEOT_>
2ffc18e2:	8b3b      	ldrh	r3, [r7, #24]
2ffc18e4:	82bb      	strh	r3, [r7, #20]
2ffc18e6:	e007      	b.n	2ffc18f8 <_ZN14I2C_Controller18read_register_byteEh+0x56>
2ffc18e8:	f107 031c 	add.w	r3, r7, #28
2ffc18ec:	4621      	mov	r1, r4
2ffc18ee:	4618      	mov	r0, r3
2ffc18f0:	f000 fe83 	bl	2ffc25fa <_ZNSt8optionalIhEC1ESt9nullopt_t>
2ffc18f4:	8bbb      	ldrh	r3, [r7, #28]
2ffc18f6:	82bb      	strh	r3, [r7, #20]
2ffc18f8:	2300      	movs	r3, #0
2ffc18fa:	7d3a      	ldrb	r2, [r7, #20]
2ffc18fc:	f362 0307 	bfi	r3, r2, #0, #8
2ffc1900:	7d7a      	ldrb	r2, [r7, #21]
2ffc1902:	f362 230f 	bfi	r3, r2, #8, #8
2ffc1906:	4618      	mov	r0, r3
2ffc1908:	3724      	adds	r7, #36	@ 0x24
2ffc190a:	46bd      	mov	sp, r7
2ffc190c:	bd90      	pop	{r4, r7, pc}

2ffc190e <_ZN14I2C_Controller13read_registerEhSt4spanIhLj4294967295EE>:
2ffc190e:	b580      	push	{r7, lr}
2ffc1910:	b084      	sub	sp, #16
2ffc1912:	af00      	add	r7, sp, #0
2ffc1914:	60f8      	str	r0, [r7, #12]
2ffc1916:	4608      	mov	r0, r1
2ffc1918:	4639      	mov	r1, r7
2ffc191a:	e881 000c 	stmia.w	r1, {r2, r3}
2ffc191e:	4603      	mov	r3, r0
2ffc1920:	72fb      	strb	r3, [r7, #11]
2ffc1922:	f06f 417f 	mvn.w	r1, #4278190080	@ 0xff000000
2ffc1926:	68f8      	ldr	r0, [r7, #12]
2ffc1928:	f000 f973 	bl	2ffc1c12 <_ZN14I2C_Controller13wait_not_busyEm>
2ffc192c:	4603      	mov	r3, r0
2ffc192e:	f083 0301 	eor.w	r3, r3, #1
2ffc1932:	b2db      	uxtb	r3, r3
2ffc1934:	2b00      	cmp	r3, #0
2ffc1936:	d001      	beq.n	2ffc193c <_ZN14I2C_Controller13read_registerEhSt4spanIhLj4294967295EE+0x2e>
2ffc1938:	2300      	movs	r3, #0
2ffc193a:	e013      	b.n	2ffc1964 <_ZN14I2C_Controller13read_registerEhSt4spanIhLj4294967295EE+0x56>
2ffc193c:	7afb      	ldrb	r3, [r7, #11]
2ffc193e:	4619      	mov	r1, r3
2ffc1940:	68f8      	ldr	r0, [r7, #12]
2ffc1942:	f000 f90d 	bl	2ffc1b60 <_ZN14I2C_Controller21request_register_readEh>
2ffc1946:	4603      	mov	r3, r0
2ffc1948:	2b00      	cmp	r3, #0
2ffc194a:	d00a      	beq.n	2ffc1962 <_ZN14I2C_Controller13read_registerEhSt4spanIhLj4294967295EE+0x54>
2ffc194c:	463b      	mov	r3, r7
2ffc194e:	e893 0006 	ldmia.w	r3, {r1, r2}
2ffc1952:	68f8      	ldr	r0, [r7, #12]
2ffc1954:	f000 f838 	bl	2ffc19c8 <_ZN14I2C_Controller4readESt4spanIhLj4294967295EE>
2ffc1958:	4603      	mov	r3, r0
2ffc195a:	2b00      	cmp	r3, #0
2ffc195c:	d001      	beq.n	2ffc1962 <_ZN14I2C_Controller13read_registerEhSt4spanIhLj4294967295EE+0x54>
2ffc195e:	2301      	movs	r3, #1
2ffc1960:	e000      	b.n	2ffc1964 <_ZN14I2C_Controller13read_registerEhSt4spanIhLj4294967295EE+0x56>
2ffc1962:	2300      	movs	r3, #0
2ffc1964:	4618      	mov	r0, r3
2ffc1966:	3710      	adds	r7, #16
2ffc1968:	46bd      	mov	sp, r7
2ffc196a:	bd80      	pop	{r7, pc}

2ffc196c <_ZNKSt4spanIhLj4294967295EE10size_bytesEv>:
2ffc196c:	b580      	push	{r7, lr}
2ffc196e:	b082      	sub	sp, #8
2ffc1970:	af00      	add	r7, sp, #0
2ffc1972:	6078      	str	r0, [r7, #4]
2ffc1974:	687b      	ldr	r3, [r7, #4]
2ffc1976:	3304      	adds	r3, #4
2ffc1978:	4618      	mov	r0, r3
2ffc197a:	f7ff fef6 	bl	2ffc176a <_ZNKSt8__detail16__extent_storageILj4294967295EE9_M_extentEv>
2ffc197e:	4603      	mov	r3, r0
2ffc1980:	4618      	mov	r0, r3
2ffc1982:	3708      	adds	r7, #8
2ffc1984:	46bd      	mov	sp, r7
2ffc1986:	bd80      	pop	{r7, pc}

2ffc1988 <_ZNKSt4spanIhLj4294967295EE5beginEv>:
2ffc1988:	b580      	push	{r7, lr}
2ffc198a:	b084      	sub	sp, #16
2ffc198c:	af00      	add	r7, sp, #0
2ffc198e:	6078      	str	r0, [r7, #4]
2ffc1990:	687a      	ldr	r2, [r7, #4]
2ffc1992:	f107 030c 	add.w	r3, r7, #12
2ffc1996:	4611      	mov	r1, r2
2ffc1998:	4618      	mov	r0, r3
2ffc199a:	f000 f805 	bl	2ffc19a8 <_ZN9__gnu_cxx17__normal_iteratorIPhSt4spanIhLj4294967295EEEC1ERKS1_>
2ffc199e:	68fb      	ldr	r3, [r7, #12]
2ffc19a0:	4618      	mov	r0, r3
2ffc19a2:	3710      	adds	r7, #16
2ffc19a4:	46bd      	mov	sp, r7
2ffc19a6:	bd80      	pop	{r7, pc}

2ffc19a8 <_ZN9__gnu_cxx17__normal_iteratorIPhSt4spanIhLj4294967295EEEC1ERKS1_>:
2ffc19a8:	b480      	push	{r7}
2ffc19aa:	b083      	sub	sp, #12
2ffc19ac:	af00      	add	r7, sp, #0
2ffc19ae:	6078      	str	r0, [r7, #4]
2ffc19b0:	6039      	str	r1, [r7, #0]
2ffc19b2:	683b      	ldr	r3, [r7, #0]
2ffc19b4:	681a      	ldr	r2, [r3, #0]
2ffc19b6:	687b      	ldr	r3, [r7, #4]
2ffc19b8:	601a      	str	r2, [r3, #0]
2ffc19ba:	687b      	ldr	r3, [r7, #4]
2ffc19bc:	4618      	mov	r0, r3
2ffc19be:	370c      	adds	r7, #12
2ffc19c0:	46bd      	mov	sp, r7
2ffc19c2:	f85d 7b04 	ldr.w	r7, [sp], #4
2ffc19c6:	4770      	bx	lr

2ffc19c8 <_ZN14I2C_Controller4readESt4spanIhLj4294967295EE>:
2ffc19c8:	b590      	push	{r4, r7, lr}
2ffc19ca:	b089      	sub	sp, #36	@ 0x24
2ffc19cc:	af00      	add	r7, sp, #0
2ffc19ce:	60f8      	str	r0, [r7, #12]
2ffc19d0:	1d3b      	adds	r3, r7, #4
2ffc19d2:	e883 0006 	stmia.w	r3, {r1, r2}
2ffc19d6:	1d3b      	adds	r3, r7, #4
2ffc19d8:	4618      	mov	r0, r3
2ffc19da:	f7ff ffc7 	bl	2ffc196c <_ZNKSt4spanIhLj4294967295EE10size_bytesEv>
2ffc19de:	61b8      	str	r0, [r7, #24]
2ffc19e0:	69bb      	ldr	r3, [r7, #24]
2ffc19e2:	2b00      	cmp	r3, #0
2ffc19e4:	d101      	bne.n	2ffc19ea <_ZN14I2C_Controller4readESt4spanIhLj4294967295EE+0x22>
2ffc19e6:	2300      	movs	r3, #0
2ffc19e8:	e042      	b.n	2ffc1a70 <_ZN14I2C_Controller4readESt4spanIhLj4294967295EE+0xa8>
2ffc19ea:	68fb      	ldr	r3, [r7, #12]
2ffc19ec:	685b      	ldr	r3, [r3, #4]
2ffc19ee:	005a      	lsls	r2, r3, #1
2ffc19f0:	69bb      	ldr	r3, [r7, #24]
2ffc19f2:	041b      	lsls	r3, r3, #16
2ffc19f4:	4313      	orrs	r3, r2
2ffc19f6:	68fa      	ldr	r2, [r7, #12]
2ffc19f8:	6812      	ldr	r2, [r2, #0]
2ffc19fa:	f043 7300 	orr.w	r3, r3, #33554432	@ 0x2000000
2ffc19fe:	f443 5310 	orr.w	r3, r3, #9216	@ 0x2400
2ffc1a02:	6053      	str	r3, [r2, #4]
2ffc1a04:	69bb      	ldr	r3, [r7, #24]
2ffc1a06:	61fb      	str	r3, [r7, #28]
2ffc1a08:	1d3b      	adds	r3, r7, #4
2ffc1a0a:	4618      	mov	r0, r3
2ffc1a0c:	f7ff ffbc 	bl	2ffc1988 <_ZNKSt4spanIhLj4294967295EE5beginEv>
2ffc1a10:	4603      	mov	r3, r0
2ffc1a12:	613b      	str	r3, [r7, #16]
2ffc1a14:	f06f 427f 	mvn.w	r2, #4278190080	@ 0xff000000
2ffc1a18:	2104      	movs	r1, #4
2ffc1a1a:	68f8      	ldr	r0, [r7, #12]
2ffc1a1c:	f000 f8d5 	bl	2ffc1bca <_ZN14I2C_Controller28wait_on_flag_high_or_timeoutEmm>
2ffc1a20:	4603      	mov	r3, r0
2ffc1a22:	f083 0301 	eor.w	r3, r3, #1
2ffc1a26:	b2db      	uxtb	r3, r3
2ffc1a28:	2b00      	cmp	r3, #0
2ffc1a2a:	d11a      	bne.n	2ffc1a62 <_ZN14I2C_Controller4readESt4spanIhLj4294967295EE+0x9a>
2ffc1a2c:	68fb      	ldr	r3, [r7, #12]
2ffc1a2e:	681b      	ldr	r3, [r3, #0]
2ffc1a30:	6a5b      	ldr	r3, [r3, #36]	@ 0x24
2ffc1a32:	b2dc      	uxtb	r4, r3
2ffc1a34:	f107 0310 	add.w	r3, r7, #16
2ffc1a38:	2100      	movs	r1, #0
2ffc1a3a:	4618      	mov	r0, r3
2ffc1a3c:	f000 fdeb 	bl	2ffc2616 <_ZN9__gnu_cxx17__normal_iteratorIPhSt4spanIhLj4294967295EEEppEi>
2ffc1a40:	4603      	mov	r3, r0
2ffc1a42:	617b      	str	r3, [r7, #20]
2ffc1a44:	f107 0314 	add.w	r3, r7, #20
2ffc1a48:	4618      	mov	r0, r3
2ffc1a4a:	f000 fdfc 	bl	2ffc2646 <_ZNK9__gnu_cxx17__normal_iteratorIPhSt4spanIhLj4294967295EEEdeEv>
2ffc1a4e:	4603      	mov	r3, r0
2ffc1a50:	4622      	mov	r2, r4
2ffc1a52:	701a      	strb	r2, [r3, #0]
2ffc1a54:	69fb      	ldr	r3, [r7, #28]
2ffc1a56:	3b01      	subs	r3, #1
2ffc1a58:	61fb      	str	r3, [r7, #28]
2ffc1a5a:	69fb      	ldr	r3, [r7, #28]
2ffc1a5c:	2b00      	cmp	r3, #0
2ffc1a5e:	d1d9      	bne.n	2ffc1a14 <_ZN14I2C_Controller4readESt4spanIhLj4294967295EE+0x4c>
2ffc1a60:	e000      	b.n	2ffc1a64 <_ZN14I2C_Controller4readESt4spanIhLj4294967295EE+0x9c>
2ffc1a62:	bf00      	nop
2ffc1a64:	69fb      	ldr	r3, [r7, #28]
2ffc1a66:	2b00      	cmp	r3, #0
2ffc1a68:	bf0c      	ite	eq
2ffc1a6a:	2301      	moveq	r3, #1
2ffc1a6c:	2300      	movne	r3, #0
2ffc1a6e:	b2db      	uxtb	r3, r3
2ffc1a70:	4618      	mov	r0, r3
2ffc1a72:	3724      	adds	r7, #36	@ 0x24
2ffc1a74:	46bd      	mov	sp, r7
2ffc1a76:	bd90      	pop	{r4, r7, pc}

2ffc1a78 <_ZN14I2C_Controller19write_register_byteEhh>:
2ffc1a78:	b580      	push	{r7, lr}
2ffc1a7a:	b084      	sub	sp, #16
2ffc1a7c:	af00      	add	r7, sp, #0
2ffc1a7e:	6078      	str	r0, [r7, #4]
2ffc1a80:	460b      	mov	r3, r1
2ffc1a82:	70fb      	strb	r3, [r7, #3]
2ffc1a84:	4613      	mov	r3, r2
2ffc1a86:	70bb      	strb	r3, [r7, #2]
2ffc1a88:	2301      	movs	r3, #1
2ffc1a8a:	60fb      	str	r3, [r7, #12]
2ffc1a8c:	f06f 417f 	mvn.w	r1, #4278190080	@ 0xff000000
2ffc1a90:	6878      	ldr	r0, [r7, #4]
2ffc1a92:	f000 f8be 	bl	2ffc1c12 <_ZN14I2C_Controller13wait_not_busyEm>
2ffc1a96:	4603      	mov	r3, r0
2ffc1a98:	f083 0301 	eor.w	r3, r3, #1
2ffc1a9c:	b2db      	uxtb	r3, r3
2ffc1a9e:	2b00      	cmp	r3, #0
2ffc1aa0:	d001      	beq.n	2ffc1aa6 <_ZN14I2C_Controller19write_register_byteEhh+0x2e>
2ffc1aa2:	2300      	movs	r3, #0
2ffc1aa4:	e058      	b.n	2ffc1b58 <_ZN14I2C_Controller19write_register_byteEhh+0xe0>
2ffc1aa6:	687b      	ldr	r3, [r7, #4]
2ffc1aa8:	685b      	ldr	r3, [r3, #4]
2ffc1aaa:	005b      	lsls	r3, r3, #1
2ffc1aac:	687a      	ldr	r2, [r7, #4]
2ffc1aae:	6812      	ldr	r2, [r2, #0]
2ffc1ab0:	f043 7380 	orr.w	r3, r3, #16777216	@ 0x1000000
2ffc1ab4:	f443 3390 	orr.w	r3, r3, #73728	@ 0x12000
2ffc1ab8:	6053      	str	r3, [r2, #4]
2ffc1aba:	f06f 427f 	mvn.w	r2, #4278190080	@ 0xff000000
2ffc1abe:	2102      	movs	r1, #2
2ffc1ac0:	6878      	ldr	r0, [r7, #4]
2ffc1ac2:	f000 f8c9 	bl	2ffc1c58 <_ZN14I2C_Controller30wait_on_flag_or_ack_or_timeoutEmm>
2ffc1ac6:	4603      	mov	r3, r0
2ffc1ac8:	f083 0301 	eor.w	r3, r3, #1
2ffc1acc:	b2db      	uxtb	r3, r3
2ffc1ace:	2b00      	cmp	r3, #0
2ffc1ad0:	d001      	beq.n	2ffc1ad6 <_ZN14I2C_Controller19write_register_byteEhh+0x5e>
2ffc1ad2:	2300      	movs	r3, #0
2ffc1ad4:	e040      	b.n	2ffc1b58 <_ZN14I2C_Controller19write_register_byteEhh+0xe0>
2ffc1ad6:	687b      	ldr	r3, [r7, #4]
2ffc1ad8:	681b      	ldr	r3, [r3, #0]
2ffc1ada:	78fa      	ldrb	r2, [r7, #3]
2ffc1adc:	629a      	str	r2, [r3, #40]	@ 0x28
2ffc1ade:	f06f 427f 	mvn.w	r2, #4278190080	@ 0xff000000
2ffc1ae2:	2180      	movs	r1, #128	@ 0x80
2ffc1ae4:	6878      	ldr	r0, [r7, #4]
2ffc1ae6:	f000 f870 	bl	2ffc1bca <_ZN14I2C_Controller28wait_on_flag_high_or_timeoutEmm>
2ffc1aea:	4603      	mov	r3, r0
2ffc1aec:	f083 0301 	eor.w	r3, r3, #1
2ffc1af0:	b2db      	uxtb	r3, r3
2ffc1af2:	2b00      	cmp	r3, #0
2ffc1af4:	d001      	beq.n	2ffc1afa <_ZN14I2C_Controller19write_register_byteEhh+0x82>
2ffc1af6:	2300      	movs	r3, #0
2ffc1af8:	e02e      	b.n	2ffc1b58 <_ZN14I2C_Controller19write_register_byteEhh+0xe0>
2ffc1afa:	687b      	ldr	r3, [r7, #4]
2ffc1afc:	685b      	ldr	r3, [r3, #4]
2ffc1afe:	005b      	lsls	r3, r3, #1
2ffc1b00:	687a      	ldr	r2, [r7, #4]
2ffc1b02:	6812      	ldr	r2, [r2, #0]
2ffc1b04:	f043 7300 	orr.w	r3, r3, #33554432	@ 0x2000000
2ffc1b08:	f443 3380 	orr.w	r3, r3, #65536	@ 0x10000
2ffc1b0c:	6053      	str	r3, [r2, #4]
2ffc1b0e:	f06f 427f 	mvn.w	r2, #4278190080	@ 0xff000000
2ffc1b12:	2102      	movs	r1, #2
2ffc1b14:	6878      	ldr	r0, [r7, #4]
2ffc1b16:	f000 f89f 	bl	2ffc1c58 <_ZN14I2C_Controller30wait_on_flag_or_ack_or_timeoutEmm>
2ffc1b1a:	4603      	mov	r3, r0
2ffc1b1c:	f083 0301 	eor.w	r3, r3, #1
2ffc1b20:	b2db      	uxtb	r3, r3
2ffc1b22:	2b00      	cmp	r3, #0
2ffc1b24:	d001      	beq.n	2ffc1b2a <_ZN14I2C_Controller19write_register_byteEhh+0xb2>
2ffc1b26:	2300      	movs	r3, #0
2ffc1b28:	e016      	b.n	2ffc1b58 <_ZN14I2C_Controller19write_register_byteEhh+0xe0>
2ffc1b2a:	687b      	ldr	r3, [r7, #4]
2ffc1b2c:	681b      	ldr	r3, [r3, #0]
2ffc1b2e:	78ba      	ldrb	r2, [r7, #2]
2ffc1b30:	629a      	str	r2, [r3, #40]	@ 0x28
2ffc1b32:	f06f 427f 	mvn.w	r2, #4278190080	@ 0xff000000
2ffc1b36:	2120      	movs	r1, #32
2ffc1b38:	6878      	ldr	r0, [r7, #4]
2ffc1b3a:	f000 f88d 	bl	2ffc1c58 <_ZN14I2C_Controller30wait_on_flag_or_ack_or_timeoutEmm>
2ffc1b3e:	4603      	mov	r3, r0
2ffc1b40:	f083 0301 	eor.w	r3, r3, #1
2ffc1b44:	b2db      	uxtb	r3, r3
2ffc1b46:	2b00      	cmp	r3, #0
2ffc1b48:	d001      	beq.n	2ffc1b4e <_ZN14I2C_Controller19write_register_byteEhh+0xd6>
2ffc1b4a:	2300      	movs	r3, #0
2ffc1b4c:	e004      	b.n	2ffc1b58 <_ZN14I2C_Controller19write_register_byteEhh+0xe0>
2ffc1b4e:	687b      	ldr	r3, [r7, #4]
2ffc1b50:	681b      	ldr	r3, [r3, #0]
2ffc1b52:	2220      	movs	r2, #32
2ffc1b54:	61da      	str	r2, [r3, #28]
2ffc1b56:	2301      	movs	r3, #1
2ffc1b58:	4618      	mov	r0, r3
2ffc1b5a:	3710      	adds	r7, #16
2ffc1b5c:	46bd      	mov	sp, r7
2ffc1b5e:	bd80      	pop	{r7, pc}

2ffc1b60 <_ZN14I2C_Controller21request_register_readEh>:
2ffc1b60:	b580      	push	{r7, lr}
2ffc1b62:	b084      	sub	sp, #16
2ffc1b64:	af00      	add	r7, sp, #0
2ffc1b66:	6078      	str	r0, [r7, #4]
2ffc1b68:	460b      	mov	r3, r1
2ffc1b6a:	70fb      	strb	r3, [r7, #3]
2ffc1b6c:	2301      	movs	r3, #1
2ffc1b6e:	60fb      	str	r3, [r7, #12]
2ffc1b70:	687b      	ldr	r3, [r7, #4]
2ffc1b72:	685b      	ldr	r3, [r3, #4]
2ffc1b74:	005a      	lsls	r2, r3, #1
2ffc1b76:	687b      	ldr	r3, [r7, #4]
2ffc1b78:	681b      	ldr	r3, [r3, #0]
2ffc1b7a:	f442 3290 	orr.w	r2, r2, #73728	@ 0x12000
2ffc1b7e:	605a      	str	r2, [r3, #4]
2ffc1b80:	f06f 427f 	mvn.w	r2, #4278190080	@ 0xff000000
2ffc1b84:	2102      	movs	r1, #2
2ffc1b86:	6878      	ldr	r0, [r7, #4]
2ffc1b88:	f000 f866 	bl	2ffc1c58 <_ZN14I2C_Controller30wait_on_flag_or_ack_or_timeoutEmm>
2ffc1b8c:	4603      	mov	r3, r0
2ffc1b8e:	f083 0301 	eor.w	r3, r3, #1
2ffc1b92:	b2db      	uxtb	r3, r3
2ffc1b94:	2b00      	cmp	r3, #0
2ffc1b96:	d001      	beq.n	2ffc1b9c <_ZN14I2C_Controller21request_register_readEh+0x3c>
2ffc1b98:	2300      	movs	r3, #0
2ffc1b9a:	e012      	b.n	2ffc1bc2 <_ZN14I2C_Controller21request_register_readEh+0x62>
2ffc1b9c:	687b      	ldr	r3, [r7, #4]
2ffc1b9e:	681b      	ldr	r3, [r3, #0]
2ffc1ba0:	78fa      	ldrb	r2, [r7, #3]
2ffc1ba2:	629a      	str	r2, [r3, #40]	@ 0x28
2ffc1ba4:	f06f 427f 	mvn.w	r2, #4278190080	@ 0xff000000
2ffc1ba8:	2140      	movs	r1, #64	@ 0x40
2ffc1baa:	6878      	ldr	r0, [r7, #4]
2ffc1bac:	f000 f80d 	bl	2ffc1bca <_ZN14I2C_Controller28wait_on_flag_high_or_timeoutEmm>
2ffc1bb0:	4603      	mov	r3, r0
2ffc1bb2:	f083 0301 	eor.w	r3, r3, #1
2ffc1bb6:	b2db      	uxtb	r3, r3
2ffc1bb8:	2b00      	cmp	r3, #0
2ffc1bba:	d001      	beq.n	2ffc1bc0 <_ZN14I2C_Controller21request_register_readEh+0x60>
2ffc1bbc:	2300      	movs	r3, #0
2ffc1bbe:	e000      	b.n	2ffc1bc2 <_ZN14I2C_Controller21request_register_readEh+0x62>
2ffc1bc0:	2301      	movs	r3, #1
2ffc1bc2:	4618      	mov	r0, r3
2ffc1bc4:	3710      	adds	r7, #16
2ffc1bc6:	46bd      	mov	sp, r7
2ffc1bc8:	bd80      	pop	{r7, pc}

2ffc1bca <_ZN14I2C_Controller28wait_on_flag_high_or_timeoutEmm>:
2ffc1bca:	b480      	push	{r7}
2ffc1bcc:	b085      	sub	sp, #20
2ffc1bce:	af00      	add	r7, sp, #0
2ffc1bd0:	60f8      	str	r0, [r7, #12]
2ffc1bd2:	60b9      	str	r1, [r7, #8]
2ffc1bd4:	607a      	str	r2, [r7, #4]
2ffc1bd6:	bf00      	nop
2ffc1bd8:	68fb      	ldr	r3, [r7, #12]
2ffc1bda:	681b      	ldr	r3, [r3, #0]
2ffc1bdc:	699a      	ldr	r2, [r3, #24]
2ffc1bde:	68bb      	ldr	r3, [r7, #8]
2ffc1be0:	4013      	ands	r3, r2
2ffc1be2:	2b00      	cmp	r3, #0
2ffc1be4:	d106      	bne.n	2ffc1bf4 <_ZN14I2C_Controller28wait_on_flag_high_or_timeoutEmm+0x2a>
2ffc1be6:	687b      	ldr	r3, [r7, #4]
2ffc1be8:	1e5a      	subs	r2, r3, #1
2ffc1bea:	607a      	str	r2, [r7, #4]
2ffc1bec:	2b00      	cmp	r3, #0
2ffc1bee:	d001      	beq.n	2ffc1bf4 <_ZN14I2C_Controller28wait_on_flag_high_or_timeoutEmm+0x2a>
2ffc1bf0:	2301      	movs	r3, #1
2ffc1bf2:	e000      	b.n	2ffc1bf6 <_ZN14I2C_Controller28wait_on_flag_high_or_timeoutEmm+0x2c>
2ffc1bf4:	2300      	movs	r3, #0
2ffc1bf6:	2b00      	cmp	r3, #0
2ffc1bf8:	d1ee      	bne.n	2ffc1bd8 <_ZN14I2C_Controller28wait_on_flag_high_or_timeoutEmm+0xe>
2ffc1bfa:	687b      	ldr	r3, [r7, #4]
2ffc1bfc:	2b00      	cmp	r3, #0
2ffc1bfe:	bf14      	ite	ne
2ffc1c00:	2301      	movne	r3, #1
2ffc1c02:	2300      	moveq	r3, #0
2ffc1c04:	b2db      	uxtb	r3, r3
2ffc1c06:	4618      	mov	r0, r3
2ffc1c08:	3714      	adds	r7, #20
2ffc1c0a:	46bd      	mov	sp, r7
2ffc1c0c:	f85d 7b04 	ldr.w	r7, [sp], #4
2ffc1c10:	4770      	bx	lr

2ffc1c12 <_ZN14I2C_Controller13wait_not_busyEm>:
2ffc1c12:	b480      	push	{r7}
2ffc1c14:	b083      	sub	sp, #12
2ffc1c16:	af00      	add	r7, sp, #0
2ffc1c18:	6078      	str	r0, [r7, #4]
2ffc1c1a:	6039      	str	r1, [r7, #0]
2ffc1c1c:	bf00      	nop
2ffc1c1e:	687b      	ldr	r3, [r7, #4]
2ffc1c20:	681b      	ldr	r3, [r3, #0]
2ffc1c22:	699b      	ldr	r3, [r3, #24]
2ffc1c24:	f403 4300 	and.w	r3, r3, #32768	@ 0x8000
2ffc1c28:	2b00      	cmp	r3, #0
2ffc1c2a:	d006      	beq.n	2ffc1c3a <_ZN14I2C_Controller13wait_not_busyEm+0x28>
2ffc1c2c:	683b      	ldr	r3, [r7, #0]
2ffc1c2e:	1e5a      	subs	r2, r3, #1
2ffc1c30:	603a      	str	r2, [r7, #0]
2ffc1c32:	2b00      	cmp	r3, #0
2ffc1c34:	d001      	beq.n	2ffc1c3a <_ZN14I2C_Controller13wait_not_busyEm+0x28>
2ffc1c36:	2301      	movs	r3, #1
2ffc1c38:	e000      	b.n	2ffc1c3c <_ZN14I2C_Controller13wait_not_busyEm+0x2a>
2ffc1c3a:	2300      	movs	r3, #0
2ffc1c3c:	2b00      	cmp	r3, #0
2ffc1c3e:	d1ee      	bne.n	2ffc1c1e <_ZN14I2C_Controller13wait_not_busyEm+0xc>
2ffc1c40:	683b      	ldr	r3, [r7, #0]
2ffc1c42:	2b00      	cmp	r3, #0
2ffc1c44:	bf14      	ite	ne
2ffc1c46:	2301      	movne	r3, #1
2ffc1c48:	2300      	moveq	r3, #0
2ffc1c4a:	b2db      	uxtb	r3, r3
2ffc1c4c:	4618      	mov	r0, r3
2ffc1c4e:	370c      	adds	r7, #12
2ffc1c50:	46bd      	mov	sp, r7
2ffc1c52:	f85d 7b04 	ldr.w	r7, [sp], #4
2ffc1c56:	4770      	bx	lr

2ffc1c58 <_ZN14I2C_Controller30wait_on_flag_or_ack_or_timeoutEmm>:
2ffc1c58:	b480      	push	{r7}
2ffc1c5a:	b087      	sub	sp, #28
2ffc1c5c:	af00      	add	r7, sp, #0
2ffc1c5e:	60f8      	str	r0, [r7, #12]
2ffc1c60:	60b9      	str	r1, [r7, #8]
2ffc1c62:	607a      	str	r2, [r7, #4]
2ffc1c64:	e011      	b.n	2ffc1c8a <_ZN14I2C_Controller30wait_on_flag_or_ack_or_timeoutEmm+0x32>
2ffc1c66:	68fb      	ldr	r3, [r7, #12]
2ffc1c68:	681b      	ldr	r3, [r3, #0]
2ffc1c6a:	699b      	ldr	r3, [r3, #24]
2ffc1c6c:	617b      	str	r3, [r7, #20]
2ffc1c6e:	697a      	ldr	r2, [r7, #20]
2ffc1c70:	68bb      	ldr	r3, [r7, #8]
2ffc1c72:	4013      	ands	r3, r2
2ffc1c74:	2b00      	cmp	r3, #0
2ffc1c76:	d001      	beq.n	2ffc1c7c <_ZN14I2C_Controller30wait_on_flag_or_ack_or_timeoutEmm+0x24>
2ffc1c78:	2301      	movs	r3, #1
2ffc1c7a:	e011      	b.n	2ffc1ca0 <_ZN14I2C_Controller30wait_on_flag_or_ack_or_timeoutEmm+0x48>
2ffc1c7c:	697b      	ldr	r3, [r7, #20]
2ffc1c7e:	f003 0310 	and.w	r3, r3, #16
2ffc1c82:	2b00      	cmp	r3, #0
2ffc1c84:	d001      	beq.n	2ffc1c8a <_ZN14I2C_Controller30wait_on_flag_or_ack_or_timeoutEmm+0x32>
2ffc1c86:	2300      	movs	r3, #0
2ffc1c88:	e00a      	b.n	2ffc1ca0 <_ZN14I2C_Controller30wait_on_flag_or_ack_or_timeoutEmm+0x48>
2ffc1c8a:	687b      	ldr	r3, [r7, #4]
2ffc1c8c:	1e5a      	subs	r2, r3, #1
2ffc1c8e:	607a      	str	r2, [r7, #4]
2ffc1c90:	2b00      	cmp	r3, #0
2ffc1c92:	bf14      	ite	ne
2ffc1c94:	2301      	movne	r3, #1
2ffc1c96:	2300      	moveq	r3, #0
2ffc1c98:	b2db      	uxtb	r3, r3
2ffc1c9a:	2b00      	cmp	r3, #0
2ffc1c9c:	d1e3      	bne.n	2ffc1c66 <_ZN14I2C_Controller30wait_on_flag_or_ack_or_timeoutEmm+0xe>
2ffc1c9e:	2300      	movs	r3, #0
2ffc1ca0:	4618      	mov	r0, r3
2ffc1ca2:	371c      	adds	r7, #28
2ffc1ca4:	46bd      	mov	sp, r7
2ffc1ca6:	f85d 7b04 	ldr.w	r7, [sp], #4
2ffc1caa:	4770      	bx	lr

2ffc1cac <_ZN7STPMIC1C1ERK10I2C_Config>:
2ffc1cac:	b580      	push	{r7, lr}
2ffc1cae:	b082      	sub	sp, #8
2ffc1cb0:	af00      	add	r7, sp, #0
2ffc1cb2:	6078      	str	r0, [r7, #4]
2ffc1cb4:	6039      	str	r1, [r7, #0]
2ffc1cb6:	687b      	ldr	r3, [r7, #4]
2ffc1cb8:	683a      	ldr	r2, [r7, #0]
2ffc1cba:	2133      	movs	r1, #51	@ 0x33
2ffc1cbc:	4618      	mov	r0, r3
2ffc1cbe:	f7ff fd60 	bl	2ffc1782 <_ZN14I2C_ControllerC1EmRK10I2C_Config>
2ffc1cc2:	6878      	ldr	r0, [r7, #4]
2ffc1cc4:	f000 f8c5 	bl	2ffc1e52 <_ZN7STPMIC114verify_chip_idEv>
2ffc1cc8:	687b      	ldr	r3, [r7, #4]
2ffc1cca:	4618      	mov	r0, r3
2ffc1ccc:	3708      	adds	r7, #8
2ffc1cce:	46bd      	mov	sp, r7
2ffc1cd0:	bd80      	pop	{r7, pc}

2ffc1cd2 <_ZN7STPMIC117setup_vddcore_pwrEv>:
2ffc1cd2:	b580      	push	{r7, lr}
2ffc1cd4:	b084      	sub	sp, #16
2ffc1cd6:	af00      	add	r7, sp, #0
2ffc1cd8:	6078      	str	r0, [r7, #4]
2ffc1cda:	f249 0300 	movw	r3, #36864	@ 0x9000
2ffc1cde:	f6c2 73fc 	movt	r3, #12284	@ 0x2ffc
2ffc1ce2:	781b      	ldrb	r3, [r3, #0]
2ffc1ce4:	733b      	strb	r3, [r7, #12]
2ffc1ce6:	687b      	ldr	r3, [r7, #4]
2ffc1ce8:	7b3a      	ldrb	r2, [r7, #12]
2ffc1cea:	2120      	movs	r1, #32
2ffc1cec:	4618      	mov	r0, r3
2ffc1cee:	f7ff fec3 	bl	2ffc1a78 <_ZN14I2C_Controller19write_register_byteEhh>
2ffc1cf2:	4603      	mov	r3, r0
2ffc1cf4:	4618      	mov	r0, r3
2ffc1cf6:	3710      	adds	r7, #16
2ffc1cf8:	46bd      	mov	sp, r7
2ffc1cfa:	bd80      	pop	{r7, pc}

2ffc1cfc <_ZN7STPMIC114setup_ddr3_pwrEv>:
2ffc1cfc:	b580      	push	{r7, lr}
2ffc1cfe:	b088      	sub	sp, #32
2ffc1d00:	af02      	add	r7, sp, #8
2ffc1d02:	6078      	str	r0, [r7, #4]
2ffc1d04:	2300      	movs	r3, #0
2ffc1d06:	753b      	strb	r3, [r7, #20]
2ffc1d08:	7d3b      	ldrb	r3, [r7, #20]
2ffc1d0a:	f043 0301 	orr.w	r3, r3, #1
2ffc1d0e:	753b      	strb	r3, [r7, #20]
2ffc1d10:	7d3b      	ldrb	r3, [r7, #20]
2ffc1d12:	f043 037c 	orr.w	r3, r3, #124	@ 0x7c
2ffc1d16:	753b      	strb	r3, [r7, #20]
2ffc1d18:	f249 0350 	movw	r3, #36944	@ 0x9050
2ffc1d1c:	f6c2 73fc 	movt	r3, #12284	@ 0x2ffc
2ffc1d20:	781b      	ldrb	r3, [r3, #0]
2ffc1d22:	743b      	strb	r3, [r7, #16]
2ffc1d24:	2300      	movs	r3, #0
2ffc1d26:	733b      	strb	r3, [r7, #12]
2ffc1d28:	7b3b      	ldrb	r3, [r7, #12]
2ffc1d2a:	f043 0301 	orr.w	r3, r3, #1
2ffc1d2e:	733b      	strb	r3, [r7, #12]
2ffc1d30:	687b      	ldr	r3, [r7, #4]
2ffc1d32:	7d3a      	ldrb	r2, [r7, #20]
2ffc1d34:	2127      	movs	r1, #39	@ 0x27
2ffc1d36:	4618      	mov	r0, r3
2ffc1d38:	f7ff fe9e 	bl	2ffc1a78 <_ZN14I2C_Controller19write_register_byteEhh>
2ffc1d3c:	4603      	mov	r3, r0
2ffc1d3e:	f083 0301 	eor.w	r3, r3, #1
2ffc1d42:	b2db      	uxtb	r3, r3
2ffc1d44:	2b00      	cmp	r3, #0
2ffc1d46:	d001      	beq.n	2ffc1d4c <_ZN7STPMIC114setup_ddr3_pwrEv+0x50>
2ffc1d48:	2300      	movs	r3, #0
2ffc1d4a:	e05d      	b.n	2ffc1e08 <_ZN7STPMIC114setup_ddr3_pwrEv+0x10c>
2ffc1d4c:	687b      	ldr	r3, [r7, #4]
2ffc1d4e:	7c3a      	ldrb	r2, [r7, #16]
2ffc1d50:	2121      	movs	r1, #33	@ 0x21
2ffc1d52:	4618      	mov	r0, r3
2ffc1d54:	f7ff fe90 	bl	2ffc1a78 <_ZN14I2C_Controller19write_register_byteEhh>
2ffc1d58:	4603      	mov	r3, r0
2ffc1d5a:	f083 0301 	eor.w	r3, r3, #1
2ffc1d5e:	b2db      	uxtb	r3, r3
2ffc1d60:	2b00      	cmp	r3, #0
2ffc1d62:	d001      	beq.n	2ffc1d68 <_ZN7STPMIC114setup_ddr3_pwrEv+0x6c>
2ffc1d64:	2300      	movs	r3, #0
2ffc1d66:	e04f      	b.n	2ffc1e08 <_ZN7STPMIC114setup_ddr3_pwrEv+0x10c>
2ffc1d68:	f44f 707a 	mov.w	r0, #1000	@ 0x3e8
2ffc1d6c:	f7ff fb26 	bl	2ffc13bc <_ZL6udelaym>
2ffc1d70:	687b      	ldr	r3, [r7, #4]
2ffc1d72:	7b3a      	ldrb	r2, [r7, #12]
2ffc1d74:	2124      	movs	r1, #36	@ 0x24
2ffc1d76:	4618      	mov	r0, r3
2ffc1d78:	f7ff fe7e 	bl	2ffc1a78 <_ZN14I2C_Controller19write_register_byteEhh>
2ffc1d7c:	4603      	mov	r3, r0
2ffc1d7e:	f083 0301 	eor.w	r3, r3, #1
2ffc1d82:	b2db      	uxtb	r3, r3
2ffc1d84:	2b00      	cmp	r3, #0
2ffc1d86:	d001      	beq.n	2ffc1d8c <_ZN7STPMIC114setup_ddr3_pwrEv+0x90>
2ffc1d88:	2300      	movs	r3, #0
2ffc1d8a:	e03d      	b.n	2ffc1e08 <_ZN7STPMIC114setup_ddr3_pwrEv+0x10c>
2ffc1d8c:	f44f 707a 	mov.w	r0, #1000	@ 0x3e8
2ffc1d90:	f7ff fb14 	bl	2ffc13bc <_ZL6udelaym>
2ffc1d94:	7d3b      	ldrb	r3, [r7, #20]
2ffc1d96:	461a      	mov	r2, r3
2ffc1d98:	f249 0324 	movw	r3, #36900	@ 0x9024
2ffc1d9c:	f6c2 73fc 	movt	r3, #12284	@ 0x2ffc
2ffc1da0:	9300      	str	r3, [sp, #0]
2ffc1da2:	4613      	mov	r3, r2
2ffc1da4:	f249 0204 	movw	r2, #36868	@ 0x9004
2ffc1da8:	f6c2 72fc 	movt	r2, #12284	@ 0x2ffc
2ffc1dac:	2127      	movs	r1, #39	@ 0x27
2ffc1dae:	f249 0014 	movw	r0, #36884	@ 0x9014
2ffc1db2:	f6c2 70fc 	movt	r0, #12284	@ 0x2ffc
2ffc1db6:	f000 fc52 	bl	2ffc265e <_Z5debugIJPKcN7STPMIC112RegisterMainES1_3HexS1_EEvDpT_>
2ffc1dba:	7c3b      	ldrb	r3, [r7, #16]
2ffc1dbc:	461a      	mov	r2, r3
2ffc1dbe:	f249 0324 	movw	r3, #36900	@ 0x9024
2ffc1dc2:	f6c2 73fc 	movt	r3, #12284	@ 0x2ffc
2ffc1dc6:	9300      	str	r3, [sp, #0]
2ffc1dc8:	4613      	mov	r3, r2
2ffc1dca:	f249 0228 	movw	r2, #36904	@ 0x9028
2ffc1dce:	f6c2 72fc 	movt	r2, #12284	@ 0x2ffc
2ffc1dd2:	2121      	movs	r1, #33	@ 0x21
2ffc1dd4:	f249 0014 	movw	r0, #36884	@ 0x9014
2ffc1dd8:	f6c2 70fc 	movt	r0, #12284	@ 0x2ffc
2ffc1ddc:	f000 fc3f 	bl	2ffc265e <_Z5debugIJPKcN7STPMIC112RegisterMainES1_3HexS1_EEvDpT_>
2ffc1de0:	7b3b      	ldrb	r3, [r7, #12]
2ffc1de2:	461a      	mov	r2, r3
2ffc1de4:	f249 0324 	movw	r3, #36900	@ 0x9024
2ffc1de8:	f6c2 73fc 	movt	r3, #12284	@ 0x2ffc
2ffc1dec:	9300      	str	r3, [sp, #0]
2ffc1dee:	4613      	mov	r3, r2
2ffc1df0:	f249 023c 	movw	r2, #36924	@ 0x903c
2ffc1df4:	f6c2 72fc 	movt	r2, #12284	@ 0x2ffc
2ffc1df8:	2124      	movs	r1, #36	@ 0x24
2ffc1dfa:	f249 0014 	movw	r0, #36884	@ 0x9014
2ffc1dfe:	f6c2 70fc 	movt	r0, #12284	@ 0x2ffc
2ffc1e02:	f000 fc2c 	bl	2ffc265e <_Z5debugIJPKcN7STPMIC112RegisterMainES1_3HexS1_EEvDpT_>
2ffc1e06:	2301      	movs	r3, #1
2ffc1e08:	4618      	mov	r0, r3
2ffc1e0a:	3718      	adds	r7, #24
2ffc1e0c:	46bd      	mov	sp, r7
2ffc1e0e:	bd80      	pop	{r7, pc}

2ffc1e10 <_ZNRSt8optionalIhE5valueEv>:
2ffc1e10:	b580      	push	{r7, lr}
2ffc1e12:	b082      	sub	sp, #8
2ffc1e14:	af00      	add	r7, sp, #0
2ffc1e16:	6078      	str	r0, [r7, #4]
2ffc1e18:	6878      	ldr	r0, [r7, #4]
2ffc1e1a:	f000 f80e 	bl	2ffc1e3a <_ZNKSt19_Optional_base_implIhSt14_Optional_baseIhLb1ELb1EEE13_M_is_engagedEv>
2ffc1e1e:	4603      	mov	r3, r0
2ffc1e20:	2b00      	cmp	r3, #0
2ffc1e22:	d004      	beq.n	2ffc1e2e <_ZNRSt8optionalIhE5valueEv+0x1e>
2ffc1e24:	6878      	ldr	r0, [r7, #4]
2ffc1e26:	f000 fc3f 	bl	2ffc26a8 <_ZNSt19_Optional_base_implIhSt14_Optional_baseIhLb1ELb1EEE6_M_getEv>
2ffc1e2a:	4603      	mov	r3, r0
2ffc1e2c:	e001      	b.n	2ffc1e32 <_ZNRSt8optionalIhE5valueEv+0x22>
2ffc1e2e:	f7ff fc89 	bl	2ffc1744 <_ZSt27__throw_bad_optional_accessv>
2ffc1e32:	4618      	mov	r0, r3
2ffc1e34:	3708      	adds	r7, #8
2ffc1e36:	46bd      	mov	sp, r7
2ffc1e38:	bd80      	pop	{r7, pc}

2ffc1e3a <_ZNKSt19_Optional_base_implIhSt14_Optional_baseIhLb1ELb1EEE13_M_is_engagedEv>:
2ffc1e3a:	b480      	push	{r7}
2ffc1e3c:	b083      	sub	sp, #12
2ffc1e3e:	af00      	add	r7, sp, #0
2ffc1e40:	6078      	str	r0, [r7, #4]
2ffc1e42:	687b      	ldr	r3, [r7, #4]
2ffc1e44:	785b      	ldrb	r3, [r3, #1]
2ffc1e46:	4618      	mov	r0, r3
2ffc1e48:	370c      	adds	r7, #12
2ffc1e4a:	46bd      	mov	sp, r7
2ffc1e4c:	f85d 7b04 	ldr.w	r7, [sp], #4
2ffc1e50:	4770      	bx	lr

2ffc1e52 <_ZN7STPMIC114verify_chip_idEv>:
2ffc1e52:	b580      	push	{r7, lr}
2ffc1e54:	b084      	sub	sp, #16
2ffc1e56:	af00      	add	r7, sp, #0
2ffc1e58:	6078      	str	r0, [r7, #4]
2ffc1e5a:	687b      	ldr	r3, [r7, #4]
2ffc1e5c:	2106      	movs	r1, #6
2ffc1e5e:	4618      	mov	r0, r3
2ffc1e60:	f7ff fd1f 	bl	2ffc18a2 <_ZN14I2C_Controller18read_register_byteEh>
2ffc1e64:	4603      	mov	r3, r0
2ffc1e66:	81bb      	strh	r3, [r7, #12]
2ffc1e68:	f107 030c 	add.w	r3, r7, #12
2ffc1e6c:	4618      	mov	r0, r3
2ffc1e6e:	f000 fc04 	bl	2ffc267a <_ZNKSt8optionalIhEcvbEv>
2ffc1e72:	4603      	mov	r3, r0
2ffc1e74:	f083 0301 	eor.w	r3, r3, #1
2ffc1e78:	b2db      	uxtb	r3, r3
2ffc1e7a:	2b00      	cmp	r3, #0
2ffc1e7c:	d007      	beq.n	2ffc1e8e <_ZN7STPMIC114verify_chip_idEv+0x3c>
2ffc1e7e:	f249 0054 	movw	r0, #36948	@ 0x9054
2ffc1e82:	f6c2 70fc 	movt	r0, #12284	@ 0x2ffc
2ffc1e86:	f000 fc04 	bl	2ffc2692 <_Z6pr_errIJPKcEEvDpT_>
2ffc1e8a:	2300      	movs	r3, #0
2ffc1e8c:	e012      	b.n	2ffc1eb4 <_ZN7STPMIC114verify_chip_idEv+0x62>
2ffc1e8e:	f107 030c 	add.w	r3, r7, #12
2ffc1e92:	4618      	mov	r0, r3
2ffc1e94:	f7ff ffbc 	bl	2ffc1e10 <_ZNRSt8optionalIhE5valueEv>
2ffc1e98:	4603      	mov	r3, r0
2ffc1e9a:	781b      	ldrb	r3, [r3, #0]
2ffc1e9c:	f249 0224 	movw	r2, #36900	@ 0x9024
2ffc1ea0:	f6c2 72fc 	movt	r2, #12284	@ 0x2ffc
2ffc1ea4:	4619      	mov	r1, r3
2ffc1ea6:	f249 0070 	movw	r0, #36976	@ 0x9070
2ffc1eaa:	f6c2 70fc 	movt	r0, #12284	@ 0x2ffc
2ffc1eae:	f000 fc1a 	bl	2ffc26e6 <_Z3logIJPKc3HexS1_EEvDpT_>
2ffc1eb2:	2301      	movs	r3, #1
2ffc1eb4:	4618      	mov	r0, r3
2ffc1eb6:	3710      	adds	r7, #16
2ffc1eb8:	46bd      	mov	sp, r7
2ffc1eba:	bd80      	pop	{r7, pc}

2ffc1ebc <main>:
2ffc1ebc:	b5b0      	push	{r4, r5, r7, lr}
2ffc1ebe:	b08c      	sub	sp, #48	@ 0x30
2ffc1ec0:	af04      	add	r7, sp, #16
2ffc1ec2:	f107 0314 	add.w	r3, r7, #20
2ffc1ec6:	4618      	mov	r0, r3
2ffc1ec8:	f000 fc19 	bl	2ffc26fe <_ZN3LedIL4GPIO1342214144EL6PinNum128EL9LedActive1EEC1Ev>
2ffc1ecc:	f240 218a 	movw	r1, #650	@ 0x28a
2ffc1ed0:	f44f 5058 	mov.w	r0, #13824	@ 0x3600
2ffc1ed4:	f2c0 106e 	movt	r0, #366	@ 0x16e
2ffc1ed8:	f7ff f94a 	bl	2ffc1170 <_ZN12SystemClocks16init_core_clocksEmm>
2ffc1edc:	61f8      	str	r0, [r7, #28]
2ffc1ede:	f249 1318 	movw	r3, #37144	@ 0x9118
2ffc1ee2:	f6c2 73fc 	movt	r3, #12284	@ 0x2ffc
2ffc1ee6:	f107 0510 	add.w	r5, r7, #16
2ffc1eea:	f44f 32e1 	mov.w	r2, #115200	@ 0x1c200
2ffc1eee:	9203      	str	r2, [sp, #12]
2ffc1ef0:	f249 1224 	movw	r2, #37156	@ 0x9124
2ffc1ef4:	f6c2 72fc 	movt	r2, #12284	@ 0x2ffc
2ffc1ef8:	466c      	mov	r4, sp
2ffc1efa:	ca07      	ldmia	r2, {r0, r1, r2}
2ffc1efc:	e884 0007 	stmia.w	r4, {r0, r1, r2}
2ffc1f00:	cb0e      	ldmia	r3, {r1, r2, r3}
2ffc1f02:	4628      	mov	r0, r5
2ffc1f04:	f000 fc19 	bl	2ffc273a <_ZN4UartILm1073807360EEC1E7PinConfS1_m>
2ffc1f08:	f249 0084 	movw	r0, #36996	@ 0x9084
2ffc1f0c:	f6c2 70fc 	movt	r0, #12284	@ 0x2ffc
2ffc1f10:	f000 fc3d 	bl	2ffc278e <_Z5printIJPKcEEvDpT_>
2ffc1f14:	f249 0294 	movw	r2, #37012	@ 0x9094
2ffc1f18:	f6c2 72fc 	movt	r2, #12284	@ 0x2ffc
2ffc1f1c:	69f9      	ldr	r1, [r7, #28]
2ffc1f1e:	f249 009c 	movw	r0, #37020	@ 0x909c
2ffc1f22:	f6c2 70fc 	movt	r0, #12284	@ 0x2ffc
2ffc1f26:	f000 fc3d 	bl	2ffc27a4 <_Z5printIJPKcjS1_EEvDpT_>
2ffc1f2a:	1d3b      	adds	r3, r7, #4
2ffc1f2c:	f249 1130 	movw	r1, #37168	@ 0x9130
2ffc1f30:	f6c2 71fc 	movt	r1, #12284	@ 0x2ffc
2ffc1f34:	4618      	mov	r0, r3
2ffc1f36:	f7ff feb9 	bl	2ffc1cac <_ZN7STPMIC1C1ERK10I2C_Config>
2ffc1f3a:	1d3b      	adds	r3, r7, #4
2ffc1f3c:	4618      	mov	r0, r3
2ffc1f3e:	f7ff fec8 	bl	2ffc1cd2 <_ZN7STPMIC117setup_vddcore_pwrEv>
2ffc1f42:	4603      	mov	r3, r0
2ffc1f44:	f083 0301 	eor.w	r3, r3, #1
2ffc1f48:	b2db      	uxtb	r3, r3
2ffc1f4a:	2b00      	cmp	r3, #0
2ffc1f4c:	d005      	beq.n	2ffc1f5a <main+0x9e>
2ffc1f4e:	f249 00a8 	movw	r0, #37032	@ 0x90a8
2ffc1f52:	f6c2 70fc 	movt	r0, #12284	@ 0x2ffc
2ffc1f56:	f000 fc39 	bl	2ffc27cc <_Z5panicIJPKcEEvDpT_>
2ffc1f5a:	1d3b      	adds	r3, r7, #4
2ffc1f5c:	4618      	mov	r0, r3
2ffc1f5e:	f7ff fecd 	bl	2ffc1cfc <_ZN7STPMIC114setup_ddr3_pwrEv>
2ffc1f62:	4603      	mov	r3, r0
2ffc1f64:	f083 0301 	eor.w	r3, r3, #1
2ffc1f68:	b2db      	uxtb	r3, r3
2ffc1f6a:	2b00      	cmp	r3, #0
2ffc1f6c:	d005      	beq.n	2ffc1f7a <main+0xbe>
2ffc1f6e:	f249 00c8 	movw	r0, #37064	@ 0x90c8
2ffc1f72:	f6c2 70fc 	movt	r0, #12284	@ 0x2ffc
2ffc1f76:	f000 fc29 	bl	2ffc27cc <_Z5panicIJPKcEEvDpT_>
2ffc1f7a:	f249 00ec 	movw	r0, #37100	@ 0x90ec
2ffc1f7e:	f6c2 70fc 	movt	r0, #12284	@ 0x2ffc
2ffc1f82:	f000 fc04 	bl	2ffc278e <_Z5printIJPKcEEvDpT_>
2ffc1f86:	f006 f99a 	bl	2ffc82be <_Z18stm32mp1_ddr_setupv>
2ffc1f8a:	f002 f990 	bl	2ffc42ae <_tx_initialize_kernel_enter>
2ffc1f8e:	f249 1000 	movw	r0, #37120	@ 0x9100
2ffc1f92:	f6c2 70fc 	movt	r0, #12284	@ 0x2ffc
2ffc1f96:	f000 fbfa 	bl	2ffc278e <_Z5printIJPKcEEvDpT_>
2ffc1f9a:	f24c 3350 	movw	r3, #50000	@ 0xc350
2ffc1f9e:	61bb      	str	r3, [r7, #24]
2ffc1fa0:	f107 0314 	add.w	r3, r7, #20
2ffc1fa4:	4618      	mov	r0, r3
2ffc1fa6:	f000 fc19 	bl	2ffc27dc <_ZN3LedIL4GPIO1342214144EL6PinNum128EL9LedActive1EE2onEv>
2ffc1faa:	f24c 3050 	movw	r0, #50000	@ 0xc350
2ffc1fae:	f7ff fa05 	bl	2ffc13bc <_ZL6udelaym>
2ffc1fb2:	f107 0314 	add.w	r3, r7, #20
2ffc1fb6:	4618      	mov	r0, r3
2ffc1fb8:	f000 fc2a 	bl	2ffc2810 <_ZN3LedIL4GPIO1342214144EL6PinNum128EL9LedActive1EE3offEv>
2ffc1fbc:	f24c 3050 	movw	r0, #50000	@ 0xc350
2ffc1fc0:	f7ff f9fc 	bl	2ffc13bc <_ZL6udelaym>
2ffc1fc4:	e7ec      	b.n	2ffc1fa0 <main+0xe4>

2ffc1fc6 <_Z9putchar_sc>:
2ffc1fc6:	b580      	push	{r7, lr}
2ffc1fc8:	b082      	sub	sp, #8
2ffc1fca:	af00      	add	r7, sp, #0
2ffc1fcc:	4603      	mov	r3, r0
2ffc1fce:	71fb      	strb	r3, [r7, #7]
2ffc1fd0:	79fb      	ldrb	r3, [r7, #7]
2ffc1fd2:	4618      	mov	r0, r3
2ffc1fd4:	f000 fc36 	bl	2ffc2844 <_ZN4UartILm1073807360EE7putcharEc>
2ffc1fd8:	bf00      	nop
2ffc1fda:	3708      	adds	r7, #8
2ffc1fdc:	46bd      	mov	sp, r7
2ffc1fde:	bd80      	pop	{r7, pc}

2ffc1fe0 <_ZN8mdrivlib12RegisterBitsINS_9ReadWriteELm1342177808ELm1EE3setEv>:
2ffc1fe0:	b580      	push	{r7, lr}
2ffc1fe2:	af00      	add	r7, sp, #0
2ffc1fe4:	2101      	movs	r1, #1
2ffc1fe6:	f44f 7004 	mov.w	r0, #528	@ 0x210
2ffc1fea:	f2c5 0000 	movt	r0, #20480	@ 0x5000
2ffc1fee:	f7ff f83b 	bl	2ffc1068 <_ZN8mdrivlib9ReadWrite3setEPVmm>
2ffc1ff2:	bf00      	nop
2ffc1ff4:	bd80      	pop	{r7, pc}

2ffc1ff6 <_ZN8mdrivlib12RegisterBitsINS_9ReadWriteELm1342177808ELm1EE4readEv>:
2ffc1ff6:	b580      	push	{r7, lr}
2ffc1ff8:	af00      	add	r7, sp, #0
2ffc1ffa:	2201      	movs	r2, #1
2ffc1ffc:	2100      	movs	r1, #0
2ffc1ffe:	f44f 7004 	mov.w	r0, #528	@ 0x210
2ffc2002:	f2c5 0000 	movt	r0, #20480	@ 0x5000
2ffc2006:	f7fe fff4 	bl	2ffc0ff2 <_ZN8mdrivlib8ReadOnly4readEPVmmm>
2ffc200a:	4603      	mov	r3, r0
2ffc200c:	4618      	mov	r0, r3
2ffc200e:	bd80      	pop	{r7, pc}

2ffc2010 <_ZN8mdrivlib12RegisterBitsINS_9ReadWriteELm1342177312ELm3EE5writeEm>:
2ffc2010:	b580      	push	{r7, lr}
2ffc2012:	b082      	sub	sp, #8
2ffc2014:	af00      	add	r7, sp, #0
2ffc2016:	6078      	str	r0, [r7, #4]
2ffc2018:	687b      	ldr	r3, [r7, #4]
2ffc201a:	2203      	movs	r2, #3
2ffc201c:	2100      	movs	r1, #0
2ffc201e:	2020      	movs	r0, #32
2ffc2020:	f2c5 0000 	movt	r0, #20480	@ 0x5000
2ffc2024:	f7ff f806 	bl	2ffc1034 <_ZN8mdrivlib9ReadWrite5writeEPVmmmm>
2ffc2028:	bf00      	nop
2ffc202a:	3708      	adds	r7, #8
2ffc202c:	46bd      	mov	sp, r7
2ffc202e:	bd80      	pop	{r7, pc}

2ffc2030 <_ZN8mdrivlib12RegisterBitsINS_9ReadWriteELm1342177316ELm7EE5writeEm>:
2ffc2030:	b580      	push	{r7, lr}
2ffc2032:	b082      	sub	sp, #8
2ffc2034:	af00      	add	r7, sp, #0
2ffc2036:	6078      	str	r0, [r7, #4]
2ffc2038:	687b      	ldr	r3, [r7, #4]
2ffc203a:	2207      	movs	r2, #7
2ffc203c:	2100      	movs	r1, #0
2ffc203e:	2024      	movs	r0, #36	@ 0x24
2ffc2040:	f2c5 0000 	movt	r0, #20480	@ 0x5000
2ffc2044:	f7fe fff6 	bl	2ffc1034 <_ZN8mdrivlib9ReadWrite5writeEPVmmmm>
2ffc2048:	bf00      	nop
2ffc204a:	3708      	adds	r7, #8
2ffc204c:	46bd      	mov	sp, r7
2ffc204e:	bd80      	pop	{r7, pc}

2ffc2050 <_ZN8mdrivlib20RegisterDualSetClearILm1342177292ELm256ELm1342177296ELm256EE5clearEv>:
2ffc2050:	b580      	push	{r7, lr}
2ffc2052:	af00      	add	r7, sp, #0
2ffc2054:	f44f 7180 	mov.w	r1, #256	@ 0x100
2ffc2058:	2010      	movs	r0, #16
2ffc205a:	f2c5 0000 	movt	r0, #20480	@ 0x5000
2ffc205e:	f7fe ffdb 	bl	2ffc1018 <_ZN8mdrivlib9WriteOnly3setEPVmm>
2ffc2062:	bf00      	nop
2ffc2064:	bd80      	pop	{r7, pc}

2ffc2066 <_ZN8mdrivlib12RegisterBitsINS_8ReadOnlyELm1342179336ELm256EE4readEv>:
2ffc2066:	b580      	push	{r7, lr}
2ffc2068:	af00      	add	r7, sp, #0
2ffc206a:	f44f 7280 	mov.w	r2, #256	@ 0x100
2ffc206e:	2108      	movs	r1, #8
2ffc2070:	f640 0008 	movw	r0, #2056	@ 0x808
2ffc2074:	f2c5 0000 	movt	r0, #20480	@ 0x5000
2ffc2078:	f7fe ffbb 	bl	2ffc0ff2 <_ZN8mdrivlib8ReadOnly4readEPVmmm>
2ffc207c:	4603      	mov	r3, r0
2ffc207e:	4618      	mov	r0, r3
2ffc2080:	bd80      	pop	{r7, pc}

2ffc2082 <_ZN8mdrivlib20RegisterDualSetClearILm1342177292ELm128ELm1342177296ELm128EE5clearEv>:
2ffc2082:	b580      	push	{r7, lr}
2ffc2084:	af00      	add	r7, sp, #0
2ffc2086:	2180      	movs	r1, #128	@ 0x80
2ffc2088:	2010      	movs	r0, #16
2ffc208a:	f2c5 0000 	movt	r0, #20480	@ 0x5000
2ffc208e:	f7fe ffc3 	bl	2ffc1018 <_ZN8mdrivlib9WriteOnly3setEPVmm>
2ffc2092:	bf00      	nop
2ffc2094:	bd80      	pop	{r7, pc}

2ffc2096 <_ZN8mdrivlib20RegisterDualSetClearILm1342177292ELm1024ELm1342177296ELm1024EE3setEv>:
2ffc2096:	b580      	push	{r7, lr}
2ffc2098:	af00      	add	r7, sp, #0
2ffc209a:	f44f 6180 	mov.w	r1, #1024	@ 0x400
2ffc209e:	200c      	movs	r0, #12
2ffc20a0:	f2c5 0000 	movt	r0, #20480	@ 0x5000
2ffc20a4:	f7fe ffb8 	bl	2ffc1018 <_ZN8mdrivlib9WriteOnly3setEPVmm>
2ffc20a8:	bf00      	nop
2ffc20aa:	bd80      	pop	{r7, pc}

2ffc20ac <_ZN8mdrivlib20RegisterDualSetClearILm1342177292ELm256ELm1342177296ELm256EE3setEv>:
2ffc20ac:	b580      	push	{r7, lr}
2ffc20ae:	af00      	add	r7, sp, #0
2ffc20b0:	f44f 7180 	mov.w	r1, #256	@ 0x100
2ffc20b4:	200c      	movs	r0, #12
2ffc20b6:	f2c5 0000 	movt	r0, #20480	@ 0x5000
2ffc20ba:	f7fe ffad 	bl	2ffc1018 <_ZN8mdrivlib9WriteOnly3setEPVmm>
2ffc20be:	bf00      	nop
2ffc20c0:	bd80      	pop	{r7, pc}

2ffc20c2 <_ZN8mdrivlib12RegisterBitsINS_9ReadWriteELm1342177408ELm16EE5clearEv>:
2ffc20c2:	b580      	push	{r7, lr}
2ffc20c4:	af00      	add	r7, sp, #0
2ffc20c6:	2110      	movs	r1, #16
2ffc20c8:	2080      	movs	r0, #128	@ 0x80
2ffc20ca:	f2c5 0000 	movt	r0, #20480	@ 0x5000
2ffc20ce:	f7fe ffdc 	bl	2ffc108a <_ZN8mdrivlib9ReadWrite5clearEPVmm>
2ffc20d2:	bf00      	nop
2ffc20d4:	bd80      	pop	{r7, pc}

2ffc20d6 <_ZN8mdrivlib12RegisterBitsINS_9ReadWriteELm1342177408ELm32EE5clearEv>:
2ffc20d6:	b580      	push	{r7, lr}
2ffc20d8:	af00      	add	r7, sp, #0
2ffc20da:	2120      	movs	r1, #32
2ffc20dc:	2080      	movs	r0, #128	@ 0x80
2ffc20de:	f2c5 0000 	movt	r0, #20480	@ 0x5000
2ffc20e2:	f7fe ffd2 	bl	2ffc108a <_ZN8mdrivlib9ReadWrite5clearEPVmm>
2ffc20e6:	bf00      	nop
2ffc20e8:	bd80      	pop	{r7, pc}

2ffc20ea <_ZN8mdrivlib12RegisterBitsINS_9ReadWriteELm1342177408ELm64EE5clearEv>:
2ffc20ea:	b580      	push	{r7, lr}
2ffc20ec:	af00      	add	r7, sp, #0
2ffc20ee:	2140      	movs	r1, #64	@ 0x40
2ffc20f0:	2080      	movs	r0, #128	@ 0x80
2ffc20f2:	f2c5 0000 	movt	r0, #20480	@ 0x5000
2ffc20f6:	f7fe ffc8 	bl	2ffc108a <_ZN8mdrivlib9ReadWrite5clearEPVmm>
2ffc20fa:	bf00      	nop
2ffc20fc:	bd80      	pop	{r7, pc}

2ffc20fe <_ZN8mdrivlib12RegisterBitsINS_9ReadWriteELm1342177408ELm1EE5clearEv>:
2ffc20fe:	b580      	push	{r7, lr}
2ffc2100:	af00      	add	r7, sp, #0
2ffc2102:	2101      	movs	r1, #1
2ffc2104:	2080      	movs	r0, #128	@ 0x80
2ffc2106:	f2c5 0000 	movt	r0, #20480	@ 0x5000
2ffc210a:	f7fe ffbe 	bl	2ffc108a <_ZN8mdrivlib9ReadWrite5clearEPVmm>
2ffc210e:	bf00      	nop
2ffc2110:	bd80      	pop	{r7, pc}

2ffc2112 <_ZN8mdrivlib12RegisterBitsINS_8ReadOnlyELm1342177408ELm2EE4readEv>:
2ffc2112:	b580      	push	{r7, lr}
2ffc2114:	af00      	add	r7, sp, #0
2ffc2116:	2202      	movs	r2, #2
2ffc2118:	2101      	movs	r1, #1
2ffc211a:	2080      	movs	r0, #128	@ 0x80
2ffc211c:	f2c5 0000 	movt	r0, #20480	@ 0x5000
2ffc2120:	f7fe ff67 	bl	2ffc0ff2 <_ZN8mdrivlib8ReadOnly4readEPVmmm>
2ffc2124:	4603      	mov	r3, r0
2ffc2126:	4618      	mov	r0, r3
2ffc2128:	bd80      	pop	{r7, pc}

2ffc212a <_ZN8mdrivlib12RegisterBitsINS_9ReadWriteELm1342177320ELm3EE5writeEm>:
2ffc212a:	b580      	push	{r7, lr}
2ffc212c:	b082      	sub	sp, #8
2ffc212e:	af00      	add	r7, sp, #0
2ffc2130:	6078      	str	r0, [r7, #4]
2ffc2132:	687b      	ldr	r3, [r7, #4]
2ffc2134:	2203      	movs	r2, #3
2ffc2136:	2100      	movs	r1, #0
2ffc2138:	2028      	movs	r0, #40	@ 0x28
2ffc213a:	f2c5 0000 	movt	r0, #20480	@ 0x5000
2ffc213e:	f7fe ff79 	bl	2ffc1034 <_ZN8mdrivlib9ReadWrite5writeEPVmmmm>
2ffc2142:	bf00      	nop
2ffc2144:	3708      	adds	r7, #8
2ffc2146:	46bd      	mov	sp, r7
2ffc2148:	bd80      	pop	{r7, pc}

2ffc214a <_ZN8mdrivlib12RegisterBitsINS_8ReadOnlyELm1342177320ELm2147483648EE4readEv>:
2ffc214a:	b580      	push	{r7, lr}
2ffc214c:	af00      	add	r7, sp, #0
2ffc214e:	f04f 4200 	mov.w	r2, #2147483648	@ 0x80000000
2ffc2152:	211f      	movs	r1, #31
2ffc2154:	2028      	movs	r0, #40	@ 0x28
2ffc2156:	f2c5 0000 	movt	r0, #20480	@ 0x5000
2ffc215a:	f7fe ff4a 	bl	2ffc0ff2 <_ZN8mdrivlib8ReadOnly4readEPVmmm>
2ffc215e:	4603      	mov	r3, r0
2ffc2160:	4618      	mov	r0, r3
2ffc2162:	bd80      	pop	{r7, pc}

2ffc2164 <_ZN8mdrivlib12RegisterBitsINS_9ReadWriteELm1342177412ELm4128768EE5writeEm>:
2ffc2164:	b580      	push	{r7, lr}
2ffc2166:	b082      	sub	sp, #8
2ffc2168:	af00      	add	r7, sp, #0
2ffc216a:	6078      	str	r0, [r7, #4]
2ffc216c:	687b      	ldr	r3, [r7, #4]
2ffc216e:	f44f 127c 	mov.w	r2, #4128768	@ 0x3f0000
2ffc2172:	2110      	movs	r1, #16
2ffc2174:	2084      	movs	r0, #132	@ 0x84
2ffc2176:	f2c5 0000 	movt	r0, #20480	@ 0x5000
2ffc217a:	f7fe ff5b 	bl	2ffc1034 <_ZN8mdrivlib9ReadWrite5writeEPVmmmm>
2ffc217e:	bf00      	nop
2ffc2180:	3708      	adds	r7, #8
2ffc2182:	46bd      	mov	sp, r7
2ffc2184:	bd80      	pop	{r7, pc}

2ffc2186 <_ZN8mdrivlib12RegisterBitsINS_9ReadWriteELm1342177412ELm511EE5writeEm>:
2ffc2186:	b580      	push	{r7, lr}
2ffc2188:	b082      	sub	sp, #8
2ffc218a:	af00      	add	r7, sp, #0
2ffc218c:	6078      	str	r0, [r7, #4]
2ffc218e:	687b      	ldr	r3, [r7, #4]
2ffc2190:	f240 12ff 	movw	r2, #511	@ 0x1ff
2ffc2194:	2100      	movs	r1, #0
2ffc2196:	2084      	movs	r0, #132	@ 0x84
2ffc2198:	f2c5 0000 	movt	r0, #20480	@ 0x5000
2ffc219c:	f7fe ff4a 	bl	2ffc1034 <_ZN8mdrivlib9ReadWrite5writeEPVmmmm>
2ffc21a0:	bf00      	nop
2ffc21a2:	3708      	adds	r7, #8
2ffc21a4:	46bd      	mov	sp, r7
2ffc21a6:	bd80      	pop	{r7, pc}

2ffc21a8 <_ZN8mdrivlib12RegisterBitsINS_9ReadWriteELm1342177416ELm127EE5writeEm>:
2ffc21a8:	b580      	push	{r7, lr}
2ffc21aa:	b082      	sub	sp, #8
2ffc21ac:	af00      	add	r7, sp, #0
2ffc21ae:	6078      	str	r0, [r7, #4]
2ffc21b0:	687b      	ldr	r3, [r7, #4]
2ffc21b2:	227f      	movs	r2, #127	@ 0x7f
2ffc21b4:	2100      	movs	r1, #0
2ffc21b6:	2088      	movs	r0, #136	@ 0x88
2ffc21b8:	f2c5 0000 	movt	r0, #20480	@ 0x5000
2ffc21bc:	f7fe ff3a 	bl	2ffc1034 <_ZN8mdrivlib9ReadWrite5writeEPVmmmm>
2ffc21c0:	bf00      	nop
2ffc21c2:	3708      	adds	r7, #8
2ffc21c4:	46bd      	mov	sp, r7
2ffc21c6:	bd80      	pop	{r7, pc}

2ffc21c8 <_ZN8mdrivlib12RegisterBitsINS_9ReadWriteELm1342177416ELm32512EE5writeEm>:
2ffc21c8:	b580      	push	{r7, lr}
2ffc21ca:	b082      	sub	sp, #8
2ffc21cc:	af00      	add	r7, sp, #0
2ffc21ce:	6078      	str	r0, [r7, #4]
2ffc21d0:	687b      	ldr	r3, [r7, #4]
2ffc21d2:	f44f 42fe 	mov.w	r2, #32512	@ 0x7f00
2ffc21d6:	2108      	movs	r1, #8
2ffc21d8:	2088      	movs	r0, #136	@ 0x88
2ffc21da:	f2c5 0000 	movt	r0, #20480	@ 0x5000
2ffc21de:	f7fe ff29 	bl	2ffc1034 <_ZN8mdrivlib9ReadWrite5writeEPVmmmm>
2ffc21e2:	bf00      	nop
2ffc21e4:	3708      	adds	r7, #8
2ffc21e6:	46bd      	mov	sp, r7
2ffc21e8:	bd80      	pop	{r7, pc}

2ffc21ea <_ZN8mdrivlib12RegisterBitsINS_9ReadWriteELm1342177416ELm8323072EE5writeEm>:
2ffc21ea:	b580      	push	{r7, lr}
2ffc21ec:	b082      	sub	sp, #8
2ffc21ee:	af00      	add	r7, sp, #0
2ffc21f0:	6078      	str	r0, [r7, #4]
2ffc21f2:	687b      	ldr	r3, [r7, #4]
2ffc21f4:	f44f 02fe 	mov.w	r2, #8323072	@ 0x7f0000
2ffc21f8:	2110      	movs	r1, #16
2ffc21fa:	2088      	movs	r0, #136	@ 0x88
2ffc21fc:	f2c5 0000 	movt	r0, #20480	@ 0x5000
2ffc2200:	f7fe ff18 	bl	2ffc1034 <_ZN8mdrivlib9ReadWrite5writeEPVmmmm>
2ffc2204:	bf00      	nop
2ffc2206:	3708      	adds	r7, #8
2ffc2208:	46bd      	mov	sp, r7
2ffc220a:	bd80      	pop	{r7, pc}

2ffc220c <_ZN8mdrivlib12RegisterBitsINS_9ReadWriteELm1342177420ELm65536EE5clearEv>:
2ffc220c:	b580      	push	{r7, lr}
2ffc220e:	af00      	add	r7, sp, #0
2ffc2210:	f44f 3180 	mov.w	r1, #65536	@ 0x10000
2ffc2214:	208c      	movs	r0, #140	@ 0x8c
2ffc2216:	f2c5 0000 	movt	r0, #20480	@ 0x5000
2ffc221a:	f7fe ff36 	bl	2ffc108a <_ZN8mdrivlib9ReadWrite5clearEPVmm>
2ffc221e:	bf00      	nop
2ffc2220:	bd80      	pop	{r7, pc}

2ffc2222 <_ZN8mdrivlib12RegisterBitsINS_9ReadWriteELm1342177420ELm65528EE5writeEm>:
2ffc2222:	b580      	push	{r7, lr}
2ffc2224:	b082      	sub	sp, #8
2ffc2226:	af00      	add	r7, sp, #0
2ffc2228:	6078      	str	r0, [r7, #4]
2ffc222a:	687b      	ldr	r3, [r7, #4]
2ffc222c:	f64f 72f8 	movw	r2, #65528	@ 0xfff8
2ffc2230:	2103      	movs	r1, #3
2ffc2232:	208c      	movs	r0, #140	@ 0x8c
2ffc2234:	f2c5 0000 	movt	r0, #20480	@ 0x5000
2ffc2238:	f7fe fefc 	bl	2ffc1034 <_ZN8mdrivlib9ReadWrite5writeEPVmmmm>
2ffc223c:	bf00      	nop
2ffc223e:	3708      	adds	r7, #8
2ffc2240:	46bd      	mov	sp, r7
2ffc2242:	bd80      	pop	{r7, pc}

2ffc2244 <_ZN8mdrivlib12RegisterBitsINS_9ReadWriteELm1342177420ELm65536EE3setEv>:
2ffc2244:	b580      	push	{r7, lr}
2ffc2246:	af00      	add	r7, sp, #0
2ffc2248:	f44f 3180 	mov.w	r1, #65536	@ 0x10000
2ffc224c:	208c      	movs	r0, #140	@ 0x8c
2ffc224e:	f2c5 0000 	movt	r0, #20480	@ 0x5000
2ffc2252:	f7fe ff09 	bl	2ffc1068 <_ZN8mdrivlib9ReadWrite3setEPVmm>
2ffc2256:	bf00      	nop
2ffc2258:	bd80      	pop	{r7, pc}

2ffc225a <_ZN8mdrivlib12RegisterBitsINS_9ReadWriteELm1342177408ELm4EE5clearEv>:
2ffc225a:	b580      	push	{r7, lr}
2ffc225c:	af00      	add	r7, sp, #0
2ffc225e:	2104      	movs	r1, #4
2ffc2260:	2080      	movs	r0, #128	@ 0x80
2ffc2262:	f2c5 0000 	movt	r0, #20480	@ 0x5000
2ffc2266:	f7fe ff10 	bl	2ffc108a <_ZN8mdrivlib9ReadWrite5clearEPVmm>
2ffc226a:	bf00      	nop
2ffc226c:	bd80      	pop	{r7, pc}

2ffc226e <_ZN8mdrivlib12RegisterBitsINS_9ReadWriteELm1342177408ELm1EE3setEv>:
2ffc226e:	b580      	push	{r7, lr}
2ffc2270:	af00      	add	r7, sp, #0
2ffc2272:	2101      	movs	r1, #1
2ffc2274:	2080      	movs	r0, #128	@ 0x80
2ffc2276:	f2c5 0000 	movt	r0, #20480	@ 0x5000
2ffc227a:	f7fe fef5 	bl	2ffc1068 <_ZN8mdrivlib9ReadWrite3setEPVmm>
2ffc227e:	bf00      	nop
2ffc2280:	bd80      	pop	{r7, pc}

2ffc2282 <_ZN8mdrivlib12RegisterBitsINS_9ReadWriteELm1342177408ELm16EE3setEv>:
2ffc2282:	b580      	push	{r7, lr}
2ffc2284:	af00      	add	r7, sp, #0
2ffc2286:	2110      	movs	r1, #16
2ffc2288:	2080      	movs	r0, #128	@ 0x80
2ffc228a:	f2c5 0000 	movt	r0, #20480	@ 0x5000
2ffc228e:	f7fe feeb 	bl	2ffc1068 <_ZN8mdrivlib9ReadWrite3setEPVmm>
2ffc2292:	bf00      	nop
2ffc2294:	bd80      	pop	{r7, pc}

2ffc2296 <_ZN8mdrivlib12RegisterBitsINS_9ReadWriteELm1342177408ELm32EE3setEv>:
2ffc2296:	b580      	push	{r7, lr}
2ffc2298:	af00      	add	r7, sp, #0
2ffc229a:	2120      	movs	r1, #32
2ffc229c:	2080      	movs	r0, #128	@ 0x80
2ffc229e:	f2c5 0000 	movt	r0, #20480	@ 0x5000
2ffc22a2:	f7fe fee1 	bl	2ffc1068 <_ZN8mdrivlib9ReadWrite3setEPVmm>
2ffc22a6:	bf00      	nop
2ffc22a8:	bd80      	pop	{r7, pc}

2ffc22aa <_ZN8mdrivlib12RegisterBitsINS_9ReadWriteELm1342177408ELm64EE3setEv>:
2ffc22aa:	b580      	push	{r7, lr}
2ffc22ac:	af00      	add	r7, sp, #0
2ffc22ae:	2140      	movs	r1, #64	@ 0x40
2ffc22b0:	2080      	movs	r0, #128	@ 0x80
2ffc22b2:	f2c5 0000 	movt	r0, #20480	@ 0x5000
2ffc22b6:	f7fe fed7 	bl	2ffc1068 <_ZN8mdrivlib9ReadWrite3setEPVmm>
2ffc22ba:	bf00      	nop
2ffc22bc:	bd80      	pop	{r7, pc}

2ffc22be <_ZN8mdrivlib12RegisterBitsINS_9ReadWriteELm1342177428ELm16EE5clearEv>:
2ffc22be:	b580      	push	{r7, lr}
2ffc22c0:	af00      	add	r7, sp, #0
2ffc22c2:	2110      	movs	r1, #16
2ffc22c4:	2094      	movs	r0, #148	@ 0x94
2ffc22c6:	f2c5 0000 	movt	r0, #20480	@ 0x5000
2ffc22ca:	f7fe fede 	bl	2ffc108a <_ZN8mdrivlib9ReadWrite5clearEPVmm>
2ffc22ce:	bf00      	nop
2ffc22d0:	bd80      	pop	{r7, pc}

2ffc22d2 <_ZN8mdrivlib12RegisterBitsINS_9ReadWriteELm1342177428ELm32EE5clearEv>:
2ffc22d2:	b580      	push	{r7, lr}
2ffc22d4:	af00      	add	r7, sp, #0
2ffc22d6:	2120      	movs	r1, #32
2ffc22d8:	2094      	movs	r0, #148	@ 0x94
2ffc22da:	f2c5 0000 	movt	r0, #20480	@ 0x5000
2ffc22de:	f7fe fed4 	bl	2ffc108a <_ZN8mdrivlib9ReadWrite5clearEPVmm>
2ffc22e2:	bf00      	nop
2ffc22e4:	bd80      	pop	{r7, pc}

2ffc22e6 <_ZN8mdrivlib12RegisterBitsINS_9ReadWriteELm1342177428ELm64EE5clearEv>:
2ffc22e6:	b580      	push	{r7, lr}
2ffc22e8:	af00      	add	r7, sp, #0
2ffc22ea:	2140      	movs	r1, #64	@ 0x40
2ffc22ec:	2094      	movs	r0, #148	@ 0x94
2ffc22ee:	f2c5 0000 	movt	r0, #20480	@ 0x5000
2ffc22f2:	f7fe feca 	bl	2ffc108a <_ZN8mdrivlib9ReadWrite5clearEPVmm>
2ffc22f6:	bf00      	nop
2ffc22f8:	bd80      	pop	{r7, pc}

2ffc22fa <_ZN8mdrivlib12RegisterBitsINS_9ReadWriteELm1342177428ELm1EE5clearEv>:
2ffc22fa:	b580      	push	{r7, lr}
2ffc22fc:	af00      	add	r7, sp, #0
2ffc22fe:	2101      	movs	r1, #1
2ffc2300:	2094      	movs	r0, #148	@ 0x94
2ffc2302:	f2c5 0000 	movt	r0, #20480	@ 0x5000
2ffc2306:	f7fe fec0 	bl	2ffc108a <_ZN8mdrivlib9ReadWrite5clearEPVmm>
2ffc230a:	bf00      	nop
2ffc230c:	bd80      	pop	{r7, pc}

2ffc230e <_ZN8mdrivlib12RegisterBitsINS_8ReadOnlyELm1342177428ELm2EE4readEv>:
2ffc230e:	b580      	push	{r7, lr}
2ffc2310:	af00      	add	r7, sp, #0
2ffc2312:	2202      	movs	r2, #2
2ffc2314:	2101      	movs	r1, #1
2ffc2316:	2094      	movs	r0, #148	@ 0x94
2ffc2318:	f2c5 0000 	movt	r0, #20480	@ 0x5000
2ffc231c:	f7fe fe69 	bl	2ffc0ff2 <_ZN8mdrivlib8ReadOnly4readEPVmmm>
2ffc2320:	4603      	mov	r3, r0
2ffc2322:	4618      	mov	r0, r3
2ffc2324:	bd80      	pop	{r7, pc}

2ffc2326 <_ZN8mdrivlib12RegisterBitsINS_9ReadWriteELm1342177432ELm4128768EE5writeEm>:
2ffc2326:	b580      	push	{r7, lr}
2ffc2328:	b082      	sub	sp, #8
2ffc232a:	af00      	add	r7, sp, #0
2ffc232c:	6078      	str	r0, [r7, #4]
2ffc232e:	687b      	ldr	r3, [r7, #4]
2ffc2330:	f44f 127c 	mov.w	r2, #4128768	@ 0x3f0000
2ffc2334:	2110      	movs	r1, #16
2ffc2336:	2098      	movs	r0, #152	@ 0x98
2ffc2338:	f2c5 0000 	movt	r0, #20480	@ 0x5000
2ffc233c:	f7fe fe7a 	bl	2ffc1034 <_ZN8mdrivlib9ReadWrite5writeEPVmmmm>
2ffc2340:	bf00      	nop
2ffc2342:	3708      	adds	r7, #8
2ffc2344:	46bd      	mov	sp, r7
2ffc2346:	bd80      	pop	{r7, pc}

2ffc2348 <_ZN8mdrivlib12RegisterBitsINS_9ReadWriteELm1342177432ELm511EE5writeEm>:
2ffc2348:	b580      	push	{r7, lr}
2ffc234a:	b082      	sub	sp, #8
2ffc234c:	af00      	add	r7, sp, #0
2ffc234e:	6078      	str	r0, [r7, #4]
2ffc2350:	687b      	ldr	r3, [r7, #4]
2ffc2352:	f240 12ff 	movw	r2, #511	@ 0x1ff
2ffc2356:	2100      	movs	r1, #0
2ffc2358:	2098      	movs	r0, #152	@ 0x98
2ffc235a:	f2c5 0000 	movt	r0, #20480	@ 0x5000
2ffc235e:	f7fe fe69 	bl	2ffc1034 <_ZN8mdrivlib9ReadWrite5writeEPVmmmm>
2ffc2362:	bf00      	nop
2ffc2364:	3708      	adds	r7, #8
2ffc2366:	46bd      	mov	sp, r7
2ffc2368:	bd80      	pop	{r7, pc}

2ffc236a <_ZN8mdrivlib12RegisterBitsINS_9ReadWriteELm1342177436ELm127EE5writeEm>:
2ffc236a:	b580      	push	{r7, lr}
2ffc236c:	b082      	sub	sp, #8
2ffc236e:	af00      	add	r7, sp, #0
2ffc2370:	6078      	str	r0, [r7, #4]
2ffc2372:	687b      	ldr	r3, [r7, #4]
2ffc2374:	227f      	movs	r2, #127	@ 0x7f
2ffc2376:	2100      	movs	r1, #0
2ffc2378:	209c      	movs	r0, #156	@ 0x9c
2ffc237a:	f2c5 0000 	movt	r0, #20480	@ 0x5000
2ffc237e:	f7fe fe59 	bl	2ffc1034 <_ZN8mdrivlib9ReadWrite5writeEPVmmmm>
2ffc2382:	bf00      	nop
2ffc2384:	3708      	adds	r7, #8
2ffc2386:	46bd      	mov	sp, r7
2ffc2388:	bd80      	pop	{r7, pc}

2ffc238a <_ZN8mdrivlib12RegisterBitsINS_9ReadWriteELm1342177436ELm32512EE5writeEm>:
2ffc238a:	b580      	push	{r7, lr}
2ffc238c:	b082      	sub	sp, #8
2ffc238e:	af00      	add	r7, sp, #0
2ffc2390:	6078      	str	r0, [r7, #4]
2ffc2392:	687b      	ldr	r3, [r7, #4]
2ffc2394:	f44f 42fe 	mov.w	r2, #32512	@ 0x7f00
2ffc2398:	2108      	movs	r1, #8
2ffc239a:	209c      	movs	r0, #156	@ 0x9c
2ffc239c:	f2c5 0000 	movt	r0, #20480	@ 0x5000
2ffc23a0:	f7fe fe48 	bl	2ffc1034 <_ZN8mdrivlib9ReadWrite5writeEPVmmmm>
2ffc23a4:	bf00      	nop
2ffc23a6:	3708      	adds	r7, #8
2ffc23a8:	46bd      	mov	sp, r7
2ffc23aa:	bd80      	pop	{r7, pc}

2ffc23ac <_ZN8mdrivlib12RegisterBitsINS_9ReadWriteELm1342177436ELm8323072EE5writeEm>:
2ffc23ac:	b580      	push	{r7, lr}
2ffc23ae:	b082      	sub	sp, #8
2ffc23b0:	af00      	add	r7, sp, #0
2ffc23b2:	6078      	str	r0, [r7, #4]
2ffc23b4:	687b      	ldr	r3, [r7, #4]
2ffc23b6:	f44f 02fe 	mov.w	r2, #8323072	@ 0x7f0000
2ffc23ba:	2110      	movs	r1, #16
2ffc23bc:	209c      	movs	r0, #156	@ 0x9c
2ffc23be:	f2c5 0000 	movt	r0, #20480	@ 0x5000
2ffc23c2:	f7fe fe37 	bl	2ffc1034 <_ZN8mdrivlib9ReadWrite5writeEPVmmmm>
2ffc23c6:	bf00      	nop
2ffc23c8:	3708      	adds	r7, #8
2ffc23ca:	46bd      	mov	sp, r7
2ffc23cc:	bd80      	pop	{r7, pc}

2ffc23ce <_ZN8mdrivlib12RegisterBitsINS_9ReadWriteELm1342177440ELm65536EE5clearEv>:
2ffc23ce:	b580      	push	{r7, lr}
2ffc23d0:	af00      	add	r7, sp, #0
2ffc23d2:	f44f 3180 	mov.w	r1, #65536	@ 0x10000
2ffc23d6:	20a0      	movs	r0, #160	@ 0xa0
2ffc23d8:	f2c5 0000 	movt	r0, #20480	@ 0x5000
2ffc23dc:	f7fe fe55 	bl	2ffc108a <_ZN8mdrivlib9ReadWrite5clearEPVmm>
2ffc23e0:	bf00      	nop
2ffc23e2:	bd80      	pop	{r7, pc}

2ffc23e4 <_ZN8mdrivlib12RegisterBitsINS_9ReadWriteELm1342177440ELm65528EE5writeEm>:
2ffc23e4:	b580      	push	{r7, lr}
2ffc23e6:	b082      	sub	sp, #8
2ffc23e8:	af00      	add	r7, sp, #0
2ffc23ea:	6078      	str	r0, [r7, #4]
2ffc23ec:	687b      	ldr	r3, [r7, #4]
2ffc23ee:	f64f 72f8 	movw	r2, #65528	@ 0xfff8
2ffc23f2:	2103      	movs	r1, #3
2ffc23f4:	20a0      	movs	r0, #160	@ 0xa0
2ffc23f6:	f2c5 0000 	movt	r0, #20480	@ 0x5000
2ffc23fa:	f7fe fe1b 	bl	2ffc1034 <_ZN8mdrivlib9ReadWrite5writeEPVmmmm>
2ffc23fe:	bf00      	nop
2ffc2400:	3708      	adds	r7, #8
2ffc2402:	46bd      	mov	sp, r7
2ffc2404:	bd80      	pop	{r7, pc}

2ffc2406 <_ZN8mdrivlib12RegisterBitsINS_9ReadWriteELm1342177440ELm65536EE3setEv>:
2ffc2406:	b580      	push	{r7, lr}
2ffc2408:	af00      	add	r7, sp, #0
2ffc240a:	f44f 3180 	mov.w	r1, #65536	@ 0x10000
2ffc240e:	20a0      	movs	r0, #160	@ 0xa0
2ffc2410:	f2c5 0000 	movt	r0, #20480	@ 0x5000
2ffc2414:	f7fe fe28 	bl	2ffc1068 <_ZN8mdrivlib9ReadWrite3setEPVmm>
2ffc2418:	bf00      	nop
2ffc241a:	bd80      	pop	{r7, pc}

2ffc241c <_ZN8mdrivlib12RegisterBitsINS_9ReadWriteELm1342177428ELm4EE5clearEv>:
2ffc241c:	b580      	push	{r7, lr}
2ffc241e:	af00      	add	r7, sp, #0
2ffc2420:	2104      	movs	r1, #4
2ffc2422:	2094      	movs	r0, #148	@ 0x94
2ffc2424:	f2c5 0000 	movt	r0, #20480	@ 0x5000
2ffc2428:	f7fe fe2f 	bl	2ffc108a <_ZN8mdrivlib9ReadWrite5clearEPVmm>
2ffc242c:	bf00      	nop
2ffc242e:	bd80      	pop	{r7, pc}

2ffc2430 <_ZN8mdrivlib12RegisterBitsINS_9ReadWriteELm1342177428ELm1EE3setEv>:
2ffc2430:	b580      	push	{r7, lr}
2ffc2432:	af00      	add	r7, sp, #0
2ffc2434:	2101      	movs	r1, #1
2ffc2436:	2094      	movs	r0, #148	@ 0x94
2ffc2438:	f2c5 0000 	movt	r0, #20480	@ 0x5000
2ffc243c:	f7fe fe14 	bl	2ffc1068 <_ZN8mdrivlib9ReadWrite3setEPVmm>
2ffc2440:	bf00      	nop
2ffc2442:	bd80      	pop	{r7, pc}

2ffc2444 <_ZN8mdrivlib12RegisterBitsINS_9ReadWriteELm1342177428ELm16EE3setEv>:
2ffc2444:	b580      	push	{r7, lr}
2ffc2446:	af00      	add	r7, sp, #0
2ffc2448:	2110      	movs	r1, #16
2ffc244a:	2094      	movs	r0, #148	@ 0x94
2ffc244c:	f2c5 0000 	movt	r0, #20480	@ 0x5000
2ffc2450:	f7fe fe0a 	bl	2ffc1068 <_ZN8mdrivlib9ReadWrite3setEPVmm>
2ffc2454:	bf00      	nop
2ffc2456:	bd80      	pop	{r7, pc}

2ffc2458 <_ZN8mdrivlib12RegisterBitsINS_9ReadWriteELm1342177428ELm32EE3setEv>:
2ffc2458:	b580      	push	{r7, lr}
2ffc245a:	af00      	add	r7, sp, #0
2ffc245c:	2120      	movs	r1, #32
2ffc245e:	2094      	movs	r0, #148	@ 0x94
2ffc2460:	f2c5 0000 	movt	r0, #20480	@ 0x5000
2ffc2464:	f7fe fe00 	bl	2ffc1068 <_ZN8mdrivlib9ReadWrite3setEPVmm>
2ffc2468:	bf00      	nop
2ffc246a:	bd80      	pop	{r7, pc}

2ffc246c <_ZN8mdrivlib12RegisterBitsINS_9ReadWriteELm1342177428ELm64EE3setEv>:
2ffc246c:	b580      	push	{r7, lr}
2ffc246e:	af00      	add	r7, sp, #0
2ffc2470:	2140      	movs	r1, #64	@ 0x40
2ffc2472:	2094      	movs	r0, #148	@ 0x94
2ffc2474:	f2c5 0000 	movt	r0, #20480	@ 0x5000
2ffc2478:	f7fe fdf6 	bl	2ffc1068 <_ZN8mdrivlib9ReadWrite3setEPVmm>
2ffc247c:	bf00      	nop
2ffc247e:	bd80      	pop	{r7, pc}

2ffc2480 <_ZN8mdrivlib12RegisterBitsINS_8ReadOnlyELm1342177312ELm2147483648EE4readEv>:
2ffc2480:	b580      	push	{r7, lr}
2ffc2482:	af00      	add	r7, sp, #0
2ffc2484:	f04f 4200 	mov.w	r2, #2147483648	@ 0x80000000
2ffc2488:	211f      	movs	r1, #31
2ffc248a:	2020      	movs	r0, #32
2ffc248c:	f2c5 0000 	movt	r0, #20480	@ 0x5000
2ffc2490:	f7fe fdaf 	bl	2ffc0ff2 <_ZN8mdrivlib8ReadOnly4readEPVmmm>
2ffc2494:	4603      	mov	r3, r0
2ffc2496:	4618      	mov	r0, r3
2ffc2498:	bd80      	pop	{r7, pc}

2ffc249a <_ZN8mdrivlib12RegisterBitsINS_9ReadWriteELm1342177328ELm7EE5writeEm>:
2ffc249a:	b580      	push	{r7, lr}
2ffc249c:	b082      	sub	sp, #8
2ffc249e:	af00      	add	r7, sp, #0
2ffc24a0:	6078      	str	r0, [r7, #4]
2ffc24a2:	687b      	ldr	r3, [r7, #4]
2ffc24a4:	2207      	movs	r2, #7
2ffc24a6:	2100      	movs	r1, #0
2ffc24a8:	2030      	movs	r0, #48	@ 0x30
2ffc24aa:	f2c5 0000 	movt	r0, #20480	@ 0x5000
2ffc24ae:	f7fe fdc1 	bl	2ffc1034 <_ZN8mdrivlib9ReadWrite5writeEPVmmmm>
2ffc24b2:	bf00      	nop
2ffc24b4:	3708      	adds	r7, #8
2ffc24b6:	46bd      	mov	sp, r7
2ffc24b8:	bd80      	pop	{r7, pc}

2ffc24ba <_ZN8mdrivlib12RegisterBitsINS_8ReadOnlyELm1342177328ELm2147483648EE4readEv>:
2ffc24ba:	b580      	push	{r7, lr}
2ffc24bc:	af00      	add	r7, sp, #0
2ffc24be:	f04f 4200 	mov.w	r2, #2147483648	@ 0x80000000
2ffc24c2:	211f      	movs	r1, #31
2ffc24c4:	2030      	movs	r0, #48	@ 0x30
2ffc24c6:	f2c5 0000 	movt	r0, #20480	@ 0x5000
2ffc24ca:	f7fe fd92 	bl	2ffc0ff2 <_ZN8mdrivlib8ReadOnly4readEPVmmm>
2ffc24ce:	4603      	mov	r3, r0
2ffc24d0:	4618      	mov	r0, r3
2ffc24d2:	bd80      	pop	{r7, pc}

2ffc24d4 <_ZN8mdrivlib12RegisterBitsINS_9ReadWriteELm1342179840ELm2097152EE3setEv>:
2ffc24d4:	b580      	push	{r7, lr}
2ffc24d6:	af00      	add	r7, sp, #0
2ffc24d8:	f44f 1100 	mov.w	r1, #2097152	@ 0x200000
2ffc24dc:	f44f 6020 	mov.w	r0, #2560	@ 0xa00
2ffc24e0:	f2c5 0000 	movt	r0, #20480	@ 0x5000
2ffc24e4:	f7fe fdc0 	bl	2ffc1068 <_ZN8mdrivlib9ReadWrite3setEPVmm>
2ffc24e8:	bf00      	nop
2ffc24ea:	bd80      	pop	{r7, pc}

2ffc24ec <_ZN8mdrivlib12RegisterBitsINS_9ReadWriteELm1342179840ELm4194304EE3setEv>:
2ffc24ec:	b580      	push	{r7, lr}
2ffc24ee:	af00      	add	r7, sp, #0
2ffc24f0:	f44f 0180 	mov.w	r1, #4194304	@ 0x400000
2ffc24f4:	f44f 6020 	mov.w	r0, #2560	@ 0xa00
2ffc24f8:	f2c5 0000 	movt	r0, #20480	@ 0x5000
2ffc24fc:	f7fe fdb4 	bl	2ffc1068 <_ZN8mdrivlib9ReadWrite3setEPVmm>
2ffc2500:	bf00      	nop
2ffc2502:	bd80      	pop	{r7, pc}

2ffc2504 <_ZN8mdrivlib12RegisterBitsINS_9ReadWriteELm1342179840ELm8388608EE3setEv>:
2ffc2504:	b580      	push	{r7, lr}
2ffc2506:	af00      	add	r7, sp, #0
2ffc2508:	f44f 0100 	mov.w	r1, #8388608	@ 0x800000
2ffc250c:	f44f 6020 	mov.w	r0, #2560	@ 0xa00
2ffc2510:	f2c5 0000 	movt	r0, #20480	@ 0x5000
2ffc2514:	f7fe fda8 	bl	2ffc1068 <_ZN8mdrivlib9ReadWrite3setEPVmm>
2ffc2518:	bf00      	nop
2ffc251a:	bd80      	pop	{r7, pc}

2ffc251c <_ZN8mdrivlib12RegisterBitsINS_9ReadWriteELm1342177800ELm4EE3setEv>:
2ffc251c:	b580      	push	{r7, lr}
2ffc251e:	af00      	add	r7, sp, #0
2ffc2520:	2104      	movs	r1, #4
2ffc2522:	f44f 7002 	mov.w	r0, #520	@ 0x208
2ffc2526:	f2c5 0000 	movt	r0, #20480	@ 0x5000
2ffc252a:	f7fe fd9d 	bl	2ffc1068 <_ZN8mdrivlib9ReadWrite3setEPVmm>
2ffc252e:	bf00      	nop
2ffc2530:	bd80      	pop	{r7, pc}

2ffc2532 <_ZN8mdrivlib12RegisterBitsINS_9ReadWriteELm1342179840ELm16777216EE3setEv>:
2ffc2532:	b580      	push	{r7, lr}
2ffc2534:	af00      	add	r7, sp, #0
2ffc2536:	f04f 7180 	mov.w	r1, #16777216	@ 0x1000000
2ffc253a:	f44f 6020 	mov.w	r0, #2560	@ 0xa00
2ffc253e:	f2c5 0000 	movt	r0, #20480	@ 0x5000
2ffc2542:	f7fe fd91 	bl	2ffc1068 <_ZN8mdrivlib9ReadWrite3setEPVmm>
2ffc2546:	bf00      	nop
2ffc2548:	bd80      	pop	{r7, pc}

2ffc254a <_ZN8mdrivlib12RegisterBitsINS_9ReadWriteELm1342177800ELm8EE3setEv>:
2ffc254a:	b580      	push	{r7, lr}
2ffc254c:	af00      	add	r7, sp, #0
2ffc254e:	2108      	movs	r1, #8
2ffc2550:	f44f 7002 	mov.w	r0, #520	@ 0x208
2ffc2554:	f2c5 0000 	movt	r0, #20480	@ 0x5000
2ffc2558:	f7fe fd86 	bl	2ffc1068 <_ZN8mdrivlib9ReadWrite3setEPVmm>
2ffc255c:	bf00      	nop
2ffc255e:	bd80      	pop	{r7, pc}

2ffc2560 <_ZNSt4spanIhLj4294967295EEC1ILj1EEERAT__h>:
2ffc2560:	b580      	push	{r7, lr}
2ffc2562:	b082      	sub	sp, #8
2ffc2564:	af00      	add	r7, sp, #0
2ffc2566:	6078      	str	r0, [r7, #4]
2ffc2568:	6039      	str	r1, [r7, #0]
2ffc256a:	2201      	movs	r2, #1
2ffc256c:	6839      	ldr	r1, [r7, #0]
2ffc256e:	6878      	ldr	r0, [r7, #4]
2ffc2570:	f000 f987 	bl	2ffc2882 <_ZNSt4spanIhLj4294967295EEC1IPhEET_j>
2ffc2574:	687b      	ldr	r3, [r7, #4]
2ffc2576:	4618      	mov	r0, r3
2ffc2578:	3708      	adds	r7, #8
2ffc257a:	46bd      	mov	sp, r7
2ffc257c:	bd80      	pop	{r7, pc}

2ffc257e <_ZNSt8optionalIhEC1IRhLb1EEEOT_>:
2ffc257e:	b5b0      	push	{r4, r5, r7, lr}
2ffc2580:	b082      	sub	sp, #8
2ffc2582:	af00      	add	r7, sp, #0
2ffc2584:	6078      	str	r0, [r7, #4]
2ffc2586:	6039      	str	r1, [r7, #0]
2ffc2588:	687c      	ldr	r4, [r7, #4]
2ffc258a:	6838      	ldr	r0, [r7, #0]
2ffc258c:	f000 f990 	bl	2ffc28b0 <_ZSt7forwardIRhEOT_RNSt16remove_referenceIS1_E4typeE>
2ffc2590:	4603      	mov	r3, r0
2ffc2592:	461a      	mov	r2, r3
2ffc2594:	4629      	mov	r1, r5
2ffc2596:	4620      	mov	r0, r4
2ffc2598:	f000 f9a6 	bl	2ffc28e8 <_ZNSt14_Optional_baseIhLb1ELb1EEC1IJRhELb0EEESt10in_place_tDpOT_>
2ffc259c:	687b      	ldr	r3, [r7, #4]
2ffc259e:	4618      	mov	r0, r3
2ffc25a0:	3708      	adds	r7, #8
2ffc25a2:	46bd      	mov	sp, r7
2ffc25a4:	bdb0      	pop	{r4, r5, r7, pc}

2ffc25a6 <_ZNSt22_Optional_payload_baseIhEC1Ev>:
2ffc25a6:	b580      	push	{r7, lr}
2ffc25a8:	b082      	sub	sp, #8
2ffc25aa:	af00      	add	r7, sp, #0
2ffc25ac:	6078      	str	r0, [r7, #4]
2ffc25ae:	687b      	ldr	r3, [r7, #4]
2ffc25b0:	4618      	mov	r0, r3
2ffc25b2:	f000 f9ae 	bl	2ffc2912 <_ZNSt22_Optional_payload_baseIhE8_StorageIhLb1EEC1Ev>
2ffc25b6:	687b      	ldr	r3, [r7, #4]
2ffc25b8:	2200      	movs	r2, #0
2ffc25ba:	705a      	strb	r2, [r3, #1]
2ffc25bc:	687b      	ldr	r3, [r7, #4]
2ffc25be:	4618      	mov	r0, r3
2ffc25c0:	3708      	adds	r7, #8
2ffc25c2:	46bd      	mov	sp, r7
2ffc25c4:	bd80      	pop	{r7, pc}

2ffc25c6 <_ZNSt17_Optional_payloadIhLb1ELb1ELb1EEC1Ev>:
2ffc25c6:	b580      	push	{r7, lr}
2ffc25c8:	b082      	sub	sp, #8
2ffc25ca:	af00      	add	r7, sp, #0
2ffc25cc:	6078      	str	r0, [r7, #4]
2ffc25ce:	687b      	ldr	r3, [r7, #4]
2ffc25d0:	4618      	mov	r0, r3
2ffc25d2:	f7ff ffe8 	bl	2ffc25a6 <_ZNSt22_Optional_payload_baseIhEC1Ev>
2ffc25d6:	687b      	ldr	r3, [r7, #4]
2ffc25d8:	4618      	mov	r0, r3
2ffc25da:	3708      	adds	r7, #8
2ffc25dc:	46bd      	mov	sp, r7
2ffc25de:	bd80      	pop	{r7, pc}

2ffc25e0 <_ZNSt14_Optional_baseIhLb1ELb1EEC1Ev>:
2ffc25e0:	b580      	push	{r7, lr}
2ffc25e2:	b082      	sub	sp, #8
2ffc25e4:	af00      	add	r7, sp, #0
2ffc25e6:	6078      	str	r0, [r7, #4]
2ffc25e8:	687b      	ldr	r3, [r7, #4]
2ffc25ea:	4618      	mov	r0, r3
2ffc25ec:	f7ff ffeb 	bl	2ffc25c6 <_ZNSt17_Optional_payloadIhLb1ELb1ELb1EEC1Ev>
2ffc25f0:	687b      	ldr	r3, [r7, #4]
2ffc25f2:	4618      	mov	r0, r3
2ffc25f4:	3708      	adds	r7, #8
2ffc25f6:	46bd      	mov	sp, r7
2ffc25f8:	bd80      	pop	{r7, pc}

2ffc25fa <_ZNSt8optionalIhEC1ESt9nullopt_t>:
2ffc25fa:	b580      	push	{r7, lr}
2ffc25fc:	b082      	sub	sp, #8
2ffc25fe:	af00      	add	r7, sp, #0
2ffc2600:	6078      	str	r0, [r7, #4]
2ffc2602:	7039      	strb	r1, [r7, #0]
2ffc2604:	687b      	ldr	r3, [r7, #4]
2ffc2606:	4618      	mov	r0, r3
2ffc2608:	f7ff ffea 	bl	2ffc25e0 <_ZNSt14_Optional_baseIhLb1ELb1EEC1Ev>
2ffc260c:	687b      	ldr	r3, [r7, #4]
2ffc260e:	4618      	mov	r0, r3
2ffc2610:	3708      	adds	r7, #8
2ffc2612:	46bd      	mov	sp, r7
2ffc2614:	bd80      	pop	{r7, pc}

2ffc2616 <_ZN9__gnu_cxx17__normal_iteratorIPhSt4spanIhLj4294967295EEEppEi>:
2ffc2616:	b580      	push	{r7, lr}
2ffc2618:	b084      	sub	sp, #16
2ffc261a:	af00      	add	r7, sp, #0
2ffc261c:	6078      	str	r0, [r7, #4]
2ffc261e:	6039      	str	r1, [r7, #0]
2ffc2620:	687b      	ldr	r3, [r7, #4]
2ffc2622:	681b      	ldr	r3, [r3, #0]
2ffc2624:	1c59      	adds	r1, r3, #1
2ffc2626:	687a      	ldr	r2, [r7, #4]
2ffc2628:	6011      	str	r1, [r2, #0]
2ffc262a:	60fb      	str	r3, [r7, #12]
2ffc262c:	f107 020c 	add.w	r2, r7, #12
2ffc2630:	f107 0308 	add.w	r3, r7, #8
2ffc2634:	4611      	mov	r1, r2
2ffc2636:	4618      	mov	r0, r3
2ffc2638:	f7ff f9b6 	bl	2ffc19a8 <_ZN9__gnu_cxx17__normal_iteratorIPhSt4spanIhLj4294967295EEEC1ERKS1_>
2ffc263c:	68bb      	ldr	r3, [r7, #8]
2ffc263e:	4618      	mov	r0, r3
2ffc2640:	3710      	adds	r7, #16
2ffc2642:	46bd      	mov	sp, r7
2ffc2644:	bd80      	pop	{r7, pc}

2ffc2646 <_ZNK9__gnu_cxx17__normal_iteratorIPhSt4spanIhLj4294967295EEEdeEv>:
2ffc2646:	b480      	push	{r7}
2ffc2648:	b083      	sub	sp, #12
2ffc264a:	af00      	add	r7, sp, #0
2ffc264c:	6078      	str	r0, [r7, #4]
2ffc264e:	687b      	ldr	r3, [r7, #4]
2ffc2650:	681b      	ldr	r3, [r3, #0]
2ffc2652:	4618      	mov	r0, r3
2ffc2654:	370c      	adds	r7, #12
2ffc2656:	46bd      	mov	sp, r7
2ffc2658:	f85d 7b04 	ldr.w	r7, [sp], #4
2ffc265c:	4770      	bx	lr

2ffc265e <_Z5debugIJPKcN7STPMIC112RegisterMainES1_3HexS1_EEvDpT_>:
2ffc265e:	b480      	push	{r7}
2ffc2660:	b085      	sub	sp, #20
2ffc2662:	af00      	add	r7, sp, #0
2ffc2664:	60f8      	str	r0, [r7, #12]
2ffc2666:	607a      	str	r2, [r7, #4]
2ffc2668:	603b      	str	r3, [r7, #0]
2ffc266a:	460b      	mov	r3, r1
2ffc266c:	72fb      	strb	r3, [r7, #11]
2ffc266e:	bf00      	nop
2ffc2670:	3714      	adds	r7, #20
2ffc2672:	46bd      	mov	sp, r7
2ffc2674:	f85d 7b04 	ldr.w	r7, [sp], #4
2ffc2678:	4770      	bx	lr

2ffc267a <_ZNKSt8optionalIhEcvbEv>:
2ffc267a:	b580      	push	{r7, lr}
2ffc267c:	b082      	sub	sp, #8
2ffc267e:	af00      	add	r7, sp, #0
2ffc2680:	6078      	str	r0, [r7, #4]
2ffc2682:	6878      	ldr	r0, [r7, #4]
2ffc2684:	f7ff fbd9 	bl	2ffc1e3a <_ZNKSt19_Optional_base_implIhSt14_Optional_baseIhLb1ELb1EEE13_M_is_engagedEv>
2ffc2688:	4603      	mov	r3, r0
2ffc268a:	4618      	mov	r0, r3
2ffc268c:	3708      	adds	r7, #8
2ffc268e:	46bd      	mov	sp, r7
2ffc2690:	bd80      	pop	{r7, pc}

2ffc2692 <_Z6pr_errIJPKcEEvDpT_>:
2ffc2692:	b580      	push	{r7, lr}
2ffc2694:	b082      	sub	sp, #8
2ffc2696:	af00      	add	r7, sp, #0
2ffc2698:	6078      	str	r0, [r7, #4]
2ffc269a:	6878      	ldr	r0, [r7, #4]
2ffc269c:	f000 f877 	bl	2ffc278e <_Z5printIJPKcEEvDpT_>
2ffc26a0:	bf00      	nop
2ffc26a2:	3708      	adds	r7, #8
2ffc26a4:	46bd      	mov	sp, r7
2ffc26a6:	bd80      	pop	{r7, pc}

2ffc26a8 <_ZNSt19_Optional_base_implIhSt14_Optional_baseIhLb1ELb1EEE6_M_getEv>:
2ffc26a8:	b580      	push	{r7, lr}
2ffc26aa:	b082      	sub	sp, #8
2ffc26ac:	af00      	add	r7, sp, #0
2ffc26ae:	6078      	str	r0, [r7, #4]
2ffc26b0:	f7fe fc97 	bl	2ffc0fe2 <_ZSt23__is_constant_evaluatedv>
2ffc26b4:	4603      	mov	r3, r0
2ffc26b6:	2b00      	cmp	r3, #0
2ffc26b8:	d00a      	beq.n	2ffc26d0 <_ZNSt19_Optional_base_implIhSt14_Optional_baseIhLb1ELb1EEE6_M_getEv+0x28>
2ffc26ba:	6878      	ldr	r0, [r7, #4]
2ffc26bc:	f7ff fbbd 	bl	2ffc1e3a <_ZNKSt19_Optional_base_implIhSt14_Optional_baseIhLb1ELb1EEE13_M_is_engagedEv>
2ffc26c0:	4603      	mov	r3, r0
2ffc26c2:	f083 0301 	eor.w	r3, r3, #1
2ffc26c6:	b2db      	uxtb	r3, r3
2ffc26c8:	2b00      	cmp	r3, #0
2ffc26ca:	d001      	beq.n	2ffc26d0 <_ZNSt19_Optional_base_implIhSt14_Optional_baseIhLb1ELb1EEE6_M_getEv+0x28>
2ffc26cc:	2301      	movs	r3, #1
2ffc26ce:	e000      	b.n	2ffc26d2 <_ZNSt19_Optional_base_implIhSt14_Optional_baseIhLb1ELb1EEE6_M_getEv+0x2a>
2ffc26d0:	2300      	movs	r3, #0
2ffc26d2:	2b00      	cmp	r3, #0
2ffc26d4:	687b      	ldr	r3, [r7, #4]
2ffc26d6:	4618      	mov	r0, r3
2ffc26d8:	f000 f926 	bl	2ffc2928 <_ZNSt22_Optional_payload_baseIhE6_M_getEv>
2ffc26dc:	4603      	mov	r3, r0
2ffc26de:	4618      	mov	r0, r3
2ffc26e0:	3708      	adds	r7, #8
2ffc26e2:	46bd      	mov	sp, r7
2ffc26e4:	bd80      	pop	{r7, pc}

2ffc26e6 <_Z3logIJPKc3HexS1_EEvDpT_>:
2ffc26e6:	b480      	push	{r7}
2ffc26e8:	b085      	sub	sp, #20
2ffc26ea:	af00      	add	r7, sp, #0
2ffc26ec:	60f8      	str	r0, [r7, #12]
2ffc26ee:	60b9      	str	r1, [r7, #8]
2ffc26f0:	607a      	str	r2, [r7, #4]
2ffc26f2:	bf00      	nop
2ffc26f4:	3714      	adds	r7, #20
2ffc26f6:	46bd      	mov	sp, r7
2ffc26f8:	f85d 7b04 	ldr.w	r7, [sp], #4
2ffc26fc:	4770      	bx	lr

2ffc26fe <_ZN3LedIL4GPIO1342214144EL6PinNum128EL9LedActive1EEC1Ev>:
2ffc26fe:	b590      	push	{r4, r7, lr}
2ffc2700:	b089      	sub	sp, #36	@ 0x24
2ffc2702:	af02      	add	r7, sp, #8
2ffc2704:	6078      	str	r0, [r7, #4]
2ffc2706:	f249 130c 	movw	r3, #37132	@ 0x910c
2ffc270a:	f6c2 73fc 	movt	r3, #12284	@ 0x2ffc
2ffc270e:	f107 040c 	add.w	r4, r7, #12
2ffc2712:	e893 0007 	ldmia.w	r3, {r0, r1, r2}
2ffc2716:	e884 0007 	stmia.w	r4, {r0, r1, r2}
2ffc271a:	f107 000c 	add.w	r0, r7, #12
2ffc271e:	2300      	movs	r3, #0
2ffc2720:	9301      	str	r3, [sp, #4]
2ffc2722:	2302      	movs	r3, #2
2ffc2724:	9300      	str	r3, [sp, #0]
2ffc2726:	2300      	movs	r3, #0
2ffc2728:	2200      	movs	r2, #0
2ffc272a:	2101      	movs	r1, #1
2ffc272c:	f7fe ff58 	bl	2ffc15e0 <_ZNK7PinConf4initE7PinMode7PinPull11PinPolarity8PinSpeed8PinOType>
2ffc2730:	687b      	ldr	r3, [r7, #4]
2ffc2732:	4618      	mov	r0, r3
2ffc2734:	371c      	adds	r7, #28
2ffc2736:	46bd      	mov	sp, r7
2ffc2738:	bd90      	pop	{r4, r7, pc}

2ffc273a <_ZN4UartILm1073807360EEC1E7PinConfS1_m>:
2ffc273a:	b580      	push	{r7, lr}
2ffc273c:	b086      	sub	sp, #24
2ffc273e:	af02      	add	r7, sp, #8
2ffc2740:	60f8      	str	r0, [r7, #12]
2ffc2742:	4638      	mov	r0, r7
2ffc2744:	e880 000e 	stmia.w	r0, {r1, r2, r3}
2ffc2748:	68fa      	ldr	r2, [r7, #12]
2ffc274a:	2300      	movs	r3, #0
2ffc274c:	f2c4 0301 	movt	r3, #16385	@ 0x4001
2ffc2750:	6013      	str	r3, [r2, #0]
2ffc2752:	4638      	mov	r0, r7
2ffc2754:	2300      	movs	r3, #0
2ffc2756:	9301      	str	r3, [sp, #4]
2ffc2758:	2302      	movs	r3, #2
2ffc275a:	9300      	str	r3, [sp, #0]
2ffc275c:	2300      	movs	r3, #0
2ffc275e:	2200      	movs	r2, #0
2ffc2760:	2102      	movs	r1, #2
2ffc2762:	f7fe ff3d 	bl	2ffc15e0 <_ZNK7PinConf4initE7PinMode7PinPull11PinPolarity8PinSpeed8PinOType>
2ffc2766:	2300      	movs	r3, #0
2ffc2768:	9301      	str	r3, [sp, #4]
2ffc276a:	2302      	movs	r3, #2
2ffc276c:	9300      	str	r3, [sp, #0]
2ffc276e:	2300      	movs	r3, #0
2ffc2770:	2200      	movs	r2, #0
2ffc2772:	2102      	movs	r1, #2
2ffc2774:	f107 0018 	add.w	r0, r7, #24
2ffc2778:	f7fe ff32 	bl	2ffc15e0 <_ZNK7PinConf4initE7PinMode7PinPull11PinPolarity8PinSpeed8PinOType>
2ffc277c:	6a79      	ldr	r1, [r7, #36]	@ 0x24
2ffc277e:	68f8      	ldr	r0, [r7, #12]
2ffc2780:	f000 f8dd 	bl	2ffc293e <_ZN4UartILm1073807360EE4initEm>
2ffc2784:	68fb      	ldr	r3, [r7, #12]
2ffc2786:	4618      	mov	r0, r3
2ffc2788:	3710      	adds	r7, #16
2ffc278a:	46bd      	mov	sp, r7
2ffc278c:	bd80      	pop	{r7, pc}

2ffc278e <_Z5printIJPKcEEvDpT_>:
2ffc278e:	b580      	push	{r7, lr}
2ffc2790:	b082      	sub	sp, #8
2ffc2792:	af00      	add	r7, sp, #0
2ffc2794:	6078      	str	r0, [r7, #4]
2ffc2796:	6878      	ldr	r0, [r7, #4]
2ffc2798:	f003 fa56 	bl	2ffc5c48 <_Z8printonePKc>
2ffc279c:	bf00      	nop
2ffc279e:	3708      	adds	r7, #8
2ffc27a0:	46bd      	mov	sp, r7
2ffc27a2:	bd80      	pop	{r7, pc}

2ffc27a4 <_Z5printIJPKcjS1_EEvDpT_>:
2ffc27a4:	b580      	push	{r7, lr}
2ffc27a6:	b084      	sub	sp, #16
2ffc27a8:	af00      	add	r7, sp, #0
2ffc27aa:	60f8      	str	r0, [r7, #12]
2ffc27ac:	60b9      	str	r1, [r7, #8]
2ffc27ae:	607a      	str	r2, [r7, #4]
2ffc27b0:	68f8      	ldr	r0, [r7, #12]
2ffc27b2:	f003 fa49 	bl	2ffc5c48 <_Z8printonePKc>
2ffc27b6:	68bb      	ldr	r3, [r7, #8]
2ffc27b8:	4618      	mov	r0, r3
2ffc27ba:	f003 fa5a 	bl	2ffc5c72 <_Z8printonei>
2ffc27be:	6878      	ldr	r0, [r7, #4]
2ffc27c0:	f003 fa42 	bl	2ffc5c48 <_Z8printonePKc>
2ffc27c4:	bf00      	nop
2ffc27c6:	3710      	adds	r7, #16
2ffc27c8:	46bd      	mov	sp, r7
2ffc27ca:	bd80      	pop	{r7, pc}

2ffc27cc <_Z5panicIJPKcEEvDpT_>:
2ffc27cc:	b580      	push	{r7, lr}
2ffc27ce:	b082      	sub	sp, #8
2ffc27d0:	af00      	add	r7, sp, #0
2ffc27d2:	6078      	str	r0, [r7, #4]
2ffc27d4:	6878      	ldr	r0, [r7, #4]
2ffc27d6:	f7ff ffda 	bl	2ffc278e <_Z5printIJPKcEEvDpT_>
2ffc27da:	e7fe      	b.n	2ffc27da <_Z5panicIJPKcEEvDpT_+0xe>

2ffc27dc <_ZN3LedIL4GPIO1342214144EL6PinNum128EL9LedActive1EE2onEv>:
2ffc27dc:	b580      	push	{r7, lr}
2ffc27de:	b086      	sub	sp, #24
2ffc27e0:	af00      	add	r7, sp, #0
2ffc27e2:	6078      	str	r0, [r7, #4]
2ffc27e4:	f107 030c 	add.w	r3, r7, #12
2ffc27e8:	2200      	movs	r2, #0
2ffc27ea:	601a      	str	r2, [r3, #0]
2ffc27ec:	605a      	str	r2, [r3, #4]
2ffc27ee:	609a      	str	r2, [r3, #8]
2ffc27f0:	f44f 4310 	mov.w	r3, #36864	@ 0x9000
2ffc27f4:	f2c5 0300 	movt	r3, #20480	@ 0x5000
2ffc27f8:	60fb      	str	r3, [r7, #12]
2ffc27fa:	2380      	movs	r3, #128	@ 0x80
2ffc27fc:	823b      	strh	r3, [r7, #16]
2ffc27fe:	f107 030c 	add.w	r3, r7, #12
2ffc2802:	4618      	mov	r0, r3
2ffc2804:	f7fe ff5b 	bl	2ffc16be <_ZNK7PinConf4highEv>
2ffc2808:	bf00      	nop
2ffc280a:	3718      	adds	r7, #24
2ffc280c:	46bd      	mov	sp, r7
2ffc280e:	bd80      	pop	{r7, pc}

2ffc2810 <_ZN3LedIL4GPIO1342214144EL6PinNum128EL9LedActive1EE3offEv>:
2ffc2810:	b580      	push	{r7, lr}
2ffc2812:	b086      	sub	sp, #24
2ffc2814:	af00      	add	r7, sp, #0
2ffc2816:	6078      	str	r0, [r7, #4]
2ffc2818:	f107 030c 	add.w	r3, r7, #12
2ffc281c:	2200      	movs	r2, #0
2ffc281e:	601a      	str	r2, [r3, #0]
2ffc2820:	605a      	str	r2, [r3, #4]
2ffc2822:	609a      	str	r2, [r3, #8]
2ffc2824:	f44f 4310 	mov.w	r3, #36864	@ 0x9000
2ffc2828:	f2c5 0300 	movt	r3, #20480	@ 0x5000
2ffc282c:	60fb      	str	r3, [r7, #12]
2ffc282e:	2380      	movs	r3, #128	@ 0x80
2ffc2830:	823b      	strh	r3, [r7, #16]
2ffc2832:	f107 030c 	add.w	r3, r7, #12
2ffc2836:	4618      	mov	r0, r3
2ffc2838:	f7fe ff2e 	bl	2ffc1698 <_ZNK7PinConf3lowEv>
2ffc283c:	bf00      	nop
2ffc283e:	3718      	adds	r7, #24
2ffc2840:	46bd      	mov	sp, r7
2ffc2842:	bd80      	pop	{r7, pc}

2ffc2844 <_ZN4UartILm1073807360EE7putcharEc>:
2ffc2844:	b480      	push	{r7}
2ffc2846:	b083      	sub	sp, #12
2ffc2848:	af00      	add	r7, sp, #0
2ffc284a:	4603      	mov	r3, r0
2ffc284c:	71fb      	strb	r3, [r7, #7]
2ffc284e:	bf00      	nop
2ffc2850:	2300      	movs	r3, #0
2ffc2852:	f2c4 0301 	movt	r3, #16385	@ 0x4001
2ffc2856:	69db      	ldr	r3, [r3, #28]
2ffc2858:	f003 6300 	and.w	r3, r3, #134217728	@ 0x8000000
2ffc285c:	2b00      	cmp	r3, #0
2ffc285e:	bf0c      	ite	eq
2ffc2860:	2301      	moveq	r3, #1
2ffc2862:	2300      	movne	r3, #0
2ffc2864:	b2db      	uxtb	r3, r3
2ffc2866:	2b00      	cmp	r3, #0
2ffc2868:	d1f2      	bne.n	2ffc2850 <_ZN4UartILm1073807360EE7putcharEc+0xc>
2ffc286a:	2300      	movs	r3, #0
2ffc286c:	f2c4 0301 	movt	r3, #16385	@ 0x4001
2ffc2870:	79fa      	ldrb	r2, [r7, #7]
2ffc2872:	b292      	uxth	r2, r2
2ffc2874:	851a      	strh	r2, [r3, #40]	@ 0x28
2ffc2876:	bf00      	nop
2ffc2878:	370c      	adds	r7, #12
2ffc287a:	46bd      	mov	sp, r7
2ffc287c:	f85d 7b04 	ldr.w	r7, [sp], #4
2ffc2880:	4770      	bx	lr

2ffc2882 <_ZNSt4spanIhLj4294967295EEC1IPhEET_j>:
2ffc2882:	b580      	push	{r7, lr}
2ffc2884:	b084      	sub	sp, #16
2ffc2886:	af00      	add	r7, sp, #0
2ffc2888:	60f8      	str	r0, [r7, #12]
2ffc288a:	60b9      	str	r1, [r7, #8]
2ffc288c:	607a      	str	r2, [r7, #4]
2ffc288e:	68b8      	ldr	r0, [r7, #8]
2ffc2890:	f000 f86f 	bl	2ffc2972 <_ZSt10to_addressIhEPT_S1_>
2ffc2894:	4602      	mov	r2, r0
2ffc2896:	68fb      	ldr	r3, [r7, #12]
2ffc2898:	601a      	str	r2, [r3, #0]
2ffc289a:	68fb      	ldr	r3, [r7, #12]
2ffc289c:	3304      	adds	r3, #4
2ffc289e:	6879      	ldr	r1, [r7, #4]
2ffc28a0:	4618      	mov	r0, r3
2ffc28a2:	f7fe ff53 	bl	2ffc174c <_ZNSt8__detail16__extent_storageILj4294967295EEC1Ej>
2ffc28a6:	68fb      	ldr	r3, [r7, #12]
2ffc28a8:	4618      	mov	r0, r3
2ffc28aa:	3710      	adds	r7, #16
2ffc28ac:	46bd      	mov	sp, r7
2ffc28ae:	bd80      	pop	{r7, pc}

2ffc28b0 <_ZSt7forwardIRhEOT_RNSt16remove_referenceIS1_E4typeE>:
2ffc28b0:	b480      	push	{r7}
2ffc28b2:	b083      	sub	sp, #12
2ffc28b4:	af00      	add	r7, sp, #0
2ffc28b6:	6078      	str	r0, [r7, #4]
2ffc28b8:	687b      	ldr	r3, [r7, #4]
2ffc28ba:	4618      	mov	r0, r3
2ffc28bc:	370c      	adds	r7, #12
2ffc28be:	46bd      	mov	sp, r7
2ffc28c0:	f85d 7b04 	ldr.w	r7, [sp], #4
2ffc28c4:	4770      	bx	lr

2ffc28c6 <_ZNSt17_Optional_payloadIhLb1ELb1ELb1EECI1St22_Optional_payload_baseIhEIJRhEEESt10in_place_tDpOT_>:
2ffc28c6:	b590      	push	{r4, r7, lr}
2ffc28c8:	b085      	sub	sp, #20
2ffc28ca:	af00      	add	r7, sp, #0
2ffc28cc:	60f8      	str	r0, [r7, #12]
2ffc28ce:	7239      	strb	r1, [r7, #8]
2ffc28d0:	607a      	str	r2, [r7, #4]
2ffc28d2:	68fb      	ldr	r3, [r7, #12]
2ffc28d4:	687a      	ldr	r2, [r7, #4]
2ffc28d6:	4621      	mov	r1, r4
2ffc28d8:	4618      	mov	r0, r3
2ffc28da:	f000 f856 	bl	2ffc298a <_ZNSt22_Optional_payload_baseIhEC1IJRhEEESt10in_place_tDpOT_>
2ffc28de:	68fb      	ldr	r3, [r7, #12]
2ffc28e0:	4618      	mov	r0, r3
2ffc28e2:	3714      	adds	r7, #20
2ffc28e4:	46bd      	mov	sp, r7
2ffc28e6:	bd90      	pop	{r4, r7, pc}

2ffc28e8 <_ZNSt14_Optional_baseIhLb1ELb1EEC1IJRhELb0EEESt10in_place_tDpOT_>:
2ffc28e8:	b5b0      	push	{r4, r5, r7, lr}
2ffc28ea:	b084      	sub	sp, #16
2ffc28ec:	af00      	add	r7, sp, #0
2ffc28ee:	60f8      	str	r0, [r7, #12]
2ffc28f0:	7239      	strb	r1, [r7, #8]
2ffc28f2:	607a      	str	r2, [r7, #4]
2ffc28f4:	68fc      	ldr	r4, [r7, #12]
2ffc28f6:	6878      	ldr	r0, [r7, #4]
2ffc28f8:	f7ff ffda 	bl	2ffc28b0 <_ZSt7forwardIRhEOT_RNSt16remove_referenceIS1_E4typeE>
2ffc28fc:	4603      	mov	r3, r0
2ffc28fe:	461a      	mov	r2, r3
2ffc2900:	4629      	mov	r1, r5
2ffc2902:	4620      	mov	r0, r4
2ffc2904:	f7ff ffdf 	bl	2ffc28c6 <_ZNSt17_Optional_payloadIhLb1ELb1ELb1EECI1St22_Optional_payload_baseIhEIJRhEEESt10in_place_tDpOT_>
2ffc2908:	68fb      	ldr	r3, [r7, #12]
2ffc290a:	4618      	mov	r0, r3
2ffc290c:	3710      	adds	r7, #16
2ffc290e:	46bd      	mov	sp, r7
2ffc2910:	bdb0      	pop	{r4, r5, r7, pc}

2ffc2912 <_ZNSt22_Optional_payload_baseIhE8_StorageIhLb1EEC1Ev>:
2ffc2912:	b480      	push	{r7}
2ffc2914:	b083      	sub	sp, #12
2ffc2916:	af00      	add	r7, sp, #0
2ffc2918:	6078      	str	r0, [r7, #4]
2ffc291a:	687b      	ldr	r3, [r7, #4]
2ffc291c:	4618      	mov	r0, r3
2ffc291e:	370c      	adds	r7, #12
2ffc2920:	46bd      	mov	sp, r7
2ffc2922:	f85d 7b04 	ldr.w	r7, [sp], #4
2ffc2926:	4770      	bx	lr

2ffc2928 <_ZNSt22_Optional_payload_baseIhE6_M_getEv>:
2ffc2928:	b480      	push	{r7}
2ffc292a:	b083      	sub	sp, #12
2ffc292c:	af00      	add	r7, sp, #0
2ffc292e:	6078      	str	r0, [r7, #4]
2ffc2930:	687b      	ldr	r3, [r7, #4]
2ffc2932:	4618      	mov	r0, r3
2ffc2934:	370c      	adds	r7, #12
2ffc2936:	46bd      	mov	sp, r7
2ffc2938:	f85d 7b04 	ldr.w	r7, [sp], #4
2ffc293c:	4770      	bx	lr

2ffc293e <_ZN4UartILm1073807360EE4initEm>:
2ffc293e:	b580      	push	{r7, lr}
2ffc2940:	b08a      	sub	sp, #40	@ 0x28
2ffc2942:	af00      	add	r7, sp, #0
2ffc2944:	6078      	str	r0, [r7, #4]
2ffc2946:	6039      	str	r1, [r7, #0]
2ffc2948:	f107 0308 	add.w	r3, r7, #8
2ffc294c:	2220      	movs	r2, #32
2ffc294e:	2100      	movs	r1, #0
2ffc2950:	4618      	mov	r0, r3
2ffc2952:	f005 ffb8 	bl	2ffc88c6 <memset>
2ffc2956:	230c      	movs	r3, #12
2ffc2958:	61fb      	str	r3, [r7, #28]
2ffc295a:	683b      	ldr	r3, [r7, #0]
2ffc295c:	60fb      	str	r3, [r7, #12]
2ffc295e:	f107 0308 	add.w	r3, r7, #8
2ffc2962:	4619      	mov	r1, r3
2ffc2964:	6878      	ldr	r0, [r7, #4]
2ffc2966:	f000 f828 	bl	2ffc29ba <_ZN4UartILm1073807360EE4initEP20LL_USART_InitTypeDef>
2ffc296a:	bf00      	nop
2ffc296c:	3728      	adds	r7, #40	@ 0x28
2ffc296e:	46bd      	mov	sp, r7
2ffc2970:	bd80      	pop	{r7, pc}

2ffc2972 <_ZSt10to_addressIhEPT_S1_>:
2ffc2972:	b580      	push	{r7, lr}
2ffc2974:	b082      	sub	sp, #8
2ffc2976:	af00      	add	r7, sp, #0
2ffc2978:	6078      	str	r0, [r7, #4]
2ffc297a:	6878      	ldr	r0, [r7, #4]
2ffc297c:	f000 f83e 	bl	2ffc29fc <_ZSt12__to_addressIhEPT_S1_>
2ffc2980:	4603      	mov	r3, r0
2ffc2982:	4618      	mov	r0, r3
2ffc2984:	3708      	adds	r7, #8
2ffc2986:	46bd      	mov	sp, r7
2ffc2988:	bd80      	pop	{r7, pc}

2ffc298a <_ZNSt22_Optional_payload_baseIhEC1IJRhEEESt10in_place_tDpOT_>:
2ffc298a:	b5b0      	push	{r4, r5, r7, lr}
2ffc298c:	b084      	sub	sp, #16
2ffc298e:	af00      	add	r7, sp, #0
2ffc2990:	60f8      	str	r0, [r7, #12]
2ffc2992:	7239      	strb	r1, [r7, #8]
2ffc2994:	607a      	str	r2, [r7, #4]
2ffc2996:	68fc      	ldr	r4, [r7, #12]
2ffc2998:	6878      	ldr	r0, [r7, #4]
2ffc299a:	f7ff ff89 	bl	2ffc28b0 <_ZSt7forwardIRhEOT_RNSt16remove_referenceIS1_E4typeE>
2ffc299e:	4603      	mov	r3, r0
2ffc29a0:	461a      	mov	r2, r3
2ffc29a2:	4629      	mov	r1, r5
2ffc29a4:	4620      	mov	r0, r4
2ffc29a6:	f000 f834 	bl	2ffc2a12 <_ZNSt22_Optional_payload_baseIhE8_StorageIhLb1EEC1IJRhEEESt10in_place_tDpOT_>
2ffc29aa:	68fb      	ldr	r3, [r7, #12]
2ffc29ac:	2201      	movs	r2, #1
2ffc29ae:	705a      	strb	r2, [r3, #1]
2ffc29b0:	68fb      	ldr	r3, [r7, #12]
2ffc29b2:	4618      	mov	r0, r3
2ffc29b4:	3710      	adds	r7, #16
2ffc29b6:	46bd      	mov	sp, r7
2ffc29b8:	bdb0      	pop	{r4, r5, r7, pc}

2ffc29ba <_ZN4UartILm1073807360EE4initEP20LL_USART_InitTypeDef>:
2ffc29ba:	b580      	push	{r7, lr}
2ffc29bc:	b082      	sub	sp, #8
2ffc29be:	af00      	add	r7, sp, #0
2ffc29c0:	6078      	str	r0, [r7, #4]
2ffc29c2:	6039      	str	r1, [r7, #0]
2ffc29c4:	6878      	ldr	r0, [r7, #4]
2ffc29c6:	f000 f836 	bl	2ffc2a36 <_ZN4UartILm1073807360EE11_enable_rccEv>
2ffc29ca:	687b      	ldr	r3, [r7, #4]
2ffc29cc:	681b      	ldr	r3, [r3, #0]
2ffc29ce:	4618      	mov	r0, r3
2ffc29d0:	f7fe fe98 	bl	2ffc1704 <LL_USART_Disable>
2ffc29d4:	687b      	ldr	r3, [r7, #4]
2ffc29d6:	681b      	ldr	r3, [r3, #0]
2ffc29d8:	6839      	ldr	r1, [r7, #0]
2ffc29da:	4618      	mov	r0, r3
2ffc29dc:	f003 fa6c 	bl	2ffc5eb8 <LL_USART_Init>
2ffc29e0:	687b      	ldr	r3, [r7, #4]
2ffc29e2:	681b      	ldr	r3, [r3, #0]
2ffc29e4:	4618      	mov	r0, r3
2ffc29e6:	f7fe fe9d 	bl	2ffc1724 <LL_USART_EnableFIFO>
2ffc29ea:	687b      	ldr	r3, [r7, #4]
2ffc29ec:	681b      	ldr	r3, [r3, #0]
2ffc29ee:	4618      	mov	r0, r3
2ffc29f0:	f7fe fe78 	bl	2ffc16e4 <LL_USART_Enable>
2ffc29f4:	bf00      	nop
2ffc29f6:	3708      	adds	r7, #8
2ffc29f8:	46bd      	mov	sp, r7
2ffc29fa:	bd80      	pop	{r7, pc}

2ffc29fc <_ZSt12__to_addressIhEPT_S1_>:
2ffc29fc:	b480      	push	{r7}
2ffc29fe:	b083      	sub	sp, #12
2ffc2a00:	af00      	add	r7, sp, #0
2ffc2a02:	6078      	str	r0, [r7, #4]
2ffc2a04:	687b      	ldr	r3, [r7, #4]
2ffc2a06:	4618      	mov	r0, r3
2ffc2a08:	370c      	adds	r7, #12
2ffc2a0a:	46bd      	mov	sp, r7
2ffc2a0c:	f85d 7b04 	ldr.w	r7, [sp], #4
2ffc2a10:	4770      	bx	lr

2ffc2a12 <_ZNSt22_Optional_payload_baseIhE8_StorageIhLb1EEC1IJRhEEESt10in_place_tDpOT_>:
2ffc2a12:	b580      	push	{r7, lr}
2ffc2a14:	b084      	sub	sp, #16
2ffc2a16:	af00      	add	r7, sp, #0
2ffc2a18:	60f8      	str	r0, [r7, #12]
2ffc2a1a:	7239      	strb	r1, [r7, #8]
2ffc2a1c:	607a      	str	r2, [r7, #4]
2ffc2a1e:	6878      	ldr	r0, [r7, #4]
2ffc2a20:	f7ff ff46 	bl	2ffc28b0 <_ZSt7forwardIRhEOT_RNSt16remove_referenceIS1_E4typeE>
2ffc2a24:	4603      	mov	r3, r0
2ffc2a26:	781a      	ldrb	r2, [r3, #0]
2ffc2a28:	68fb      	ldr	r3, [r7, #12]
2ffc2a2a:	701a      	strb	r2, [r3, #0]
2ffc2a2c:	68fb      	ldr	r3, [r7, #12]
2ffc2a2e:	4618      	mov	r0, r3
2ffc2a30:	3710      	adds	r7, #16
2ffc2a32:	46bd      	mov	sp, r7
2ffc2a34:	bd80      	pop	{r7, pc}

2ffc2a36 <_ZN4UartILm1073807360EE11_enable_rccEv>:
2ffc2a36:	b480      	push	{r7}
2ffc2a38:	b083      	sub	sp, #12
2ffc2a3a:	af00      	add	r7, sp, #0
2ffc2a3c:	6078      	str	r0, [r7, #4]
2ffc2a3e:	f04f 43a0 	mov.w	r3, #1342177280	@ 0x50000000
2ffc2a42:	f8d3 3a00 	ldr.w	r3, [r3, #2560]	@ 0xa00
2ffc2a46:	f04f 42a0 	mov.w	r2, #1342177280	@ 0x50000000
2ffc2a4a:	f443 3380 	orr.w	r3, r3, #65536	@ 0x10000
2ffc2a4e:	f8c2 3a00 	str.w	r3, [r2, #2560]	@ 0xa00
2ffc2a52:	bf00      	nop
2ffc2a54:	370c      	adds	r7, #12
2ffc2a56:	46bd      	mov	sp, r7
2ffc2a58:	f85d 7b04 	ldr.w	r7, [sp], #4
2ffc2a5c:	4770      	bx	lr
	...

2ffc2a60 <init_private_timer>:
2ffc2a60:	ee0e0f12 	mcr	15, 0, r0, cr14, cr2, {0}
2ffc2a64:	e12fff1e 	bx	lr

2ffc2a68 <start_private_timer>:
2ffc2a68:	e3a00001 	mov	r0, #1
2ffc2a6c:	ee0e0f32 	mcr	15, 0, r0, cr14, cr2, {1}
2ffc2a70:	e12fff1e 	bx	lr

2ffc2a74 <stop_private_timer>:
2ffc2a74:	e12fff1e 	bx	lr

2ffc2a78 <get_private_timer_count>:
2ffc2a78:	e12fff1e 	bx	lr

2ffc2a7c <clear_private_timer_irq>:
2ffc2a7c:	e12fff1e 	bx	lr

2ffc2a80 <tx_application_define>:
2ffc2a80:	b580      	push	{r7, lr}
2ffc2a82:	b086      	sub	sp, #24
2ffc2a84:	af02      	add	r7, sp, #8
2ffc2a86:	6078      	str	r0, [r7, #4]
2ffc2a88:	f7ff efee 	blx	2ffc2a68 <start_private_timer>
2ffc2a8c:	2334      	movs	r3, #52	@ 0x34
2ffc2a8e:	9300      	str	r3, [sp, #0]
2ffc2a90:	f44f 6300 	mov.w	r3, #2048	@ 0x800
2ffc2a94:	f24a 4278 	movw	r2, #42104	@ 0xa478
2ffc2a98:	f6c2 72fc 	movt	r2, #12284	@ 0x2ffc
2ffc2a9c:	f249 114c 	movw	r1, #37196	@ 0x914c
2ffc2aa0:	f6c2 71fc 	movt	r1, #12284	@ 0x2ffc
2ffc2aa4:	f64a 4078 	movw	r0, #44152	@ 0xac78
2ffc2aa8:	f6c2 70fc 	movt	r0, #12284	@ 0x2ffc
2ffc2aac:	f000 fd15 	bl	2ffc34da <_txe_byte_pool_create>
2ffc2ab0:	4603      	mov	r3, r0
2ffc2ab2:	2b00      	cmp	r3, #0
2ffc2ab4:	d107      	bne.n	2ffc2ac6 <tx_application_define+0x46>
2ffc2ab6:	f64a 4378 	movw	r3, #44152	@ 0xac78
2ffc2aba:	f6c2 73fc 	movt	r3, #12284	@ 0x2ffc
2ffc2abe:	60fb      	str	r3, [r7, #12]
2ffc2ac0:	68f8      	ldr	r0, [r7, #12]
2ffc2ac2:	f000 f811 	bl	2ffc2ae8 <App_ThreadX_Init>
2ffc2ac6:	bf00      	nop
2ffc2ac8:	3710      	adds	r7, #16
2ffc2aca:	46bd      	mov	sp, r7
2ffc2acc:	bd80      	pop	{r7, pc}

2ffc2ace <Error_Handler>:
2ffc2ace:	b480      	push	{r7}
2ffc2ad0:	af00      	add	r7, sp, #0
2ffc2ad2:	e7fe      	b.n	2ffc2ad2 <Error_Handler+0x4>

2ffc2ad4 <BSP_LED_Toggle>:
2ffc2ad4:	b480      	push	{r7}
2ffc2ad6:	b083      	sub	sp, #12
2ffc2ad8:	af00      	add	r7, sp, #0
2ffc2ada:	6078      	str	r0, [r7, #4]
2ffc2adc:	bf00      	nop
2ffc2ade:	370c      	adds	r7, #12
2ffc2ae0:	46bd      	mov	sp, r7
2ffc2ae2:	f85d 7b04 	ldr.w	r7, [sp], #4
2ffc2ae6:	4770      	bx	lr

2ffc2ae8 <App_ThreadX_Init>:
2ffc2ae8:	b580      	push	{r7, lr}
2ffc2aea:	b08e      	sub	sp, #56	@ 0x38
2ffc2aec:	af08      	add	r7, sp, #32
2ffc2aee:	6078      	str	r0, [r7, #4]
2ffc2af0:	2300      	movs	r3, #0
2ffc2af2:	617b      	str	r3, [r7, #20]
2ffc2af4:	687b      	ldr	r3, [r7, #4]
2ffc2af6:	613b      	str	r3, [r7, #16]
2ffc2af8:	f107 010c 	add.w	r1, r7, #12
2ffc2afc:	2300      	movs	r3, #0
2ffc2afe:	f44f 7200 	mov.w	r2, #512	@ 0x200
2ffc2b02:	6938      	ldr	r0, [r7, #16]
2ffc2b04:	f000 fc7a 	bl	2ffc33fc <_txe_byte_allocate>
2ffc2b08:	4603      	mov	r3, r0
2ffc2b0a:	2b00      	cmp	r3, #0
2ffc2b0c:	d001      	beq.n	2ffc2b12 <App_ThreadX_Init+0x2a>
2ffc2b0e:	2302      	movs	r3, #2
2ffc2b10:	617b      	str	r3, [r7, #20]
2ffc2b12:	68fb      	ldr	r3, [r7, #12]
2ffc2b14:	22b8      	movs	r2, #184	@ 0xb8
2ffc2b16:	9206      	str	r2, [sp, #24]
2ffc2b18:	2201      	movs	r2, #1
2ffc2b1a:	9205      	str	r2, [sp, #20]
2ffc2b1c:	2200      	movs	r2, #0
2ffc2b1e:	9204      	str	r2, [sp, #16]
2ffc2b20:	2205      	movs	r2, #5
2ffc2b22:	9203      	str	r2, [sp, #12]
2ffc2b24:	2205      	movs	r2, #5
2ffc2b26:	9202      	str	r2, [sp, #8]
2ffc2b28:	f44f 7200 	mov.w	r2, #512	@ 0x200
2ffc2b2c:	9201      	str	r2, [sp, #4]
2ffc2b2e:	9300      	str	r3, [sp, #0]
2ffc2b30:	2300      	movs	r3, #0
2ffc2b32:	f642 4243 	movw	r2, #11331	@ 0x2c43
2ffc2b36:	f6c2 72fc 	movt	r2, #12284	@ 0x2ffc
2ffc2b3a:	f249 1160 	movw	r1, #37216	@ 0x9160
2ffc2b3e:	f6c2 71fc 	movt	r1, #12284	@ 0x2ffc
2ffc2b42:	f64a 40ac 	movw	r0, #44204	@ 0xacac
2ffc2b46:	f6c2 70fc 	movt	r0, #12284	@ 0x2ffc
2ffc2b4a:	f000 fe6b 	bl	2ffc3824 <_txe_thread_create>
2ffc2b4e:	4603      	mov	r3, r0
2ffc2b50:	2b00      	cmp	r3, #0
2ffc2b52:	d001      	beq.n	2ffc2b58 <App_ThreadX_Init+0x70>
2ffc2b54:	230e      	movs	r3, #14
2ffc2b56:	617b      	str	r3, [r7, #20]
2ffc2b58:	f107 010c 	add.w	r1, r7, #12
2ffc2b5c:	2300      	movs	r3, #0
2ffc2b5e:	f44f 7200 	mov.w	r2, #512	@ 0x200
2ffc2b62:	6938      	ldr	r0, [r7, #16]
2ffc2b64:	f000 fc4a 	bl	2ffc33fc <_txe_byte_allocate>
2ffc2b68:	4603      	mov	r3, r0
2ffc2b6a:	2b00      	cmp	r3, #0
2ffc2b6c:	d001      	beq.n	2ffc2b72 <App_ThreadX_Init+0x8a>
2ffc2b6e:	2302      	movs	r3, #2
2ffc2b70:	617b      	str	r3, [r7, #20]
2ffc2b72:	68fb      	ldr	r3, [r7, #12]
2ffc2b74:	22b8      	movs	r2, #184	@ 0xb8
2ffc2b76:	9206      	str	r2, [sp, #24]
2ffc2b78:	2201      	movs	r2, #1
2ffc2b7a:	9205      	str	r2, [sp, #20]
2ffc2b7c:	2200      	movs	r2, #0
2ffc2b7e:	9204      	str	r2, [sp, #16]
2ffc2b80:	220a      	movs	r2, #10
2ffc2b82:	9203      	str	r2, [sp, #12]
2ffc2b84:	220a      	movs	r2, #10
2ffc2b86:	9202      	str	r2, [sp, #8]
2ffc2b88:	f44f 7200 	mov.w	r2, #512	@ 0x200
2ffc2b8c:	9201      	str	r2, [sp, #4]
2ffc2b8e:	9300      	str	r3, [sp, #0]
2ffc2b90:	2300      	movs	r3, #0
2ffc2b92:	f642 522d 	movw	r2, #11565	@ 0x2d2d
2ffc2b96:	f6c2 72fc 	movt	r2, #12284	@ 0x2ffc
2ffc2b9a:	f249 116c 	movw	r1, #37228	@ 0x916c
2ffc2b9e:	f6c2 71fc 	movt	r1, #12284	@ 0x2ffc
2ffc2ba2:	f64a 5064 	movw	r0, #44388	@ 0xad64
2ffc2ba6:	f6c2 70fc 	movt	r0, #12284	@ 0x2ffc
2ffc2baa:	f000 fe3b 	bl	2ffc3824 <_txe_thread_create>
2ffc2bae:	4603      	mov	r3, r0
2ffc2bb0:	2b00      	cmp	r3, #0
2ffc2bb2:	d001      	beq.n	2ffc2bb8 <App_ThreadX_Init+0xd0>
2ffc2bb4:	230e      	movs	r3, #14
2ffc2bb6:	617b      	str	r3, [r7, #20]
2ffc2bb8:	f107 010c 	add.w	r1, r7, #12
2ffc2bbc:	2300      	movs	r3, #0
2ffc2bbe:	f44f 7200 	mov.w	r2, #512	@ 0x200
2ffc2bc2:	6938      	ldr	r0, [r7, #16]
2ffc2bc4:	f000 fc1a 	bl	2ffc33fc <_txe_byte_allocate>
2ffc2bc8:	4603      	mov	r3, r0
2ffc2bca:	2b00      	cmp	r3, #0
2ffc2bcc:	d001      	beq.n	2ffc2bd2 <App_ThreadX_Init+0xea>
2ffc2bce:	2302      	movs	r3, #2
2ffc2bd0:	617b      	str	r3, [r7, #20]
2ffc2bd2:	68fb      	ldr	r3, [r7, #12]
2ffc2bd4:	22b8      	movs	r2, #184	@ 0xb8
2ffc2bd6:	9206      	str	r2, [sp, #24]
2ffc2bd8:	2201      	movs	r2, #1
2ffc2bda:	9205      	str	r2, [sp, #20]
2ffc2bdc:	2200      	movs	r2, #0
2ffc2bde:	9204      	str	r2, [sp, #16]
2ffc2be0:	2209      	movs	r2, #9
2ffc2be2:	9203      	str	r2, [sp, #12]
2ffc2be4:	220a      	movs	r2, #10
2ffc2be6:	9202      	str	r2, [sp, #8]
2ffc2be8:	f44f 7200 	mov.w	r2, #512	@ 0x200
2ffc2bec:	9201      	str	r2, [sp, #4]
2ffc2bee:	9300      	str	r3, [sp, #0]
2ffc2bf0:	2300      	movs	r3, #0
2ffc2bf2:	f642 5273 	movw	r2, #11635	@ 0x2d73
2ffc2bf6:	f6c2 72fc 	movt	r2, #12284	@ 0x2ffc
2ffc2bfa:	f249 1178 	movw	r1, #37240	@ 0x9178
2ffc2bfe:	f6c2 71fc 	movt	r1, #12284	@ 0x2ffc
2ffc2c02:	f64a 601c 	movw	r0, #44572	@ 0xae1c
2ffc2c06:	f6c2 70fc 	movt	r0, #12284	@ 0x2ffc
2ffc2c0a:	f000 fe0b 	bl	2ffc3824 <_txe_thread_create>
2ffc2c0e:	4603      	mov	r3, r0
2ffc2c10:	2b00      	cmp	r3, #0
2ffc2c12:	d001      	beq.n	2ffc2c18 <App_ThreadX_Init+0x130>
2ffc2c14:	230e      	movs	r3, #14
2ffc2c16:	617b      	str	r3, [r7, #20]
2ffc2c18:	2228      	movs	r2, #40	@ 0x28
2ffc2c1a:	f249 1184 	movw	r1, #37252	@ 0x9184
2ffc2c1e:	f6c2 71fc 	movt	r1, #12284	@ 0x2ffc
2ffc2c22:	f64a 60d4 	movw	r0, #44756	@ 0xaed4
2ffc2c26:	f6c2 70fc 	movt	r0, #12284	@ 0x2ffc
2ffc2c2a:	f000 fcee 	bl	2ffc360a <_txe_event_flags_create>
2ffc2c2e:	4603      	mov	r3, r0
2ffc2c30:	2b00      	cmp	r3, #0
2ffc2c32:	d001      	beq.n	2ffc2c38 <App_ThreadX_Init+0x150>
2ffc2c34:	2306      	movs	r3, #6
2ffc2c36:	617b      	str	r3, [r7, #20]
2ffc2c38:	697b      	ldr	r3, [r7, #20]
2ffc2c3a:	4618      	mov	r0, r3
2ffc2c3c:	3718      	adds	r7, #24
2ffc2c3e:	46bd      	mov	sp, r7
2ffc2c40:	bd80      	pop	{r7, pc}

2ffc2c42 <MainThread_Entry>:
2ffc2c42:	b580      	push	{r7, lr}
2ffc2c44:	b088      	sub	sp, #32
2ffc2c46:	af02      	add	r7, sp, #8
2ffc2c48:	6078      	str	r0, [r7, #4]
2ffc2c4a:	2300      	movs	r3, #0
2ffc2c4c:	613b      	str	r3, [r7, #16]
2ffc2c4e:	2300      	movs	r3, #0
2ffc2c50:	60fb      	str	r3, [r7, #12]
2ffc2c52:	2300      	movs	r3, #0
2ffc2c54:	60bb      	str	r3, [r7, #8]
2ffc2c56:	2300      	movs	r3, #0
2ffc2c58:	75fb      	strb	r3, [r7, #23]
2ffc2c5a:	e050      	b.n	2ffc2cfe <MainThread_Entry+0xbc>
2ffc2c5c:	7dfb      	ldrb	r3, [r7, #23]
2ffc2c5e:	3301      	adds	r3, #1
2ffc2c60:	75fb      	strb	r3, [r7, #23]
2ffc2c62:	f107 0308 	add.w	r3, r7, #8
2ffc2c66:	f04f 32ff 	mov.w	r2, #4294967295	@ 0xffffffff
2ffc2c6a:	9200      	str	r2, [sp, #0]
2ffc2c6c:	2201      	movs	r2, #1
2ffc2c6e:	2101      	movs	r1, #1
2ffc2c70:	f64a 60d4 	movw	r0, #44756	@ 0xaed4
2ffc2c74:	f6c2 70fc 	movt	r0, #12284	@ 0x2ffc
2ffc2c78:	f000 fd50 	bl	2ffc371c <_txe_event_flags_get>
2ffc2c7c:	4603      	mov	r3, r0
2ffc2c7e:	2b00      	cmp	r3, #0
2ffc2c80:	d002      	beq.n	2ffc2c88 <MainThread_Entry+0x46>
2ffc2c82:	f7ff ff24 	bl	2ffc2ace <Error_Handler>
2ffc2c86:	e03a      	b.n	2ffc2cfe <MainThread_Entry+0xbc>
2ffc2c88:	f107 0310 	add.w	r3, r7, #16
2ffc2c8c:	461a      	mov	r2, r3
2ffc2c8e:	2108      	movs	r1, #8
2ffc2c90:	f64a 601c 	movw	r0, #44572	@ 0xae1c
2ffc2c94:	f6c2 70fc 	movt	r0, #12284	@ 0x2ffc
2ffc2c98:	f000 fee9 	bl	2ffc3a6e <_txe_thread_priority_change>
2ffc2c9c:	f107 030c 	add.w	r3, r7, #12
2ffc2ca0:	461a      	mov	r2, r3
2ffc2ca2:	2108      	movs	r1, #8
2ffc2ca4:	f64a 601c 	movw	r0, #44572	@ 0xae1c
2ffc2ca8:	f6c2 70fc 	movt	r0, #12284	@ 0x2ffc
2ffc2cac:	f000 fea4 	bl	2ffc39f8 <_txe_thread_preemption_change>
2ffc2cb0:	f107 0308 	add.w	r3, r7, #8
2ffc2cb4:	f04f 32ff 	mov.w	r2, #4294967295	@ 0xffffffff
2ffc2cb8:	9200      	str	r2, [sp, #0]
2ffc2cba:	2201      	movs	r2, #1
2ffc2cbc:	2102      	movs	r1, #2
2ffc2cbe:	f64a 60d4 	movw	r0, #44756	@ 0xaed4
2ffc2cc2:	f6c2 70fc 	movt	r0, #12284	@ 0x2ffc
2ffc2cc6:	f000 fd29 	bl	2ffc371c <_txe_event_flags_get>
2ffc2cca:	4603      	mov	r3, r0
2ffc2ccc:	2b00      	cmp	r3, #0
2ffc2cce:	d002      	beq.n	2ffc2cd6 <MainThread_Entry+0x94>
2ffc2cd0:	f7ff fefd 	bl	2ffc2ace <Error_Handler>
2ffc2cd4:	e013      	b.n	2ffc2cfe <MainThread_Entry+0xbc>
2ffc2cd6:	f107 0310 	add.w	r3, r7, #16
2ffc2cda:	461a      	mov	r2, r3
2ffc2cdc:	210a      	movs	r1, #10
2ffc2cde:	f64a 601c 	movw	r0, #44572	@ 0xae1c
2ffc2ce2:	f6c2 70fc 	movt	r0, #12284	@ 0x2ffc
2ffc2ce6:	f000 fec2 	bl	2ffc3a6e <_txe_thread_priority_change>
2ffc2cea:	f107 030c 	add.w	r3, r7, #12
2ffc2cee:	461a      	mov	r2, r3
2ffc2cf0:	2109      	movs	r1, #9
2ffc2cf2:	f64a 601c 	movw	r0, #44572	@ 0xae1c
2ffc2cf6:	f6c2 70fc 	movt	r0, #12284	@ 0x2ffc
2ffc2cfa:	f000 fe7d 	bl	2ffc39f8 <_txe_thread_preemption_change>
2ffc2cfe:	7dfb      	ldrb	r3, [r7, #23]
2ffc2d00:	2b02      	cmp	r3, #2
2ffc2d02:	d9ab      	bls.n	2ffc2c5c <MainThread_Entry+0x1a>
2ffc2d04:	f64a 5064 	movw	r0, #44388	@ 0xad64
2ffc2d08:	f6c2 70fc 	movt	r0, #12284	@ 0x2ffc
2ffc2d0c:	f000 fee7 	bl	2ffc3ade <_txe_thread_terminate>
2ffc2d10:	f64a 601c 	movw	r0, #44572	@ 0xae1c
2ffc2d14:	f6c2 70fc 	movt	r0, #12284	@ 0x2ffc
2ffc2d18:	f000 fee1 	bl	2ffc3ade <_txe_thread_terminate>
2ffc2d1c:	2001      	movs	r0, #1
2ffc2d1e:	f7ff fed9 	bl	2ffc2ad4 <BSP_LED_Toggle>
2ffc2d22:	f44f 707a 	mov.w	r0, #1000	@ 0x3e8
2ffc2d26:	f001 fde6 	bl	2ffc48f6 <_tx_thread_sleep>
2ffc2d2a:	e7f7      	b.n	2ffc2d1c <MainThread_Entry+0xda>

2ffc2d2c <ThreadOne_Entry>:
2ffc2d2c:	b580      	push	{r7, lr}
2ffc2d2e:	b084      	sub	sp, #16
2ffc2d30:	af00      	add	r7, sp, #0
2ffc2d32:	6078      	str	r0, [r7, #4]
2ffc2d34:	2300      	movs	r3, #0
2ffc2d36:	73fb      	strb	r3, [r7, #15]
2ffc2d38:	2001      	movs	r0, #1
2ffc2d3a:	f7ff fecb 	bl	2ffc2ad4 <BSP_LED_Toggle>
2ffc2d3e:	f44f 70fa 	mov.w	r0, #500	@ 0x1f4
2ffc2d42:	f000 f838 	bl	2ffc2db6 <App_Delay>
2ffc2d46:	7bfb      	ldrb	r3, [r7, #15]
2ffc2d48:	3301      	adds	r3, #1
2ffc2d4a:	73fb      	strb	r3, [r7, #15]
2ffc2d4c:	7bfb      	ldrb	r3, [r7, #15]
2ffc2d4e:	2b0a      	cmp	r3, #10
2ffc2d50:	d1f2      	bne.n	2ffc2d38 <ThreadOne_Entry+0xc>
2ffc2d52:	2300      	movs	r3, #0
2ffc2d54:	73fb      	strb	r3, [r7, #15]
2ffc2d56:	2200      	movs	r2, #0
2ffc2d58:	2101      	movs	r1, #1
2ffc2d5a:	f64a 60d4 	movw	r0, #44756	@ 0xaed4
2ffc2d5e:	f6c2 70fc 	movt	r0, #12284	@ 0x2ffc
2ffc2d62:	f000 fd30 	bl	2ffc37c6 <_txe_event_flags_set>
2ffc2d66:	4603      	mov	r3, r0
2ffc2d68:	2b00      	cmp	r3, #0
2ffc2d6a:	d0e5      	beq.n	2ffc2d38 <ThreadOne_Entry+0xc>
2ffc2d6c:	f7ff feaf 	bl	2ffc2ace <Error_Handler>
2ffc2d70:	e7e2      	b.n	2ffc2d38 <ThreadOne_Entry+0xc>

2ffc2d72 <ThreadTwo_Entry>:
2ffc2d72:	b580      	push	{r7, lr}
2ffc2d74:	b084      	sub	sp, #16
2ffc2d76:	af00      	add	r7, sp, #0
2ffc2d78:	6078      	str	r0, [r7, #4]
2ffc2d7a:	2300      	movs	r3, #0
2ffc2d7c:	73fb      	strb	r3, [r7, #15]
2ffc2d7e:	2001      	movs	r0, #1
2ffc2d80:	f7ff fea8 	bl	2ffc2ad4 <BSP_LED_Toggle>
2ffc2d84:	20c8      	movs	r0, #200	@ 0xc8
2ffc2d86:	f000 f816 	bl	2ffc2db6 <App_Delay>
2ffc2d8a:	7bfb      	ldrb	r3, [r7, #15]
2ffc2d8c:	3301      	adds	r3, #1
2ffc2d8e:	73fb      	strb	r3, [r7, #15]
2ffc2d90:	7bfb      	ldrb	r3, [r7, #15]
2ffc2d92:	2b19      	cmp	r3, #25
2ffc2d94:	d1f3      	bne.n	2ffc2d7e <ThreadTwo_Entry+0xc>
2ffc2d96:	2300      	movs	r3, #0
2ffc2d98:	73fb      	strb	r3, [r7, #15]
2ffc2d9a:	2200      	movs	r2, #0
2ffc2d9c:	2102      	movs	r1, #2
2ffc2d9e:	f64a 60d4 	movw	r0, #44756	@ 0xaed4
2ffc2da2:	f6c2 70fc 	movt	r0, #12284	@ 0x2ffc
2ffc2da6:	f000 fd0e 	bl	2ffc37c6 <_txe_event_flags_set>
2ffc2daa:	4603      	mov	r3, r0
2ffc2dac:	2b00      	cmp	r3, #0
2ffc2dae:	d0e6      	beq.n	2ffc2d7e <ThreadTwo_Entry+0xc>
2ffc2db0:	f7ff fe8d 	bl	2ffc2ace <Error_Handler>
2ffc2db4:	e7e3      	b.n	2ffc2d7e <ThreadTwo_Entry+0xc>

2ffc2db6 <App_Delay>:
2ffc2db6:	b580      	push	{r7, lr}
2ffc2db8:	b084      	sub	sp, #16
2ffc2dba:	af00      	add	r7, sp, #0
2ffc2dbc:	6078      	str	r0, [r7, #4]
2ffc2dbe:	f002 fafb 	bl	2ffc53b8 <_tx_time_get>
2ffc2dc2:	60f8      	str	r0, [r7, #12]
2ffc2dc4:	bf00      	nop
2ffc2dc6:	f002 faf7 	bl	2ffc53b8 <_tx_time_get>
2ffc2dca:	4602      	mov	r2, r0
2ffc2dcc:	68fb      	ldr	r3, [r7, #12]
2ffc2dce:	1ad3      	subs	r3, r2, r3
2ffc2dd0:	687a      	ldr	r2, [r7, #4]
2ffc2dd2:	429a      	cmp	r2, r3
2ffc2dd4:	d8f7      	bhi.n	2ffc2dc6 <App_Delay+0x10>
2ffc2dd6:	bf00      	nop
2ffc2dd8:	bf00      	nop
2ffc2dda:	3710      	adds	r7, #16
2ffc2ddc:	46bd      	mov	sp, r7
2ffc2dde:	bd80      	pop	{r7, pc}

2ffc2de0 <_tx_initialize_low_level>:
2ffc2de0:	b672      	cpsid	i
2ffc2de2:	4668      	mov	r0, sp
2ffc2de4:	4671      	mov	r1, lr
2ffc2de6:	f04f 0300 	mov.w	r3, #0
2ffc2dea:	f3af 8112 	cps	#18
2ffc2dee:	469e      	mov	lr, r3
2ffc2df0:	f393 8f00 	msr	SPSR_fsxc, r3
2ffc2df4:	f3af 8111 	cps	#17
2ffc2df8:	4698      	mov	r8, r3
2ffc2dfa:	4699      	mov	r9, r3
2ffc2dfc:	469a      	mov	sl, r3
2ffc2dfe:	469b      	mov	fp, r3
2ffc2e00:	469c      	mov	ip, r3
2ffc2e02:	469e      	mov	lr, r3
2ffc2e04:	f393 8f00 	msr	SPSR_fsxc, r3
2ffc2e08:	f3af 8116 	cps	#22
2ffc2e0c:	469e      	mov	lr, r3
2ffc2e0e:	f393 8f00 	msr	SPSR_fsxc, r3
2ffc2e12:	f3af 8117 	cps	#23
2ffc2e16:	469e      	mov	lr, r3
2ffc2e18:	f393 8f00 	msr	SPSR_fsxc, r3
2ffc2e1c:	f3af 811b 	cps	#27
2ffc2e20:	469e      	mov	lr, r3
2ffc2e22:	f393 8f00 	msr	SPSR_fsxc, r3
2ffc2e26:	f3af 8113 	cps	#19
2ffc2e2a:	4685      	mov	sp, r0
2ffc2e2c:	468e      	mov	lr, r1
2ffc2e2e:	490f      	ldr	r1, [pc, #60]	@ (2ffc2e6c <VERSION_ID+0x4>)
2ffc2e30:	4a0f      	ldr	r2, [pc, #60]	@ (2ffc2e70 <VERSION_ID+0x8>)
2ffc2e32:	6011      	str	r1, [r2, #0]
2ffc2e34:	490f      	ldr	r1, [pc, #60]	@ (2ffc2e74 <VERSION_ID+0xc>)
2ffc2e36:	4a10      	ldr	r2, [pc, #64]	@ (2ffc2e78 <VERSION_ID+0x10>)
2ffc2e38:	f101 0108 	add.w	r1, r1, #8
2ffc2e3c:	6011      	str	r1, [r2, #0]
2ffc2e3e:	46f7      	mov	pc, lr

2ffc2e40 <__tx_undefined>:
2ffc2e40:	be00      	bkpt	0x0000

2ffc2e42 <__tx_undefined_loop>:
2ffc2e42:	e7fe      	b.n	2ffc2e42 <__tx_undefined_loop>

2ffc2e44 <__tx_swi_interrupt>:
2ffc2e44:	f7ff bffe 	b.w	2ffc2e44 <__tx_swi_interrupt>

2ffc2e48 <__tx_reserved_handler>:
2ffc2e48:	be00      	bkpt	0x0000

2ffc2e4a <__tx_reserved_handler_loop>:
2ffc2e4a:	e7fe      	b.n	2ffc2e4a <__tx_reserved_handler_loop>

2ffc2e4c <__tx_irq_handler>:
2ffc2e4c:	f005 bdc0 	b.w	2ffc89d0 <___tx_thread_context_save_from_thumb>

2ffc2e50 <__tx_irq_processing_return>:
2ffc2e50:	f7fd ff1f 	bl	2ffc0c92 <IRQ_Handler>
2ffc2e54:	f005 bdc0 	b.w	2ffc89d8 <___tx_thread_context_restore_from_thumb>

2ffc2e58 <__tx_fiq_handler>:
2ffc2e58:	be00      	bkpt	0x0000

2ffc2e5a <__tx_fiq_handler_loop>:
2ffc2e5a:	e7fe      	b.n	2ffc2e5a <__tx_fiq_handler_loop>

2ffc2e5c <__tx_prefetch_handler>:
2ffc2e5c:	be00      	bkpt	0x0000

2ffc2e5e <__tx_prefetch_handler_loop>:
2ffc2e5e:	e7fe      	b.n	2ffc2e5e <__tx_prefetch_handler_loop>

2ffc2e60 <__tx_abort_handler>:
2ffc2e60:	be00      	bkpt	0x0000

2ffc2e62 <__tx_abort_handler_loop>:
2ffc2e62:	e7fe      	b.n	2ffc2e62 <__tx_abort_handler_loop>

2ffc2e64 <BUILD_OPTIONS>:
2ffc2e64:	2ffcafd8 	.word	0x2ffcafd8

2ffc2e68 <VERSION_ID>:
2ffc2e68:	2ffca3ac 	.word	0x2ffca3ac
2ffc2e6c:	2ffd5600 	.word	0x2ffd5600
2ffc2e70:	2ffcaf30 	.word	0x2ffcaf30
2ffc2e74:	2ffdd600 	.word	0x2ffdd600
2ffc2e78:	2ffcaf2c 	.word	0x2ffcaf2c

2ffc2e7c <_tx_byte_allocate>:
2ffc2e7c:	b580      	push	{r7, lr}
2ffc2e7e:	b08c      	sub	sp, #48	@ 0x30
2ffc2e80:	af00      	add	r7, sp, #0
2ffc2e82:	60f8      	str	r0, [r7, #12]
2ffc2e84:	60b9      	str	r1, [r7, #8]
2ffc2e86:	607a      	str	r2, [r7, #4]
2ffc2e88:	603b      	str	r3, [r7, #0]
2ffc2e8a:	687b      	ldr	r3, [r7, #4]
2ffc2e8c:	3303      	adds	r3, #3
2ffc2e8e:	f023 0303 	bic.w	r3, r3, #3
2ffc2e92:	607b      	str	r3, [r7, #4]
2ffc2e94:	f002 edae 	blx	2ffc59f4 <_tx_thread_interrupt_disable>
2ffc2e98:	62f8      	str	r0, [r7, #44]	@ 0x2c
2ffc2e9a:	f64a 7334 	movw	r3, #44852	@ 0xaf34
2ffc2e9e:	f6c2 73fc 	movt	r3, #12284	@ 0x2ffc
2ffc2ea2:	681b      	ldr	r3, [r3, #0]
2ffc2ea4:	623b      	str	r3, [r7, #32]
2ffc2ea6:	2300      	movs	r3, #0
2ffc2ea8:	627b      	str	r3, [r7, #36]	@ 0x24
2ffc2eaa:	68fb      	ldr	r3, [r7, #12]
2ffc2eac:	6a3a      	ldr	r2, [r7, #32]
2ffc2eae:	621a      	str	r2, [r3, #32]
2ffc2eb0:	6af8      	ldr	r0, [r7, #44]	@ 0x2c
2ffc2eb2:	f002 eda6 	blx	2ffc5a00 <_tx_thread_interrupt_restore>
2ffc2eb6:	6879      	ldr	r1, [r7, #4]
2ffc2eb8:	68f8      	ldr	r0, [r7, #12]
2ffc2eba:	f000 f9a2 	bl	2ffc3202 <_tx_byte_pool_search>
2ffc2ebe:	61f8      	str	r0, [r7, #28]
2ffc2ec0:	f002 ed98 	blx	2ffc59f4 <_tx_thread_interrupt_disable>
2ffc2ec4:	62f8      	str	r0, [r7, #44]	@ 0x2c
2ffc2ec6:	69fb      	ldr	r3, [r7, #28]
2ffc2ec8:	2b00      	cmp	r3, #0
2ffc2eca:	d002      	beq.n	2ffc2ed2 <_tx_byte_allocate+0x56>
2ffc2ecc:	2301      	movs	r3, #1
2ffc2ece:	627b      	str	r3, [r7, #36]	@ 0x24
2ffc2ed0:	e006      	b.n	2ffc2ee0 <_tx_byte_allocate+0x64>
2ffc2ed2:	68fb      	ldr	r3, [r7, #12]
2ffc2ed4:	6a1b      	ldr	r3, [r3, #32]
2ffc2ed6:	6a3a      	ldr	r2, [r7, #32]
2ffc2ed8:	429a      	cmp	r2, r3
2ffc2eda:	d101      	bne.n	2ffc2ee0 <_tx_byte_allocate+0x64>
2ffc2edc:	2301      	movs	r3, #1
2ffc2ede:	627b      	str	r3, [r7, #36]	@ 0x24
2ffc2ee0:	6a7b      	ldr	r3, [r7, #36]	@ 0x24
2ffc2ee2:	2b00      	cmp	r3, #0
2ffc2ee4:	d0e1      	beq.n	2ffc2eaa <_tx_byte_allocate+0x2e>
2ffc2ee6:	68bb      	ldr	r3, [r7, #8]
2ffc2ee8:	69fa      	ldr	r2, [r7, #28]
2ffc2eea:	601a      	str	r2, [r3, #0]
2ffc2eec:	69fb      	ldr	r3, [r7, #28]
2ffc2eee:	2b00      	cmp	r3, #0
2ffc2ef0:	d005      	beq.n	2ffc2efe <_tx_byte_allocate+0x82>
2ffc2ef2:	6af8      	ldr	r0, [r7, #44]	@ 0x2c
2ffc2ef4:	f002 ed84 	blx	2ffc5a00 <_tx_thread_interrupt_restore>
2ffc2ef8:	2300      	movs	r3, #0
2ffc2efa:	62bb      	str	r3, [r7, #40]	@ 0x28
2ffc2efc:	e070      	b.n	2ffc2fe0 <_tx_byte_allocate+0x164>
2ffc2efe:	683b      	ldr	r3, [r7, #0]
2ffc2f00:	2b00      	cmp	r3, #0
2ffc2f02:	d068      	beq.n	2ffc2fd6 <_tx_byte_allocate+0x15a>
2ffc2f04:	f64a 73d0 	movw	r3, #45008	@ 0xafd0
2ffc2f08:	f6c2 73fc 	movt	r3, #12284	@ 0x2ffc
2ffc2f0c:	681b      	ldr	r3, [r3, #0]
2ffc2f0e:	2b00      	cmp	r3, #0
2ffc2f10:	d005      	beq.n	2ffc2f1e <_tx_byte_allocate+0xa2>
2ffc2f12:	2310      	movs	r3, #16
2ffc2f14:	62bb      	str	r3, [r7, #40]	@ 0x28
2ffc2f16:	6af8      	ldr	r0, [r7, #44]	@ 0x2c
2ffc2f18:	f002 ed72 	blx	2ffc5a00 <_tx_thread_interrupt_restore>
2ffc2f1c:	e060      	b.n	2ffc2fe0 <_tx_byte_allocate+0x164>
2ffc2f1e:	6a3a      	ldr	r2, [r7, #32]
2ffc2f20:	f642 73eb 	movw	r3, #12267	@ 0x2feb
2ffc2f24:	f6c2 73fc 	movt	r3, #12284	@ 0x2ffc
2ffc2f28:	6693      	str	r3, [r2, #104]	@ 0x68
2ffc2f2a:	6a3b      	ldr	r3, [r7, #32]
2ffc2f2c:	68fa      	ldr	r2, [r7, #12]
2ffc2f2e:	66da      	str	r2, [r3, #108]	@ 0x6c
2ffc2f30:	6a3b      	ldr	r3, [r7, #32]
2ffc2f32:	68ba      	ldr	r2, [r7, #8]
2ffc2f34:	67da      	str	r2, [r3, #124]	@ 0x7c
2ffc2f36:	6a3b      	ldr	r3, [r7, #32]
2ffc2f38:	687a      	ldr	r2, [r7, #4]
2ffc2f3a:	679a      	str	r2, [r3, #120]	@ 0x78
2ffc2f3c:	6a3b      	ldr	r3, [r7, #32]
2ffc2f3e:	f8d3 30b4 	ldr.w	r3, [r3, #180]	@ 0xb4
2ffc2f42:	1c5a      	adds	r2, r3, #1
2ffc2f44:	6a3b      	ldr	r3, [r7, #32]
2ffc2f46:	f8c3 20b4 	str.w	r2, [r3, #180]	@ 0xb4
2ffc2f4a:	68fb      	ldr	r3, [r7, #12]
2ffc2f4c:	6a9b      	ldr	r3, [r3, #40]	@ 0x28
2ffc2f4e:	61bb      	str	r3, [r7, #24]
2ffc2f50:	68fb      	ldr	r3, [r7, #12]
2ffc2f52:	6a9b      	ldr	r3, [r3, #40]	@ 0x28
2ffc2f54:	1c5a      	adds	r2, r3, #1
2ffc2f56:	68fb      	ldr	r3, [r7, #12]
2ffc2f58:	629a      	str	r2, [r3, #40]	@ 0x28
2ffc2f5a:	69bb      	ldr	r3, [r7, #24]
2ffc2f5c:	2b00      	cmp	r3, #0
2ffc2f5e:	d109      	bne.n	2ffc2f74 <_tx_byte_allocate+0xf8>
2ffc2f60:	68fb      	ldr	r3, [r7, #12]
2ffc2f62:	6a3a      	ldr	r2, [r7, #32]
2ffc2f64:	625a      	str	r2, [r3, #36]	@ 0x24
2ffc2f66:	6a3b      	ldr	r3, [r7, #32]
2ffc2f68:	6a3a      	ldr	r2, [r7, #32]
2ffc2f6a:	671a      	str	r2, [r3, #112]	@ 0x70
2ffc2f6c:	6a3b      	ldr	r3, [r7, #32]
2ffc2f6e:	6a3a      	ldr	r2, [r7, #32]
2ffc2f70:	675a      	str	r2, [r3, #116]	@ 0x74
2ffc2f72:	e011      	b.n	2ffc2f98 <_tx_byte_allocate+0x11c>
2ffc2f74:	68fb      	ldr	r3, [r7, #12]
2ffc2f76:	6a5b      	ldr	r3, [r3, #36]	@ 0x24
2ffc2f78:	617b      	str	r3, [r7, #20]
2ffc2f7a:	6a3b      	ldr	r3, [r7, #32]
2ffc2f7c:	697a      	ldr	r2, [r7, #20]
2ffc2f7e:	671a      	str	r2, [r3, #112]	@ 0x70
2ffc2f80:	697b      	ldr	r3, [r7, #20]
2ffc2f82:	6f5b      	ldr	r3, [r3, #116]	@ 0x74
2ffc2f84:	613b      	str	r3, [r7, #16]
2ffc2f86:	6a3b      	ldr	r3, [r7, #32]
2ffc2f88:	693a      	ldr	r2, [r7, #16]
2ffc2f8a:	675a      	str	r2, [r3, #116]	@ 0x74
2ffc2f8c:	693b      	ldr	r3, [r7, #16]
2ffc2f8e:	6a3a      	ldr	r2, [r7, #32]
2ffc2f90:	671a      	str	r2, [r3, #112]	@ 0x70
2ffc2f92:	697b      	ldr	r3, [r7, #20]
2ffc2f94:	6a3a      	ldr	r2, [r7, #32]
2ffc2f96:	675a      	str	r2, [r3, #116]	@ 0x74
2ffc2f98:	6a3b      	ldr	r3, [r7, #32]
2ffc2f9a:	2209      	movs	r2, #9
2ffc2f9c:	631a      	str	r2, [r3, #48]	@ 0x30
2ffc2f9e:	6a3b      	ldr	r3, [r7, #32]
2ffc2fa0:	2201      	movs	r2, #1
2ffc2fa2:	639a      	str	r2, [r3, #56]	@ 0x38
2ffc2fa4:	6a3b      	ldr	r3, [r7, #32]
2ffc2fa6:	683a      	ldr	r2, [r7, #0]
2ffc2fa8:	64da      	str	r2, [r3, #76]	@ 0x4c
2ffc2faa:	f64a 73d0 	movw	r3, #45008	@ 0xafd0
2ffc2fae:	f6c2 73fc 	movt	r3, #12284	@ 0x2ffc
2ffc2fb2:	681b      	ldr	r3, [r3, #0]
2ffc2fb4:	1c5a      	adds	r2, r3, #1
2ffc2fb6:	f64a 73d0 	movw	r3, #45008	@ 0xafd0
2ffc2fba:	f6c2 73fc 	movt	r3, #12284	@ 0x2ffc
2ffc2fbe:	601a      	str	r2, [r3, #0]
2ffc2fc0:	6af8      	ldr	r0, [r7, #44]	@ 0x2c
2ffc2fc2:	f002 ed1e 	blx	2ffc5a00 <_tx_thread_interrupt_restore>
2ffc2fc6:	6a38      	ldr	r0, [r7, #32]
2ffc2fc8:	f001 fe3b 	bl	2ffc4c42 <_tx_thread_system_suspend>
2ffc2fcc:	6a3b      	ldr	r3, [r7, #32]
2ffc2fce:	f8d3 3084 	ldr.w	r3, [r3, #132]	@ 0x84
2ffc2fd2:	62bb      	str	r3, [r7, #40]	@ 0x28
2ffc2fd4:	e004      	b.n	2ffc2fe0 <_tx_byte_allocate+0x164>
2ffc2fd6:	6af8      	ldr	r0, [r7, #44]	@ 0x2c
2ffc2fd8:	f002 ed12 	blx	2ffc5a00 <_tx_thread_interrupt_restore>
2ffc2fdc:	2310      	movs	r3, #16
2ffc2fde:	62bb      	str	r3, [r7, #40]	@ 0x28
2ffc2fe0:	6abb      	ldr	r3, [r7, #40]	@ 0x28
2ffc2fe2:	4618      	mov	r0, r3
2ffc2fe4:	3730      	adds	r7, #48	@ 0x30
2ffc2fe6:	46bd      	mov	sp, r7
2ffc2fe8:	bd80      	pop	{r7, pc}

2ffc2fea <_tx_byte_pool_cleanup>:
2ffc2fea:	b580      	push	{r7, lr}
2ffc2fec:	b088      	sub	sp, #32
2ffc2fee:	af00      	add	r7, sp, #0
2ffc2ff0:	6078      	str	r0, [r7, #4]
2ffc2ff2:	6039      	str	r1, [r7, #0]
2ffc2ff4:	f002 ecfe 	blx	2ffc59f4 <_tx_thread_interrupt_disable>
2ffc2ff8:	61f8      	str	r0, [r7, #28]
2ffc2ffa:	687b      	ldr	r3, [r7, #4]
2ffc2ffc:	6e9a      	ldr	r2, [r3, #104]	@ 0x68
2ffc2ffe:	f642 73eb 	movw	r3, #12267	@ 0x2feb
2ffc3002:	f6c2 73fc 	movt	r3, #12284	@ 0x2ffc
2ffc3006:	429a      	cmp	r2, r3
2ffc3008:	d159      	bne.n	2ffc30be <_tx_byte_pool_cleanup+0xd4>
2ffc300a:	687b      	ldr	r3, [r7, #4]
2ffc300c:	f8d3 30b4 	ldr.w	r3, [r3, #180]	@ 0xb4
2ffc3010:	683a      	ldr	r2, [r7, #0]
2ffc3012:	429a      	cmp	r2, r3
2ffc3014:	d153      	bne.n	2ffc30be <_tx_byte_pool_cleanup+0xd4>
2ffc3016:	687b      	ldr	r3, [r7, #4]
2ffc3018:	6edb      	ldr	r3, [r3, #108]	@ 0x6c
2ffc301a:	61bb      	str	r3, [r7, #24]
2ffc301c:	69bb      	ldr	r3, [r7, #24]
2ffc301e:	2b00      	cmp	r3, #0
2ffc3020:	d04d      	beq.n	2ffc30be <_tx_byte_pool_cleanup+0xd4>
2ffc3022:	69bb      	ldr	r3, [r7, #24]
2ffc3024:	681a      	ldr	r2, [r3, #0]
2ffc3026:	f245 4345 	movw	r3, #21573	@ 0x5445
2ffc302a:	f2c4 2359 	movt	r3, #16985	@ 0x4259
2ffc302e:	429a      	cmp	r2, r3
2ffc3030:	d145      	bne.n	2ffc30be <_tx_byte_pool_cleanup+0xd4>
2ffc3032:	69bb      	ldr	r3, [r7, #24]
2ffc3034:	6a9b      	ldr	r3, [r3, #40]	@ 0x28
2ffc3036:	2b00      	cmp	r3, #0
2ffc3038:	d041      	beq.n	2ffc30be <_tx_byte_pool_cleanup+0xd4>
2ffc303a:	687b      	ldr	r3, [r7, #4]
2ffc303c:	2200      	movs	r2, #0
2ffc303e:	669a      	str	r2, [r3, #104]	@ 0x68
2ffc3040:	69bb      	ldr	r3, [r7, #24]
2ffc3042:	6a9b      	ldr	r3, [r3, #40]	@ 0x28
2ffc3044:	1e5a      	subs	r2, r3, #1
2ffc3046:	69bb      	ldr	r3, [r7, #24]
2ffc3048:	629a      	str	r2, [r3, #40]	@ 0x28
2ffc304a:	69bb      	ldr	r3, [r7, #24]
2ffc304c:	6a9b      	ldr	r3, [r3, #40]	@ 0x28
2ffc304e:	617b      	str	r3, [r7, #20]
2ffc3050:	697b      	ldr	r3, [r7, #20]
2ffc3052:	2b00      	cmp	r3, #0
2ffc3054:	d103      	bne.n	2ffc305e <_tx_byte_pool_cleanup+0x74>
2ffc3056:	69bb      	ldr	r3, [r7, #24]
2ffc3058:	2200      	movs	r2, #0
2ffc305a:	625a      	str	r2, [r3, #36]	@ 0x24
2ffc305c:	e013      	b.n	2ffc3086 <_tx_byte_pool_cleanup+0x9c>
2ffc305e:	687b      	ldr	r3, [r7, #4]
2ffc3060:	6f1b      	ldr	r3, [r3, #112]	@ 0x70
2ffc3062:	613b      	str	r3, [r7, #16]
2ffc3064:	687b      	ldr	r3, [r7, #4]
2ffc3066:	6f5b      	ldr	r3, [r3, #116]	@ 0x74
2ffc3068:	60fb      	str	r3, [r7, #12]
2ffc306a:	693b      	ldr	r3, [r7, #16]
2ffc306c:	68fa      	ldr	r2, [r7, #12]
2ffc306e:	675a      	str	r2, [r3, #116]	@ 0x74
2ffc3070:	68fb      	ldr	r3, [r7, #12]
2ffc3072:	693a      	ldr	r2, [r7, #16]
2ffc3074:	671a      	str	r2, [r3, #112]	@ 0x70
2ffc3076:	69bb      	ldr	r3, [r7, #24]
2ffc3078:	6a5b      	ldr	r3, [r3, #36]	@ 0x24
2ffc307a:	687a      	ldr	r2, [r7, #4]
2ffc307c:	429a      	cmp	r2, r3
2ffc307e:	d102      	bne.n	2ffc3086 <_tx_byte_pool_cleanup+0x9c>
2ffc3080:	69bb      	ldr	r3, [r7, #24]
2ffc3082:	693a      	ldr	r2, [r7, #16]
2ffc3084:	625a      	str	r2, [r3, #36]	@ 0x24
2ffc3086:	687b      	ldr	r3, [r7, #4]
2ffc3088:	6b1b      	ldr	r3, [r3, #48]	@ 0x30
2ffc308a:	2b09      	cmp	r3, #9
2ffc308c:	d117      	bne.n	2ffc30be <_tx_byte_pool_cleanup+0xd4>
2ffc308e:	687b      	ldr	r3, [r7, #4]
2ffc3090:	2210      	movs	r2, #16
2ffc3092:	f8c3 2084 	str.w	r2, [r3, #132]	@ 0x84
2ffc3096:	f64a 73d0 	movw	r3, #45008	@ 0xafd0
2ffc309a:	f6c2 73fc 	movt	r3, #12284	@ 0x2ffc
2ffc309e:	681b      	ldr	r3, [r3, #0]
2ffc30a0:	1c5a      	adds	r2, r3, #1
2ffc30a2:	f64a 73d0 	movw	r3, #45008	@ 0xafd0
2ffc30a6:	f6c2 73fc 	movt	r3, #12284	@ 0x2ffc
2ffc30aa:	601a      	str	r2, [r3, #0]
2ffc30ac:	69f8      	ldr	r0, [r7, #28]
2ffc30ae:	f002 eca8 	blx	2ffc5a00 <_tx_thread_interrupt_restore>
2ffc30b2:	6878      	ldr	r0, [r7, #4]
2ffc30b4:	f001 fcb6 	bl	2ffc4a24 <_tx_thread_system_resume>
2ffc30b8:	f002 ec9c 	blx	2ffc59f4 <_tx_thread_interrupt_disable>
2ffc30bc:	61f8      	str	r0, [r7, #28]
2ffc30be:	69f8      	ldr	r0, [r7, #28]
2ffc30c0:	f002 ec9e 	blx	2ffc5a00 <_tx_thread_interrupt_restore>
2ffc30c4:	bf00      	nop
2ffc30c6:	3720      	adds	r7, #32
2ffc30c8:	46bd      	mov	sp, r7
2ffc30ca:	bd80      	pop	{r7, pc}

2ffc30cc <_tx_byte_pool_create>:
2ffc30cc:	b580      	push	{r7, lr}
2ffc30ce:	b08c      	sub	sp, #48	@ 0x30
2ffc30d0:	af00      	add	r7, sp, #0
2ffc30d2:	60f8      	str	r0, [r7, #12]
2ffc30d4:	60b9      	str	r1, [r7, #8]
2ffc30d6:	607a      	str	r2, [r7, #4]
2ffc30d8:	603b      	str	r3, [r7, #0]
2ffc30da:	2234      	movs	r2, #52	@ 0x34
2ffc30dc:	2100      	movs	r1, #0
2ffc30de:	68f8      	ldr	r0, [r7, #12]
2ffc30e0:	f005 fbf1 	bl	2ffc88c6 <memset>
2ffc30e4:	683b      	ldr	r3, [r7, #0]
2ffc30e6:	f023 0303 	bic.w	r3, r3, #3
2ffc30ea:	603b      	str	r3, [r7, #0]
2ffc30ec:	68fb      	ldr	r3, [r7, #12]
2ffc30ee:	68ba      	ldr	r2, [r7, #8]
2ffc30f0:	605a      	str	r2, [r3, #4]
2ffc30f2:	68fb      	ldr	r3, [r7, #12]
2ffc30f4:	687a      	ldr	r2, [r7, #4]
2ffc30f6:	619a      	str	r2, [r3, #24]
2ffc30f8:	68fb      	ldr	r3, [r7, #12]
2ffc30fa:	683a      	ldr	r2, [r7, #0]
2ffc30fc:	61da      	str	r2, [r3, #28]
2ffc30fe:	68fb      	ldr	r3, [r7, #12]
2ffc3100:	687a      	ldr	r2, [r7, #4]
2ffc3102:	611a      	str	r2, [r3, #16]
2ffc3104:	68fb      	ldr	r3, [r7, #12]
2ffc3106:	687a      	ldr	r2, [r7, #4]
2ffc3108:	615a      	str	r2, [r3, #20]
2ffc310a:	683b      	ldr	r3, [r7, #0]
2ffc310c:	f1a3 0208 	sub.w	r2, r3, #8
2ffc3110:	68fb      	ldr	r3, [r7, #12]
2ffc3112:	609a      	str	r2, [r3, #8]
2ffc3114:	68fb      	ldr	r3, [r7, #12]
2ffc3116:	2202      	movs	r2, #2
2ffc3118:	60da      	str	r2, [r3, #12]
2ffc311a:	687b      	ldr	r3, [r7, #4]
2ffc311c:	62fb      	str	r3, [r7, #44]	@ 0x2c
2ffc311e:	6afa      	ldr	r2, [r7, #44]	@ 0x2c
2ffc3120:	683b      	ldr	r3, [r7, #0]
2ffc3122:	4413      	add	r3, r2
2ffc3124:	62fb      	str	r3, [r7, #44]	@ 0x2c
2ffc3126:	6afb      	ldr	r3, [r7, #44]	@ 0x2c
2ffc3128:	3b04      	subs	r3, #4
2ffc312a:	62fb      	str	r3, [r7, #44]	@ 0x2c
2ffc312c:	68fb      	ldr	r3, [r7, #12]
2ffc312e:	62bb      	str	r3, [r7, #40]	@ 0x28
2ffc3130:	6afb      	ldr	r3, [r7, #44]	@ 0x2c
2ffc3132:	627b      	str	r3, [r7, #36]	@ 0x24
2ffc3134:	6a7b      	ldr	r3, [r7, #36]	@ 0x24
2ffc3136:	6aba      	ldr	r2, [r7, #40]	@ 0x28
2ffc3138:	601a      	str	r2, [r3, #0]
2ffc313a:	6afb      	ldr	r3, [r7, #44]	@ 0x2c
2ffc313c:	3b04      	subs	r3, #4
2ffc313e:	62fb      	str	r3, [r7, #44]	@ 0x2c
2ffc3140:	6afb      	ldr	r3, [r7, #44]	@ 0x2c
2ffc3142:	627b      	str	r3, [r7, #36]	@ 0x24
2ffc3144:	6a7b      	ldr	r3, [r7, #36]	@ 0x24
2ffc3146:	687a      	ldr	r2, [r7, #4]
2ffc3148:	601a      	str	r2, [r3, #0]
2ffc314a:	687b      	ldr	r3, [r7, #4]
2ffc314c:	62bb      	str	r3, [r7, #40]	@ 0x28
2ffc314e:	6abb      	ldr	r3, [r7, #40]	@ 0x28
2ffc3150:	627b      	str	r3, [r7, #36]	@ 0x24
2ffc3152:	6a7b      	ldr	r3, [r7, #36]	@ 0x24
2ffc3154:	6afa      	ldr	r2, [r7, #44]	@ 0x2c
2ffc3156:	601a      	str	r2, [r3, #0]
2ffc3158:	687b      	ldr	r3, [r7, #4]
2ffc315a:	62fb      	str	r3, [r7, #44]	@ 0x2c
2ffc315c:	6afb      	ldr	r3, [r7, #44]	@ 0x2c
2ffc315e:	3304      	adds	r3, #4
2ffc3160:	62fb      	str	r3, [r7, #44]	@ 0x2c
2ffc3162:	6afb      	ldr	r3, [r7, #44]	@ 0x2c
2ffc3164:	623b      	str	r3, [r7, #32]
2ffc3166:	6a3a      	ldr	r2, [r7, #32]
2ffc3168:	f64e 63ee 	movw	r3, #61166	@ 0xeeee
2ffc316c:	f6cf 73ff 	movt	r3, #65535	@ 0xffff
2ffc3170:	6013      	str	r3, [r2, #0]
2ffc3172:	68fb      	ldr	r3, [r7, #12]
2ffc3174:	2200      	movs	r2, #0
2ffc3176:	621a      	str	r2, [r3, #32]
2ffc3178:	f002 ec3c 	blx	2ffc59f4 <_tx_thread_interrupt_disable>
2ffc317c:	61f8      	str	r0, [r7, #28]
2ffc317e:	68fa      	ldr	r2, [r7, #12]
2ffc3180:	f245 4345 	movw	r3, #21573	@ 0x5445
2ffc3184:	f2c4 2359 	movt	r3, #16985	@ 0x4259
2ffc3188:	6013      	str	r3, [r2, #0]
2ffc318a:	f64a 7328 	movw	r3, #44840	@ 0xaf28
2ffc318e:	f6c2 73fc 	movt	r3, #12284	@ 0x2ffc
2ffc3192:	681b      	ldr	r3, [r3, #0]
2ffc3194:	2b00      	cmp	r3, #0
2ffc3196:	d10c      	bne.n	2ffc31b2 <_tx_byte_pool_create+0xe6>
2ffc3198:	f64a 7324 	movw	r3, #44836	@ 0xaf24
2ffc319c:	f6c2 73fc 	movt	r3, #12284	@ 0x2ffc
2ffc31a0:	68fa      	ldr	r2, [r7, #12]
2ffc31a2:	601a      	str	r2, [r3, #0]
2ffc31a4:	68fb      	ldr	r3, [r7, #12]
2ffc31a6:	68fa      	ldr	r2, [r7, #12]
2ffc31a8:	62da      	str	r2, [r3, #44]	@ 0x2c
2ffc31aa:	68fb      	ldr	r3, [r7, #12]
2ffc31ac:	68fa      	ldr	r2, [r7, #12]
2ffc31ae:	631a      	str	r2, [r3, #48]	@ 0x30
2ffc31b0:	e014      	b.n	2ffc31dc <_tx_byte_pool_create+0x110>
2ffc31b2:	f64a 7324 	movw	r3, #44836	@ 0xaf24
2ffc31b6:	f6c2 73fc 	movt	r3, #12284	@ 0x2ffc
2ffc31ba:	681b      	ldr	r3, [r3, #0]
2ffc31bc:	61bb      	str	r3, [r7, #24]
2ffc31be:	69bb      	ldr	r3, [r7, #24]
2ffc31c0:	6b1b      	ldr	r3, [r3, #48]	@ 0x30
2ffc31c2:	617b      	str	r3, [r7, #20]
2ffc31c4:	69bb      	ldr	r3, [r7, #24]
2ffc31c6:	68fa      	ldr	r2, [r7, #12]
2ffc31c8:	631a      	str	r2, [r3, #48]	@ 0x30
2ffc31ca:	697b      	ldr	r3, [r7, #20]
2ffc31cc:	68fa      	ldr	r2, [r7, #12]
2ffc31ce:	62da      	str	r2, [r3, #44]	@ 0x2c
2ffc31d0:	68fb      	ldr	r3, [r7, #12]
2ffc31d2:	697a      	ldr	r2, [r7, #20]
2ffc31d4:	631a      	str	r2, [r3, #48]	@ 0x30
2ffc31d6:	68fb      	ldr	r3, [r7, #12]
2ffc31d8:	69ba      	ldr	r2, [r7, #24]
2ffc31da:	62da      	str	r2, [r3, #44]	@ 0x2c
2ffc31dc:	f64a 7328 	movw	r3, #44840	@ 0xaf28
2ffc31e0:	f6c2 73fc 	movt	r3, #12284	@ 0x2ffc
2ffc31e4:	681b      	ldr	r3, [r3, #0]
2ffc31e6:	1c5a      	adds	r2, r3, #1
2ffc31e8:	f64a 7328 	movw	r3, #44840	@ 0xaf28
2ffc31ec:	f6c2 73fc 	movt	r3, #12284	@ 0x2ffc
2ffc31f0:	601a      	str	r2, [r3, #0]
2ffc31f2:	69f8      	ldr	r0, [r7, #28]
2ffc31f4:	f002 ec04 	blx	2ffc5a00 <_tx_thread_interrupt_restore>
2ffc31f8:	2300      	movs	r3, #0
2ffc31fa:	4618      	mov	r0, r3
2ffc31fc:	3730      	adds	r7, #48	@ 0x30
2ffc31fe:	46bd      	mov	sp, r7
2ffc3200:	bd80      	pop	{r7, pc}

2ffc3202 <_tx_byte_pool_search>:
2ffc3202:	b580      	push	{r7, lr}
2ffc3204:	b08e      	sub	sp, #56	@ 0x38
2ffc3206:	af00      	add	r7, sp, #0
2ffc3208:	6078      	str	r0, [r7, #4]
2ffc320a:	6039      	str	r1, [r7, #0]
2ffc320c:	2300      	movs	r3, #0
2ffc320e:	627b      	str	r3, [r7, #36]	@ 0x24
2ffc3210:	f002 ebf0 	blx	2ffc59f4 <_tx_thread_interrupt_disable>
2ffc3214:	6378      	str	r0, [r7, #52]	@ 0x34
2ffc3216:	687b      	ldr	r3, [r7, #4]
2ffc3218:	689a      	ldr	r2, [r3, #8]
2ffc321a:	687b      	ldr	r3, [r7, #4]
2ffc321c:	68db      	ldr	r3, [r3, #12]
2ffc321e:	3b02      	subs	r3, #2
2ffc3220:	00db      	lsls	r3, r3, #3
2ffc3222:	4413      	add	r3, r2
2ffc3224:	623b      	str	r3, [r7, #32]
2ffc3226:	683a      	ldr	r2, [r7, #0]
2ffc3228:	6a3b      	ldr	r3, [r7, #32]
2ffc322a:	429a      	cmp	r2, r3
2ffc322c:	d305      	bcc.n	2ffc323a <_tx_byte_pool_search+0x38>
2ffc322e:	6b78      	ldr	r0, [r7, #52]	@ 0x34
2ffc3230:	f002 ebe6 	blx	2ffc5a00 <_tx_thread_interrupt_restore>
2ffc3234:	2300      	movs	r3, #0
2ffc3236:	633b      	str	r3, [r7, #48]	@ 0x30
2ffc3238:	e0db      	b.n	2ffc33f2 <_tx_byte_pool_search+0x1f0>
2ffc323a:	f64a 7334 	movw	r3, #44852	@ 0xaf34
2ffc323e:	f6c2 73fc 	movt	r3, #12284	@ 0x2ffc
2ffc3242:	681b      	ldr	r3, [r3, #0]
2ffc3244:	61fb      	str	r3, [r7, #28]
2ffc3246:	687b      	ldr	r3, [r7, #4]
2ffc3248:	69fa      	ldr	r2, [r7, #28]
2ffc324a:	621a      	str	r2, [r3, #32]
2ffc324c:	687b      	ldr	r3, [r7, #4]
2ffc324e:	695b      	ldr	r3, [r3, #20]
2ffc3250:	633b      	str	r3, [r7, #48]	@ 0x30
2ffc3252:	687b      	ldr	r3, [r7, #4]
2ffc3254:	68db      	ldr	r3, [r3, #12]
2ffc3256:	3301      	adds	r3, #1
2ffc3258:	62bb      	str	r3, [r7, #40]	@ 0x28
2ffc325a:	2300      	movs	r3, #0
2ffc325c:	62fb      	str	r3, [r7, #44]	@ 0x2c
2ffc325e:	6b3b      	ldr	r3, [r7, #48]	@ 0x30
2ffc3260:	3304      	adds	r3, #4
2ffc3262:	61bb      	str	r3, [r7, #24]
2ffc3264:	69bb      	ldr	r3, [r7, #24]
2ffc3266:	617b      	str	r3, [r7, #20]
2ffc3268:	697b      	ldr	r3, [r7, #20]
2ffc326a:	681a      	ldr	r2, [r3, #0]
2ffc326c:	f64e 63ee 	movw	r3, #61166	@ 0xeeee
2ffc3270:	f6cf 73ff 	movt	r3, #65535	@ 0xffff
2ffc3274:	429a      	cmp	r2, r3
2ffc3276:	d146      	bne.n	2ffc3306 <_tx_byte_pool_search+0x104>
2ffc3278:	6a7b      	ldr	r3, [r7, #36]	@ 0x24
2ffc327a:	2b00      	cmp	r3, #0
2ffc327c:	d104      	bne.n	2ffc3288 <_tx_byte_pool_search+0x86>
2ffc327e:	687b      	ldr	r3, [r7, #4]
2ffc3280:	6b3a      	ldr	r2, [r7, #48]	@ 0x30
2ffc3282:	615a      	str	r2, [r3, #20]
2ffc3284:	2301      	movs	r3, #1
2ffc3286:	627b      	str	r3, [r7, #36]	@ 0x24
2ffc3288:	6b3b      	ldr	r3, [r7, #48]	@ 0x30
2ffc328a:	613b      	str	r3, [r7, #16]
2ffc328c:	693b      	ldr	r3, [r7, #16]
2ffc328e:	681b      	ldr	r3, [r3, #0]
2ffc3290:	60fb      	str	r3, [r7, #12]
2ffc3292:	68fa      	ldr	r2, [r7, #12]
2ffc3294:	6b3b      	ldr	r3, [r7, #48]	@ 0x30
2ffc3296:	1ad3      	subs	r3, r2, r3
2ffc3298:	62fb      	str	r3, [r7, #44]	@ 0x2c
2ffc329a:	6afb      	ldr	r3, [r7, #44]	@ 0x2c
2ffc329c:	3b08      	subs	r3, #8
2ffc329e:	62fb      	str	r3, [r7, #44]	@ 0x2c
2ffc32a0:	6afa      	ldr	r2, [r7, #44]	@ 0x2c
2ffc32a2:	683b      	ldr	r3, [r7, #0]
2ffc32a4:	429a      	cmp	r2, r3
2ffc32a6:	d252      	bcs.n	2ffc334e <_tx_byte_pool_search+0x14c>
2ffc32a8:	2300      	movs	r3, #0
2ffc32aa:	62fb      	str	r3, [r7, #44]	@ 0x2c
2ffc32ac:	68fb      	ldr	r3, [r7, #12]
2ffc32ae:	3304      	adds	r3, #4
2ffc32b0:	61bb      	str	r3, [r7, #24]
2ffc32b2:	69bb      	ldr	r3, [r7, #24]
2ffc32b4:	617b      	str	r3, [r7, #20]
2ffc32b6:	697b      	ldr	r3, [r7, #20]
2ffc32b8:	681a      	ldr	r2, [r3, #0]
2ffc32ba:	f64e 63ee 	movw	r3, #61166	@ 0xeeee
2ffc32be:	f6cf 73ff 	movt	r3, #65535	@ 0xffff
2ffc32c2:	429a      	cmp	r2, r3
2ffc32c4:	d113      	bne.n	2ffc32ee <_tx_byte_pool_search+0xec>
2ffc32c6:	68fb      	ldr	r3, [r7, #12]
2ffc32c8:	60bb      	str	r3, [r7, #8]
2ffc32ca:	68bb      	ldr	r3, [r7, #8]
2ffc32cc:	681a      	ldr	r2, [r3, #0]
2ffc32ce:	693b      	ldr	r3, [r7, #16]
2ffc32d0:	601a      	str	r2, [r3, #0]
2ffc32d2:	687b      	ldr	r3, [r7, #4]
2ffc32d4:	68db      	ldr	r3, [r3, #12]
2ffc32d6:	1e5a      	subs	r2, r3, #1
2ffc32d8:	687b      	ldr	r3, [r7, #4]
2ffc32da:	60da      	str	r2, [r3, #12]
2ffc32dc:	687b      	ldr	r3, [r7, #4]
2ffc32de:	695b      	ldr	r3, [r3, #20]
2ffc32e0:	68fa      	ldr	r2, [r7, #12]
2ffc32e2:	429a      	cmp	r2, r3
2ffc32e4:	d114      	bne.n	2ffc3310 <_tx_byte_pool_search+0x10e>
2ffc32e6:	687b      	ldr	r3, [r7, #4]
2ffc32e8:	6b3a      	ldr	r2, [r7, #48]	@ 0x30
2ffc32ea:	615a      	str	r2, [r3, #20]
2ffc32ec:	e010      	b.n	2ffc3310 <_tx_byte_pool_search+0x10e>
2ffc32ee:	68fb      	ldr	r3, [r7, #12]
2ffc32f0:	60bb      	str	r3, [r7, #8]
2ffc32f2:	68bb      	ldr	r3, [r7, #8]
2ffc32f4:	681b      	ldr	r3, [r3, #0]
2ffc32f6:	633b      	str	r3, [r7, #48]	@ 0x30
2ffc32f8:	6abb      	ldr	r3, [r7, #40]	@ 0x28
2ffc32fa:	2b00      	cmp	r3, #0
2ffc32fc:	d008      	beq.n	2ffc3310 <_tx_byte_pool_search+0x10e>
2ffc32fe:	6abb      	ldr	r3, [r7, #40]	@ 0x28
2ffc3300:	3b01      	subs	r3, #1
2ffc3302:	62bb      	str	r3, [r7, #40]	@ 0x28
2ffc3304:	e004      	b.n	2ffc3310 <_tx_byte_pool_search+0x10e>
2ffc3306:	6b3b      	ldr	r3, [r7, #48]	@ 0x30
2ffc3308:	613b      	str	r3, [r7, #16]
2ffc330a:	693b      	ldr	r3, [r7, #16]
2ffc330c:	681b      	ldr	r3, [r3, #0]
2ffc330e:	633b      	str	r3, [r7, #48]	@ 0x30
2ffc3310:	6abb      	ldr	r3, [r7, #40]	@ 0x28
2ffc3312:	2b00      	cmp	r3, #0
2ffc3314:	d002      	beq.n	2ffc331c <_tx_byte_pool_search+0x11a>
2ffc3316:	6abb      	ldr	r3, [r7, #40]	@ 0x28
2ffc3318:	3b01      	subs	r3, #1
2ffc331a:	62bb      	str	r3, [r7, #40]	@ 0x28
2ffc331c:	6b78      	ldr	r0, [r7, #52]	@ 0x34
2ffc331e:	f002 eb70 	blx	2ffc5a00 <_tx_thread_interrupt_restore>
2ffc3322:	f002 eb68 	blx	2ffc59f4 <_tx_thread_interrupt_disable>
2ffc3326:	6378      	str	r0, [r7, #52]	@ 0x34
2ffc3328:	687b      	ldr	r3, [r7, #4]
2ffc332a:	6a1b      	ldr	r3, [r3, #32]
2ffc332c:	69fa      	ldr	r2, [r7, #28]
2ffc332e:	429a      	cmp	r2, r3
2ffc3330:	d009      	beq.n	2ffc3346 <_tx_byte_pool_search+0x144>
2ffc3332:	687b      	ldr	r3, [r7, #4]
2ffc3334:	695b      	ldr	r3, [r3, #20]
2ffc3336:	633b      	str	r3, [r7, #48]	@ 0x30
2ffc3338:	687b      	ldr	r3, [r7, #4]
2ffc333a:	68db      	ldr	r3, [r3, #12]
2ffc333c:	3301      	adds	r3, #1
2ffc333e:	62bb      	str	r3, [r7, #40]	@ 0x28
2ffc3340:	687b      	ldr	r3, [r7, #4]
2ffc3342:	69fa      	ldr	r2, [r7, #28]
2ffc3344:	621a      	str	r2, [r3, #32]
2ffc3346:	6abb      	ldr	r3, [r7, #40]	@ 0x28
2ffc3348:	2b00      	cmp	r3, #0
2ffc334a:	d188      	bne.n	2ffc325e <_tx_byte_pool_search+0x5c>
2ffc334c:	e000      	b.n	2ffc3350 <_tx_byte_pool_search+0x14e>
2ffc334e:	bf00      	nop
2ffc3350:	6afb      	ldr	r3, [r7, #44]	@ 0x2c
2ffc3352:	2b00      	cmp	r3, #0
2ffc3354:	d048      	beq.n	2ffc33e8 <_tx_byte_pool_search+0x1e6>
2ffc3356:	6afa      	ldr	r2, [r7, #44]	@ 0x2c
2ffc3358:	683b      	ldr	r3, [r7, #0]
2ffc335a:	1ad3      	subs	r3, r2, r3
2ffc335c:	2b13      	cmp	r3, #19
2ffc335e:	d921      	bls.n	2ffc33a4 <_tx_byte_pool_search+0x1a2>
2ffc3360:	683b      	ldr	r3, [r7, #0]
2ffc3362:	3308      	adds	r3, #8
2ffc3364:	6b3a      	ldr	r2, [r7, #48]	@ 0x30
2ffc3366:	4413      	add	r3, r2
2ffc3368:	60fb      	str	r3, [r7, #12]
2ffc336a:	68fb      	ldr	r3, [r7, #12]
2ffc336c:	60bb      	str	r3, [r7, #8]
2ffc336e:	6b3b      	ldr	r3, [r7, #48]	@ 0x30
2ffc3370:	613b      	str	r3, [r7, #16]
2ffc3372:	693b      	ldr	r3, [r7, #16]
2ffc3374:	681a      	ldr	r2, [r3, #0]
2ffc3376:	68bb      	ldr	r3, [r7, #8]
2ffc3378:	601a      	str	r2, [r3, #0]
2ffc337a:	68fb      	ldr	r3, [r7, #12]
2ffc337c:	3304      	adds	r3, #4
2ffc337e:	61bb      	str	r3, [r7, #24]
2ffc3380:	69bb      	ldr	r3, [r7, #24]
2ffc3382:	617b      	str	r3, [r7, #20]
2ffc3384:	697a      	ldr	r2, [r7, #20]
2ffc3386:	f64e 63ee 	movw	r3, #61166	@ 0xeeee
2ffc338a:	f6cf 73ff 	movt	r3, #65535	@ 0xffff
2ffc338e:	6013      	str	r3, [r2, #0]
2ffc3390:	687b      	ldr	r3, [r7, #4]
2ffc3392:	68db      	ldr	r3, [r3, #12]
2ffc3394:	1c5a      	adds	r2, r3, #1
2ffc3396:	687b      	ldr	r3, [r7, #4]
2ffc3398:	60da      	str	r2, [r3, #12]
2ffc339a:	693b      	ldr	r3, [r7, #16]
2ffc339c:	68fa      	ldr	r2, [r7, #12]
2ffc339e:	601a      	str	r2, [r3, #0]
2ffc33a0:	683b      	ldr	r3, [r7, #0]
2ffc33a2:	62fb      	str	r3, [r7, #44]	@ 0x2c
2ffc33a4:	6b3b      	ldr	r3, [r7, #48]	@ 0x30
2ffc33a6:	3304      	adds	r3, #4
2ffc33a8:	61bb      	str	r3, [r7, #24]
2ffc33aa:	69bb      	ldr	r3, [r7, #24]
2ffc33ac:	613b      	str	r3, [r7, #16]
2ffc33ae:	693b      	ldr	r3, [r7, #16]
2ffc33b0:	687a      	ldr	r2, [r7, #4]
2ffc33b2:	601a      	str	r2, [r3, #0]
2ffc33b4:	687b      	ldr	r3, [r7, #4]
2ffc33b6:	689a      	ldr	r2, [r3, #8]
2ffc33b8:	6afb      	ldr	r3, [r7, #44]	@ 0x2c
2ffc33ba:	1ad3      	subs	r3, r2, r3
2ffc33bc:	f1a3 0208 	sub.w	r2, r3, #8
2ffc33c0:	687b      	ldr	r3, [r7, #4]
2ffc33c2:	609a      	str	r2, [r3, #8]
2ffc33c4:	687b      	ldr	r3, [r7, #4]
2ffc33c6:	695b      	ldr	r3, [r3, #20]
2ffc33c8:	6b3a      	ldr	r2, [r7, #48]	@ 0x30
2ffc33ca:	429a      	cmp	r2, r3
2ffc33cc:	d105      	bne.n	2ffc33da <_tx_byte_pool_search+0x1d8>
2ffc33ce:	6b3b      	ldr	r3, [r7, #48]	@ 0x30
2ffc33d0:	613b      	str	r3, [r7, #16]
2ffc33d2:	693b      	ldr	r3, [r7, #16]
2ffc33d4:	681a      	ldr	r2, [r3, #0]
2ffc33d6:	687b      	ldr	r3, [r7, #4]
2ffc33d8:	615a      	str	r2, [r3, #20]
2ffc33da:	6b78      	ldr	r0, [r7, #52]	@ 0x34
2ffc33dc:	f002 eb10 	blx	2ffc5a00 <_tx_thread_interrupt_restore>
2ffc33e0:	6b3b      	ldr	r3, [r7, #48]	@ 0x30
2ffc33e2:	3308      	adds	r3, #8
2ffc33e4:	633b      	str	r3, [r7, #48]	@ 0x30
2ffc33e6:	e004      	b.n	2ffc33f2 <_tx_byte_pool_search+0x1f0>
2ffc33e8:	6b78      	ldr	r0, [r7, #52]	@ 0x34
2ffc33ea:	f002 eb0a 	blx	2ffc5a00 <_tx_thread_interrupt_restore>
2ffc33ee:	2300      	movs	r3, #0
2ffc33f0:	633b      	str	r3, [r7, #48]	@ 0x30
2ffc33f2:	6b3b      	ldr	r3, [r7, #48]	@ 0x30
2ffc33f4:	4618      	mov	r0, r3
2ffc33f6:	3738      	adds	r7, #56	@ 0x38
2ffc33f8:	46bd      	mov	sp, r7
2ffc33fa:	bd80      	pop	{r7, pc}

2ffc33fc <_txe_byte_allocate>:
2ffc33fc:	b580      	push	{r7, lr}
2ffc33fe:	b086      	sub	sp, #24
2ffc3400:	af00      	add	r7, sp, #0
2ffc3402:	60f8      	str	r0, [r7, #12]
2ffc3404:	60b9      	str	r1, [r7, #8]
2ffc3406:	607a      	str	r2, [r7, #4]
2ffc3408:	603b      	str	r3, [r7, #0]
2ffc340a:	2300      	movs	r3, #0
2ffc340c:	617b      	str	r3, [r7, #20]
2ffc340e:	68fb      	ldr	r3, [r7, #12]
2ffc3410:	2b00      	cmp	r3, #0
2ffc3412:	d102      	bne.n	2ffc341a <_txe_byte_allocate+0x1e>
2ffc3414:	2302      	movs	r3, #2
2ffc3416:	617b      	str	r3, [r7, #20]
2ffc3418:	e02a      	b.n	2ffc3470 <_txe_byte_allocate+0x74>
2ffc341a:	68fb      	ldr	r3, [r7, #12]
2ffc341c:	681a      	ldr	r2, [r3, #0]
2ffc341e:	f245 4345 	movw	r3, #21573	@ 0x5445
2ffc3422:	f2c4 2359 	movt	r3, #16985	@ 0x4259
2ffc3426:	429a      	cmp	r2, r3
2ffc3428:	d002      	beq.n	2ffc3430 <_txe_byte_allocate+0x34>
2ffc342a:	2302      	movs	r3, #2
2ffc342c:	617b      	str	r3, [r7, #20]
2ffc342e:	e01f      	b.n	2ffc3470 <_txe_byte_allocate+0x74>
2ffc3430:	68bb      	ldr	r3, [r7, #8]
2ffc3432:	2b00      	cmp	r3, #0
2ffc3434:	d102      	bne.n	2ffc343c <_txe_byte_allocate+0x40>
2ffc3436:	2303      	movs	r3, #3
2ffc3438:	617b      	str	r3, [r7, #20]
2ffc343a:	e019      	b.n	2ffc3470 <_txe_byte_allocate+0x74>
2ffc343c:	687b      	ldr	r3, [r7, #4]
2ffc343e:	2b00      	cmp	r3, #0
2ffc3440:	d102      	bne.n	2ffc3448 <_txe_byte_allocate+0x4c>
2ffc3442:	2305      	movs	r3, #5
2ffc3444:	617b      	str	r3, [r7, #20]
2ffc3446:	e013      	b.n	2ffc3470 <_txe_byte_allocate+0x74>
2ffc3448:	68fb      	ldr	r3, [r7, #12]
2ffc344a:	69db      	ldr	r3, [r3, #28]
2ffc344c:	687a      	ldr	r2, [r7, #4]
2ffc344e:	429a      	cmp	r2, r3
2ffc3450:	d902      	bls.n	2ffc3458 <_txe_byte_allocate+0x5c>
2ffc3452:	2305      	movs	r3, #5
2ffc3454:	617b      	str	r3, [r7, #20]
2ffc3456:	e00b      	b.n	2ffc3470 <_txe_byte_allocate+0x74>
2ffc3458:	683b      	ldr	r3, [r7, #0]
2ffc345a:	2b00      	cmp	r3, #0
2ffc345c:	d008      	beq.n	2ffc3470 <_txe_byte_allocate+0x74>
2ffc345e:	f24a 33fc 	movw	r3, #41980	@ 0xa3fc
2ffc3462:	f6c2 73fc 	movt	r3, #12284	@ 0x2ffc
2ffc3466:	681b      	ldr	r3, [r3, #0]
2ffc3468:	2b00      	cmp	r3, #0
2ffc346a:	d001      	beq.n	2ffc3470 <_txe_byte_allocate+0x74>
2ffc346c:	2304      	movs	r3, #4
2ffc346e:	617b      	str	r3, [r7, #20]
2ffc3470:	697b      	ldr	r3, [r7, #20]
2ffc3472:	2b00      	cmp	r3, #0
2ffc3474:	d10e      	bne.n	2ffc3494 <_txe_byte_allocate+0x98>
2ffc3476:	f64a 7334 	movw	r3, #44852	@ 0xaf34
2ffc347a:	f6c2 73fc 	movt	r3, #12284	@ 0x2ffc
2ffc347e:	681b      	ldr	r3, [r3, #0]
2ffc3480:	613b      	str	r3, [r7, #16]
2ffc3482:	693a      	ldr	r2, [r7, #16]
2ffc3484:	f24b 0380 	movw	r3, #45184	@ 0xb080
2ffc3488:	f6c2 73fc 	movt	r3, #12284	@ 0x2ffc
2ffc348c:	429a      	cmp	r2, r3
2ffc348e:	d101      	bne.n	2ffc3494 <_txe_byte_allocate+0x98>
2ffc3490:	2313      	movs	r3, #19
2ffc3492:	617b      	str	r3, [r7, #20]
2ffc3494:	697b      	ldr	r3, [r7, #20]
2ffc3496:	2b00      	cmp	r3, #0
2ffc3498:	d110      	bne.n	2ffc34bc <_txe_byte_allocate+0xc0>
2ffc349a:	f24a 33fc 	movw	r3, #41980	@ 0xa3fc
2ffc349e:	f6c2 73fc 	movt	r3, #12284	@ 0x2ffc
2ffc34a2:	681b      	ldr	r3, [r3, #0]
2ffc34a4:	2b00      	cmp	r3, #0
2ffc34a6:	d009      	beq.n	2ffc34bc <_txe_byte_allocate+0xc0>
2ffc34a8:	f24a 33fc 	movw	r3, #41980	@ 0xa3fc
2ffc34ac:	f6c2 73fc 	movt	r3, #12284	@ 0x2ffc
2ffc34b0:	681b      	ldr	r3, [r3, #0]
2ffc34b2:	f1b3 3ff0 	cmp.w	r3, #4042322160	@ 0xf0f0f0f0
2ffc34b6:	d201      	bcs.n	2ffc34bc <_txe_byte_allocate+0xc0>
2ffc34b8:	2313      	movs	r3, #19
2ffc34ba:	617b      	str	r3, [r7, #20]
2ffc34bc:	697b      	ldr	r3, [r7, #20]
2ffc34be:	2b00      	cmp	r3, #0
2ffc34c0:	d106      	bne.n	2ffc34d0 <_txe_byte_allocate+0xd4>
2ffc34c2:	683b      	ldr	r3, [r7, #0]
2ffc34c4:	687a      	ldr	r2, [r7, #4]
2ffc34c6:	68b9      	ldr	r1, [r7, #8]
2ffc34c8:	68f8      	ldr	r0, [r7, #12]
2ffc34ca:	f7ff fcd7 	bl	2ffc2e7c <_tx_byte_allocate>
2ffc34ce:	6178      	str	r0, [r7, #20]
2ffc34d0:	697b      	ldr	r3, [r7, #20]
2ffc34d2:	4618      	mov	r0, r3
2ffc34d4:	3718      	adds	r7, #24
2ffc34d6:	46bd      	mov	sp, r7
2ffc34d8:	bd80      	pop	{r7, pc}

2ffc34da <_txe_byte_pool_create>:
2ffc34da:	b580      	push	{r7, lr}
2ffc34dc:	b08a      	sub	sp, #40	@ 0x28
2ffc34de:	af00      	add	r7, sp, #0
2ffc34e0:	60f8      	str	r0, [r7, #12]
2ffc34e2:	60b9      	str	r1, [r7, #8]
2ffc34e4:	607a      	str	r2, [r7, #4]
2ffc34e6:	603b      	str	r3, [r7, #0]
2ffc34e8:	2300      	movs	r3, #0
2ffc34ea:	627b      	str	r3, [r7, #36]	@ 0x24
2ffc34ec:	68fb      	ldr	r3, [r7, #12]
2ffc34ee:	2b00      	cmp	r3, #0
2ffc34f0:	d102      	bne.n	2ffc34f8 <_txe_byte_pool_create+0x1e>
2ffc34f2:	2302      	movs	r3, #2
2ffc34f4:	627b      	str	r3, [r7, #36]	@ 0x24
2ffc34f6:	e079      	b.n	2ffc35ec <_txe_byte_pool_create+0x112>
2ffc34f8:	6b3b      	ldr	r3, [r7, #48]	@ 0x30
2ffc34fa:	2b34      	cmp	r3, #52	@ 0x34
2ffc34fc:	d002      	beq.n	2ffc3504 <_txe_byte_pool_create+0x2a>
2ffc34fe:	2302      	movs	r3, #2
2ffc3500:	627b      	str	r3, [r7, #36]	@ 0x24
2ffc3502:	e073      	b.n	2ffc35ec <_txe_byte_pool_create+0x112>
2ffc3504:	f002 ea76 	blx	2ffc59f4 <_tx_thread_interrupt_disable>
2ffc3508:	61b8      	str	r0, [r7, #24]
2ffc350a:	f64a 73d0 	movw	r3, #45008	@ 0xafd0
2ffc350e:	f6c2 73fc 	movt	r3, #12284	@ 0x2ffc
2ffc3512:	681b      	ldr	r3, [r3, #0]
2ffc3514:	1c5a      	adds	r2, r3, #1
2ffc3516:	f64a 73d0 	movw	r3, #45008	@ 0xafd0
2ffc351a:	f6c2 73fc 	movt	r3, #12284	@ 0x2ffc
2ffc351e:	601a      	str	r2, [r3, #0]
2ffc3520:	69b8      	ldr	r0, [r7, #24]
2ffc3522:	f002 ea6e 	blx	2ffc5a00 <_tx_thread_interrupt_restore>
2ffc3526:	f64a 7324 	movw	r3, #44836	@ 0xaf24
2ffc352a:	f6c2 73fc 	movt	r3, #12284	@ 0x2ffc
2ffc352e:	681b      	ldr	r3, [r3, #0]
2ffc3530:	61fb      	str	r3, [r7, #28]
2ffc3532:	2300      	movs	r3, #0
2ffc3534:	623b      	str	r3, [r7, #32]
2ffc3536:	e009      	b.n	2ffc354c <_txe_byte_pool_create+0x72>
2ffc3538:	68fa      	ldr	r2, [r7, #12]
2ffc353a:	69fb      	ldr	r3, [r7, #28]
2ffc353c:	429a      	cmp	r2, r3
2ffc353e:	d00e      	beq.n	2ffc355e <_txe_byte_pool_create+0x84>
2ffc3540:	69fb      	ldr	r3, [r7, #28]
2ffc3542:	6adb      	ldr	r3, [r3, #44]	@ 0x2c
2ffc3544:	61fb      	str	r3, [r7, #28]
2ffc3546:	6a3b      	ldr	r3, [r7, #32]
2ffc3548:	3301      	adds	r3, #1
2ffc354a:	623b      	str	r3, [r7, #32]
2ffc354c:	f64a 7328 	movw	r3, #44840	@ 0xaf28
2ffc3550:	f6c2 73fc 	movt	r3, #12284	@ 0x2ffc
2ffc3554:	681b      	ldr	r3, [r3, #0]
2ffc3556:	6a3a      	ldr	r2, [r7, #32]
2ffc3558:	429a      	cmp	r2, r3
2ffc355a:	d3ed      	bcc.n	2ffc3538 <_txe_byte_pool_create+0x5e>
2ffc355c:	e000      	b.n	2ffc3560 <_txe_byte_pool_create+0x86>
2ffc355e:	bf00      	nop
2ffc3560:	f002 ea48 	blx	2ffc59f4 <_tx_thread_interrupt_disable>
2ffc3564:	61b8      	str	r0, [r7, #24]
2ffc3566:	f64a 73d0 	movw	r3, #45008	@ 0xafd0
2ffc356a:	f6c2 73fc 	movt	r3, #12284	@ 0x2ffc
2ffc356e:	681b      	ldr	r3, [r3, #0]
2ffc3570:	1e5a      	subs	r2, r3, #1
2ffc3572:	f64a 73d0 	movw	r3, #45008	@ 0xafd0
2ffc3576:	f6c2 73fc 	movt	r3, #12284	@ 0x2ffc
2ffc357a:	601a      	str	r2, [r3, #0]
2ffc357c:	69b8      	ldr	r0, [r7, #24]
2ffc357e:	f002 ea40 	blx	2ffc5a00 <_tx_thread_interrupt_restore>
2ffc3582:	f001 fa25 	bl	2ffc49d0 <_tx_thread_system_preempt_check>
2ffc3586:	68fa      	ldr	r2, [r7, #12]
2ffc3588:	69fb      	ldr	r3, [r7, #28]
2ffc358a:	429a      	cmp	r2, r3
2ffc358c:	d102      	bne.n	2ffc3594 <_txe_byte_pool_create+0xba>
2ffc358e:	2302      	movs	r3, #2
2ffc3590:	627b      	str	r3, [r7, #36]	@ 0x24
2ffc3592:	e02b      	b.n	2ffc35ec <_txe_byte_pool_create+0x112>
2ffc3594:	687b      	ldr	r3, [r7, #4]
2ffc3596:	2b00      	cmp	r3, #0
2ffc3598:	d102      	bne.n	2ffc35a0 <_txe_byte_pool_create+0xc6>
2ffc359a:	2303      	movs	r3, #3
2ffc359c:	627b      	str	r3, [r7, #36]	@ 0x24
2ffc359e:	e025      	b.n	2ffc35ec <_txe_byte_pool_create+0x112>
2ffc35a0:	683b      	ldr	r3, [r7, #0]
2ffc35a2:	2b63      	cmp	r3, #99	@ 0x63
2ffc35a4:	d802      	bhi.n	2ffc35ac <_txe_byte_pool_create+0xd2>
2ffc35a6:	2305      	movs	r3, #5
2ffc35a8:	627b      	str	r3, [r7, #36]	@ 0x24
2ffc35aa:	e01f      	b.n	2ffc35ec <_txe_byte_pool_create+0x112>
2ffc35ac:	f64a 7334 	movw	r3, #44852	@ 0xaf34
2ffc35b0:	f6c2 73fc 	movt	r3, #12284	@ 0x2ffc
2ffc35b4:	681b      	ldr	r3, [r3, #0]
2ffc35b6:	617b      	str	r3, [r7, #20]
2ffc35b8:	697a      	ldr	r2, [r7, #20]
2ffc35ba:	f24b 0380 	movw	r3, #45184	@ 0xb080
2ffc35be:	f6c2 73fc 	movt	r3, #12284	@ 0x2ffc
2ffc35c2:	429a      	cmp	r2, r3
2ffc35c4:	d101      	bne.n	2ffc35ca <_txe_byte_pool_create+0xf0>
2ffc35c6:	2313      	movs	r3, #19
2ffc35c8:	627b      	str	r3, [r7, #36]	@ 0x24
2ffc35ca:	f24a 33fc 	movw	r3, #41980	@ 0xa3fc
2ffc35ce:	f6c2 73fc 	movt	r3, #12284	@ 0x2ffc
2ffc35d2:	681b      	ldr	r3, [r3, #0]
2ffc35d4:	2b00      	cmp	r3, #0
2ffc35d6:	d009      	beq.n	2ffc35ec <_txe_byte_pool_create+0x112>
2ffc35d8:	f24a 33fc 	movw	r3, #41980	@ 0xa3fc
2ffc35dc:	f6c2 73fc 	movt	r3, #12284	@ 0x2ffc
2ffc35e0:	681b      	ldr	r3, [r3, #0]
2ffc35e2:	f1b3 3ff0 	cmp.w	r3, #4042322160	@ 0xf0f0f0f0
2ffc35e6:	d201      	bcs.n	2ffc35ec <_txe_byte_pool_create+0x112>
2ffc35e8:	2313      	movs	r3, #19
2ffc35ea:	627b      	str	r3, [r7, #36]	@ 0x24
2ffc35ec:	6a7b      	ldr	r3, [r7, #36]	@ 0x24
2ffc35ee:	2b00      	cmp	r3, #0
2ffc35f0:	d106      	bne.n	2ffc3600 <_txe_byte_pool_create+0x126>
2ffc35f2:	683b      	ldr	r3, [r7, #0]
2ffc35f4:	687a      	ldr	r2, [r7, #4]
2ffc35f6:	68b9      	ldr	r1, [r7, #8]
2ffc35f8:	68f8      	ldr	r0, [r7, #12]
2ffc35fa:	f7ff fd67 	bl	2ffc30cc <_tx_byte_pool_create>
2ffc35fe:	6278      	str	r0, [r7, #36]	@ 0x24
2ffc3600:	6a7b      	ldr	r3, [r7, #36]	@ 0x24
2ffc3602:	4618      	mov	r0, r3
2ffc3604:	3728      	adds	r7, #40	@ 0x28
2ffc3606:	46bd      	mov	sp, r7
2ffc3608:	bd80      	pop	{r7, pc}

2ffc360a <_txe_event_flags_create>:
2ffc360a:	b580      	push	{r7, lr}
2ffc360c:	b08a      	sub	sp, #40	@ 0x28
2ffc360e:	af00      	add	r7, sp, #0
2ffc3610:	60f8      	str	r0, [r7, #12]
2ffc3612:	60b9      	str	r1, [r7, #8]
2ffc3614:	607a      	str	r2, [r7, #4]
2ffc3616:	2300      	movs	r3, #0
2ffc3618:	627b      	str	r3, [r7, #36]	@ 0x24
2ffc361a:	68fb      	ldr	r3, [r7, #12]
2ffc361c:	2b00      	cmp	r3, #0
2ffc361e:	d102      	bne.n	2ffc3626 <_txe_event_flags_create+0x1c>
2ffc3620:	2306      	movs	r3, #6
2ffc3622:	627b      	str	r3, [r7, #36]	@ 0x24
2ffc3624:	e06d      	b.n	2ffc3702 <_txe_event_flags_create+0xf8>
2ffc3626:	687b      	ldr	r3, [r7, #4]
2ffc3628:	2b28      	cmp	r3, #40	@ 0x28
2ffc362a:	d002      	beq.n	2ffc3632 <_txe_event_flags_create+0x28>
2ffc362c:	2306      	movs	r3, #6
2ffc362e:	627b      	str	r3, [r7, #36]	@ 0x24
2ffc3630:	e067      	b.n	2ffc3702 <_txe_event_flags_create+0xf8>
2ffc3632:	f002 e9e0 	blx	2ffc59f4 <_tx_thread_interrupt_disable>
2ffc3636:	61b8      	str	r0, [r7, #24]
2ffc3638:	f64a 73d0 	movw	r3, #45008	@ 0xafd0
2ffc363c:	f6c2 73fc 	movt	r3, #12284	@ 0x2ffc
2ffc3640:	681b      	ldr	r3, [r3, #0]
2ffc3642:	1c5a      	adds	r2, r3, #1
2ffc3644:	f64a 73d0 	movw	r3, #45008	@ 0xafd0
2ffc3648:	f6c2 73fc 	movt	r3, #12284	@ 0x2ffc
2ffc364c:	601a      	str	r2, [r3, #0]
2ffc364e:	69b8      	ldr	r0, [r7, #24]
2ffc3650:	f002 e9d6 	blx	2ffc5a00 <_tx_thread_interrupt_restore>
2ffc3654:	f64a 730c 	movw	r3, #44812	@ 0xaf0c
2ffc3658:	f6c2 73fc 	movt	r3, #12284	@ 0x2ffc
2ffc365c:	681b      	ldr	r3, [r3, #0]
2ffc365e:	61fb      	str	r3, [r7, #28]
2ffc3660:	2300      	movs	r3, #0
2ffc3662:	623b      	str	r3, [r7, #32]
2ffc3664:	e009      	b.n	2ffc367a <_txe_event_flags_create+0x70>
2ffc3666:	68fa      	ldr	r2, [r7, #12]
2ffc3668:	69fb      	ldr	r3, [r7, #28]
2ffc366a:	429a      	cmp	r2, r3
2ffc366c:	d00e      	beq.n	2ffc368c <_txe_event_flags_create+0x82>
2ffc366e:	69fb      	ldr	r3, [r7, #28]
2ffc3670:	699b      	ldr	r3, [r3, #24]
2ffc3672:	61fb      	str	r3, [r7, #28]
2ffc3674:	6a3b      	ldr	r3, [r7, #32]
2ffc3676:	3301      	adds	r3, #1
2ffc3678:	623b      	str	r3, [r7, #32]
2ffc367a:	f64a 7310 	movw	r3, #44816	@ 0xaf10
2ffc367e:	f6c2 73fc 	movt	r3, #12284	@ 0x2ffc
2ffc3682:	681b      	ldr	r3, [r3, #0]
2ffc3684:	6a3a      	ldr	r2, [r7, #32]
2ffc3686:	429a      	cmp	r2, r3
2ffc3688:	d3ed      	bcc.n	2ffc3666 <_txe_event_flags_create+0x5c>
2ffc368a:	e000      	b.n	2ffc368e <_txe_event_flags_create+0x84>
2ffc368c:	bf00      	nop
2ffc368e:	f002 e9b2 	blx	2ffc59f4 <_tx_thread_interrupt_disable>
2ffc3692:	61b8      	str	r0, [r7, #24]
2ffc3694:	f64a 73d0 	movw	r3, #45008	@ 0xafd0
2ffc3698:	f6c2 73fc 	movt	r3, #12284	@ 0x2ffc
2ffc369c:	681b      	ldr	r3, [r3, #0]
2ffc369e:	1e5a      	subs	r2, r3, #1
2ffc36a0:	f64a 73d0 	movw	r3, #45008	@ 0xafd0
2ffc36a4:	f6c2 73fc 	movt	r3, #12284	@ 0x2ffc
2ffc36a8:	601a      	str	r2, [r3, #0]
2ffc36aa:	69b8      	ldr	r0, [r7, #24]
2ffc36ac:	f002 e9a8 	blx	2ffc5a00 <_tx_thread_interrupt_restore>
2ffc36b0:	f001 f98e 	bl	2ffc49d0 <_tx_thread_system_preempt_check>
2ffc36b4:	68fa      	ldr	r2, [r7, #12]
2ffc36b6:	69fb      	ldr	r3, [r7, #28]
2ffc36b8:	429a      	cmp	r2, r3
2ffc36ba:	d102      	bne.n	2ffc36c2 <_txe_event_flags_create+0xb8>
2ffc36bc:	2306      	movs	r3, #6
2ffc36be:	627b      	str	r3, [r7, #36]	@ 0x24
2ffc36c0:	e01f      	b.n	2ffc3702 <_txe_event_flags_create+0xf8>
2ffc36c2:	f64a 7334 	movw	r3, #44852	@ 0xaf34
2ffc36c6:	f6c2 73fc 	movt	r3, #12284	@ 0x2ffc
2ffc36ca:	681b      	ldr	r3, [r3, #0]
2ffc36cc:	617b      	str	r3, [r7, #20]
2ffc36ce:	697a      	ldr	r2, [r7, #20]
2ffc36d0:	f24b 0380 	movw	r3, #45184	@ 0xb080
2ffc36d4:	f6c2 73fc 	movt	r3, #12284	@ 0x2ffc
2ffc36d8:	429a      	cmp	r2, r3
2ffc36da:	d101      	bne.n	2ffc36e0 <_txe_event_flags_create+0xd6>
2ffc36dc:	2313      	movs	r3, #19
2ffc36de:	627b      	str	r3, [r7, #36]	@ 0x24
2ffc36e0:	f24a 33fc 	movw	r3, #41980	@ 0xa3fc
2ffc36e4:	f6c2 73fc 	movt	r3, #12284	@ 0x2ffc
2ffc36e8:	681b      	ldr	r3, [r3, #0]
2ffc36ea:	2b00      	cmp	r3, #0
2ffc36ec:	d009      	beq.n	2ffc3702 <_txe_event_flags_create+0xf8>
2ffc36ee:	f24a 33fc 	movw	r3, #41980	@ 0xa3fc
2ffc36f2:	f6c2 73fc 	movt	r3, #12284	@ 0x2ffc
2ffc36f6:	681b      	ldr	r3, [r3, #0]
2ffc36f8:	f1b3 3ff0 	cmp.w	r3, #4042322160	@ 0xf0f0f0f0
2ffc36fc:	d201      	bcs.n	2ffc3702 <_txe_event_flags_create+0xf8>
2ffc36fe:	2313      	movs	r3, #19
2ffc3700:	627b      	str	r3, [r7, #36]	@ 0x24
2ffc3702:	6a7b      	ldr	r3, [r7, #36]	@ 0x24
2ffc3704:	2b00      	cmp	r3, #0
2ffc3706:	d104      	bne.n	2ffc3712 <_txe_event_flags_create+0x108>
2ffc3708:	68b9      	ldr	r1, [r7, #8]
2ffc370a:	68f8      	ldr	r0, [r7, #12]
2ffc370c:	f000 fa8a 	bl	2ffc3c24 <_tx_event_flags_create>
2ffc3710:	6278      	str	r0, [r7, #36]	@ 0x24
2ffc3712:	6a7b      	ldr	r3, [r7, #36]	@ 0x24
2ffc3714:	4618      	mov	r0, r3
2ffc3716:	3728      	adds	r7, #40	@ 0x28
2ffc3718:	46bd      	mov	sp, r7
2ffc371a:	bd80      	pop	{r7, pc}

2ffc371c <_txe_event_flags_get>:
2ffc371c:	b580      	push	{r7, lr}
2ffc371e:	b088      	sub	sp, #32
2ffc3720:	af02      	add	r7, sp, #8
2ffc3722:	60f8      	str	r0, [r7, #12]
2ffc3724:	60b9      	str	r1, [r7, #8]
2ffc3726:	607a      	str	r2, [r7, #4]
2ffc3728:	603b      	str	r3, [r7, #0]
2ffc372a:	2300      	movs	r3, #0
2ffc372c:	617b      	str	r3, [r7, #20]
2ffc372e:	68fb      	ldr	r3, [r7, #12]
2ffc3730:	2b00      	cmp	r3, #0
2ffc3732:	d102      	bne.n	2ffc373a <_txe_event_flags_get+0x1e>
2ffc3734:	2306      	movs	r3, #6
2ffc3736:	617b      	str	r3, [r7, #20]
2ffc3738:	e02c      	b.n	2ffc3794 <_txe_event_flags_get+0x78>
2ffc373a:	68fb      	ldr	r3, [r7, #12]
2ffc373c:	681a      	ldr	r2, [r3, #0]
2ffc373e:	f244 434e 	movw	r3, #17486	@ 0x444e
2ffc3742:	f2c4 4356 	movt	r3, #17494	@ 0x4456
2ffc3746:	429a      	cmp	r2, r3
2ffc3748:	d002      	beq.n	2ffc3750 <_txe_event_flags_get+0x34>
2ffc374a:	2306      	movs	r3, #6
2ffc374c:	617b      	str	r3, [r7, #20]
2ffc374e:	e021      	b.n	2ffc3794 <_txe_event_flags_get+0x78>
2ffc3750:	683b      	ldr	r3, [r7, #0]
2ffc3752:	2b00      	cmp	r3, #0
2ffc3754:	d102      	bne.n	2ffc375c <_txe_event_flags_get+0x40>
2ffc3756:	2303      	movs	r3, #3
2ffc3758:	617b      	str	r3, [r7, #20]
2ffc375a:	e01b      	b.n	2ffc3794 <_txe_event_flags_get+0x78>
2ffc375c:	6a3b      	ldr	r3, [r7, #32]
2ffc375e:	2b00      	cmp	r3, #0
2ffc3760:	d018      	beq.n	2ffc3794 <_txe_event_flags_get+0x78>
2ffc3762:	f24a 33fc 	movw	r3, #41980	@ 0xa3fc
2ffc3766:	f6c2 73fc 	movt	r3, #12284	@ 0x2ffc
2ffc376a:	681b      	ldr	r3, [r3, #0]
2ffc376c:	2b00      	cmp	r3, #0
2ffc376e:	d002      	beq.n	2ffc3776 <_txe_event_flags_get+0x5a>
2ffc3770:	2304      	movs	r3, #4
2ffc3772:	617b      	str	r3, [r7, #20]
2ffc3774:	e00e      	b.n	2ffc3794 <_txe_event_flags_get+0x78>
2ffc3776:	f64a 7334 	movw	r3, #44852	@ 0xaf34
2ffc377a:	f6c2 73fc 	movt	r3, #12284	@ 0x2ffc
2ffc377e:	681b      	ldr	r3, [r3, #0]
2ffc3780:	613b      	str	r3, [r7, #16]
2ffc3782:	693a      	ldr	r2, [r7, #16]
2ffc3784:	f24b 0380 	movw	r3, #45184	@ 0xb080
2ffc3788:	f6c2 73fc 	movt	r3, #12284	@ 0x2ffc
2ffc378c:	429a      	cmp	r2, r3
2ffc378e:	d101      	bne.n	2ffc3794 <_txe_event_flags_get+0x78>
2ffc3790:	2304      	movs	r3, #4
2ffc3792:	617b      	str	r3, [r7, #20]
2ffc3794:	697b      	ldr	r3, [r7, #20]
2ffc3796:	2b00      	cmp	r3, #0
2ffc3798:	d104      	bne.n	2ffc37a4 <_txe_event_flags_get+0x88>
2ffc379a:	687b      	ldr	r3, [r7, #4]
2ffc379c:	2b03      	cmp	r3, #3
2ffc379e:	d901      	bls.n	2ffc37a4 <_txe_event_flags_get+0x88>
2ffc37a0:	2308      	movs	r3, #8
2ffc37a2:	617b      	str	r3, [r7, #20]
2ffc37a4:	697b      	ldr	r3, [r7, #20]
2ffc37a6:	2b00      	cmp	r3, #0
2ffc37a8:	d108      	bne.n	2ffc37bc <_txe_event_flags_get+0xa0>
2ffc37aa:	6a3b      	ldr	r3, [r7, #32]
2ffc37ac:	9300      	str	r3, [sp, #0]
2ffc37ae:	683b      	ldr	r3, [r7, #0]
2ffc37b0:	687a      	ldr	r2, [r7, #4]
2ffc37b2:	68b9      	ldr	r1, [r7, #8]
2ffc37b4:	68f8      	ldr	r0, [r7, #12]
2ffc37b6:	f000 fa87 	bl	2ffc3cc8 <_tx_event_flags_get>
2ffc37ba:	6178      	str	r0, [r7, #20]
2ffc37bc:	697b      	ldr	r3, [r7, #20]
2ffc37be:	4618      	mov	r0, r3
2ffc37c0:	3718      	adds	r7, #24
2ffc37c2:	46bd      	mov	sp, r7
2ffc37c4:	bd80      	pop	{r7, pc}

2ffc37c6 <_txe_event_flags_set>:
2ffc37c6:	b580      	push	{r7, lr}
2ffc37c8:	b086      	sub	sp, #24
2ffc37ca:	af00      	add	r7, sp, #0
2ffc37cc:	60f8      	str	r0, [r7, #12]
2ffc37ce:	60b9      	str	r1, [r7, #8]
2ffc37d0:	607a      	str	r2, [r7, #4]
2ffc37d2:	2300      	movs	r3, #0
2ffc37d4:	617b      	str	r3, [r7, #20]
2ffc37d6:	68fb      	ldr	r3, [r7, #12]
2ffc37d8:	2b00      	cmp	r3, #0
2ffc37da:	d102      	bne.n	2ffc37e2 <_txe_event_flags_set+0x1c>
2ffc37dc:	2306      	movs	r3, #6
2ffc37de:	617b      	str	r3, [r7, #20]
2ffc37e0:	e012      	b.n	2ffc3808 <_txe_event_flags_set+0x42>
2ffc37e2:	68fb      	ldr	r3, [r7, #12]
2ffc37e4:	681a      	ldr	r2, [r3, #0]
2ffc37e6:	f244 434e 	movw	r3, #17486	@ 0x444e
2ffc37ea:	f2c4 4356 	movt	r3, #17494	@ 0x4456
2ffc37ee:	429a      	cmp	r2, r3
2ffc37f0:	d002      	beq.n	2ffc37f8 <_txe_event_flags_set+0x32>
2ffc37f2:	2306      	movs	r3, #6
2ffc37f4:	617b      	str	r3, [r7, #20]
2ffc37f6:	e007      	b.n	2ffc3808 <_txe_event_flags_set+0x42>
2ffc37f8:	687b      	ldr	r3, [r7, #4]
2ffc37fa:	2b02      	cmp	r3, #2
2ffc37fc:	d004      	beq.n	2ffc3808 <_txe_event_flags_set+0x42>
2ffc37fe:	687b      	ldr	r3, [r7, #4]
2ffc3800:	2b00      	cmp	r3, #0
2ffc3802:	d001      	beq.n	2ffc3808 <_txe_event_flags_set+0x42>
2ffc3804:	2308      	movs	r3, #8
2ffc3806:	617b      	str	r3, [r7, #20]
2ffc3808:	697b      	ldr	r3, [r7, #20]
2ffc380a:	2b00      	cmp	r3, #0
2ffc380c:	d105      	bne.n	2ffc381a <_txe_event_flags_set+0x54>
2ffc380e:	687a      	ldr	r2, [r7, #4]
2ffc3810:	68b9      	ldr	r1, [r7, #8]
2ffc3812:	68f8      	ldr	r0, [r7, #12]
2ffc3814:	f000 fb3a 	bl	2ffc3e8c <_tx_event_flags_set>
2ffc3818:	6178      	str	r0, [r7, #20]
2ffc381a:	697b      	ldr	r3, [r7, #20]
2ffc381c:	4618      	mov	r0, r3
2ffc381e:	3718      	adds	r7, #24
2ffc3820:	46bd      	mov	sp, r7
2ffc3822:	bd80      	pop	{r7, pc}

2ffc3824 <_txe_thread_create>:
2ffc3824:	b580      	push	{r7, lr}
2ffc3826:	b092      	sub	sp, #72	@ 0x48
2ffc3828:	af06      	add	r7, sp, #24
2ffc382a:	60f8      	str	r0, [r7, #12]
2ffc382c:	60b9      	str	r1, [r7, #8]
2ffc382e:	607a      	str	r2, [r7, #4]
2ffc3830:	603b      	str	r3, [r7, #0]
2ffc3832:	2300      	movs	r3, #0
2ffc3834:	62fb      	str	r3, [r7, #44]	@ 0x2c
2ffc3836:	68fb      	ldr	r3, [r7, #12]
2ffc3838:	2b00      	cmp	r3, #0
2ffc383a:	d102      	bne.n	2ffc3842 <_txe_thread_create+0x1e>
2ffc383c:	230e      	movs	r3, #14
2ffc383e:	62fb      	str	r3, [r7, #44]	@ 0x2c
2ffc3840:	e0bf      	b.n	2ffc39c2 <_txe_thread_create+0x19e>
2ffc3842:	6d3b      	ldr	r3, [r7, #80]	@ 0x50
2ffc3844:	2bb8      	cmp	r3, #184	@ 0xb8
2ffc3846:	d002      	beq.n	2ffc384e <_txe_thread_create+0x2a>
2ffc3848:	230e      	movs	r3, #14
2ffc384a:	62fb      	str	r3, [r7, #44]	@ 0x2c
2ffc384c:	e0b9      	b.n	2ffc39c2 <_txe_thread_create+0x19e>
2ffc384e:	f002 e8d2 	blx	2ffc59f4 <_tx_thread_interrupt_disable>
2ffc3852:	61f8      	str	r0, [r7, #28]
2ffc3854:	f64a 73d0 	movw	r3, #45008	@ 0xafd0
2ffc3858:	f6c2 73fc 	movt	r3, #12284	@ 0x2ffc
2ffc385c:	681b      	ldr	r3, [r3, #0]
2ffc385e:	1c5a      	adds	r2, r3, #1
2ffc3860:	f64a 73d0 	movw	r3, #45008	@ 0xafd0
2ffc3864:	f6c2 73fc 	movt	r3, #12284	@ 0x2ffc
2ffc3868:	601a      	str	r2, [r3, #0]
2ffc386a:	69f8      	ldr	r0, [r7, #28]
2ffc386c:	f002 e8c8 	blx	2ffc5a00 <_tx_thread_interrupt_restore>
2ffc3870:	2300      	movs	r3, #0
2ffc3872:	62bb      	str	r3, [r7, #40]	@ 0x28
2ffc3874:	f64a 733c 	movw	r3, #44860	@ 0xaf3c
2ffc3878:	f6c2 73fc 	movt	r3, #12284	@ 0x2ffc
2ffc387c:	681b      	ldr	r3, [r3, #0]
2ffc387e:	623b      	str	r3, [r7, #32]
2ffc3880:	6bbb      	ldr	r3, [r7, #56]	@ 0x38
2ffc3882:	61bb      	str	r3, [r7, #24]
2ffc3884:	6bfb      	ldr	r3, [r7, #60]	@ 0x3c
2ffc3886:	3b01      	subs	r3, #1
2ffc3888:	69ba      	ldr	r2, [r7, #24]
2ffc388a:	4413      	add	r3, r2
2ffc388c:	61bb      	str	r3, [r7, #24]
2ffc388e:	69bb      	ldr	r3, [r7, #24]
2ffc3890:	617b      	str	r3, [r7, #20]
2ffc3892:	2300      	movs	r3, #0
2ffc3894:	627b      	str	r3, [r7, #36]	@ 0x24
2ffc3896:	e02b      	b.n	2ffc38f0 <_txe_thread_create+0xcc>
2ffc3898:	68fa      	ldr	r2, [r7, #12]
2ffc389a:	6a3b      	ldr	r3, [r7, #32]
2ffc389c:	429a      	cmp	r2, r3
2ffc389e:	d101      	bne.n	2ffc38a4 <_txe_thread_create+0x80>
2ffc38a0:	2301      	movs	r3, #1
2ffc38a2:	62bb      	str	r3, [r7, #40]	@ 0x28
2ffc38a4:	6abb      	ldr	r3, [r7, #40]	@ 0x28
2ffc38a6:	2b01      	cmp	r3, #1
2ffc38a8:	d02b      	beq.n	2ffc3902 <_txe_thread_create+0xde>
2ffc38aa:	6a3b      	ldr	r3, [r7, #32]
2ffc38ac:	68db      	ldr	r3, [r3, #12]
2ffc38ae:	6bba      	ldr	r2, [r7, #56]	@ 0x38
2ffc38b0:	429a      	cmp	r2, r3
2ffc38b2:	d308      	bcc.n	2ffc38c6 <_txe_thread_create+0xa2>
2ffc38b4:	6a3b      	ldr	r3, [r7, #32]
2ffc38b6:	691b      	ldr	r3, [r3, #16]
2ffc38b8:	6bba      	ldr	r2, [r7, #56]	@ 0x38
2ffc38ba:	429a      	cmp	r2, r3
2ffc38bc:	d203      	bcs.n	2ffc38c6 <_txe_thread_create+0xa2>
2ffc38be:	2300      	movs	r3, #0
2ffc38c0:	63bb      	str	r3, [r7, #56]	@ 0x38
2ffc38c2:	2301      	movs	r3, #1
2ffc38c4:	62bb      	str	r3, [r7, #40]	@ 0x28
2ffc38c6:	6a3b      	ldr	r3, [r7, #32]
2ffc38c8:	68db      	ldr	r3, [r3, #12]
2ffc38ca:	697a      	ldr	r2, [r7, #20]
2ffc38cc:	429a      	cmp	r2, r3
2ffc38ce:	d308      	bcc.n	2ffc38e2 <_txe_thread_create+0xbe>
2ffc38d0:	6a3b      	ldr	r3, [r7, #32]
2ffc38d2:	691b      	ldr	r3, [r3, #16]
2ffc38d4:	697a      	ldr	r2, [r7, #20]
2ffc38d6:	429a      	cmp	r2, r3
2ffc38d8:	d203      	bcs.n	2ffc38e2 <_txe_thread_create+0xbe>
2ffc38da:	2300      	movs	r3, #0
2ffc38dc:	63bb      	str	r3, [r7, #56]	@ 0x38
2ffc38de:	2301      	movs	r3, #1
2ffc38e0:	62bb      	str	r3, [r7, #40]	@ 0x28
2ffc38e2:	6a3b      	ldr	r3, [r7, #32]
2ffc38e4:	f8d3 3088 	ldr.w	r3, [r3, #136]	@ 0x88
2ffc38e8:	623b      	str	r3, [r7, #32]
2ffc38ea:	6a7b      	ldr	r3, [r7, #36]	@ 0x24
2ffc38ec:	3301      	adds	r3, #1
2ffc38ee:	627b      	str	r3, [r7, #36]	@ 0x24
2ffc38f0:	f64a 7340 	movw	r3, #44864	@ 0xaf40
2ffc38f4:	f6c2 73fc 	movt	r3, #12284	@ 0x2ffc
2ffc38f8:	681b      	ldr	r3, [r3, #0]
2ffc38fa:	6a7a      	ldr	r2, [r7, #36]	@ 0x24
2ffc38fc:	429a      	cmp	r2, r3
2ffc38fe:	d3cb      	bcc.n	2ffc3898 <_txe_thread_create+0x74>
2ffc3900:	e000      	b.n	2ffc3904 <_txe_thread_create+0xe0>
2ffc3902:	bf00      	nop
2ffc3904:	f002 e876 	blx	2ffc59f4 <_tx_thread_interrupt_disable>
2ffc3908:	61f8      	str	r0, [r7, #28]
2ffc390a:	f64a 73d0 	movw	r3, #45008	@ 0xafd0
2ffc390e:	f6c2 73fc 	movt	r3, #12284	@ 0x2ffc
2ffc3912:	681b      	ldr	r3, [r3, #0]
2ffc3914:	1e5a      	subs	r2, r3, #1
2ffc3916:	f64a 73d0 	movw	r3, #45008	@ 0xafd0
2ffc391a:	f6c2 73fc 	movt	r3, #12284	@ 0x2ffc
2ffc391e:	601a      	str	r2, [r3, #0]
2ffc3920:	69f8      	ldr	r0, [r7, #28]
2ffc3922:	f002 e86e 	blx	2ffc5a00 <_tx_thread_interrupt_restore>
2ffc3926:	f001 f853 	bl	2ffc49d0 <_tx_thread_system_preempt_check>
2ffc392a:	68fa      	ldr	r2, [r7, #12]
2ffc392c:	6a3b      	ldr	r3, [r7, #32]
2ffc392e:	429a      	cmp	r2, r3
2ffc3930:	d102      	bne.n	2ffc3938 <_txe_thread_create+0x114>
2ffc3932:	230e      	movs	r3, #14
2ffc3934:	62fb      	str	r3, [r7, #44]	@ 0x2c
2ffc3936:	e044      	b.n	2ffc39c2 <_txe_thread_create+0x19e>
2ffc3938:	6bbb      	ldr	r3, [r7, #56]	@ 0x38
2ffc393a:	2b00      	cmp	r3, #0
2ffc393c:	d102      	bne.n	2ffc3944 <_txe_thread_create+0x120>
2ffc393e:	2303      	movs	r3, #3
2ffc3940:	62fb      	str	r3, [r7, #44]	@ 0x2c
2ffc3942:	e03e      	b.n	2ffc39c2 <_txe_thread_create+0x19e>
2ffc3944:	687b      	ldr	r3, [r7, #4]
2ffc3946:	2b00      	cmp	r3, #0
2ffc3948:	d102      	bne.n	2ffc3950 <_txe_thread_create+0x12c>
2ffc394a:	2303      	movs	r3, #3
2ffc394c:	62fb      	str	r3, [r7, #44]	@ 0x2c
2ffc394e:	e038      	b.n	2ffc39c2 <_txe_thread_create+0x19e>
2ffc3950:	6bfb      	ldr	r3, [r7, #60]	@ 0x3c
2ffc3952:	2bc7      	cmp	r3, #199	@ 0xc7
2ffc3954:	d802      	bhi.n	2ffc395c <_txe_thread_create+0x138>
2ffc3956:	2305      	movs	r3, #5
2ffc3958:	62fb      	str	r3, [r7, #44]	@ 0x2c
2ffc395a:	e032      	b.n	2ffc39c2 <_txe_thread_create+0x19e>
2ffc395c:	6c3b      	ldr	r3, [r7, #64]	@ 0x40
2ffc395e:	2b1f      	cmp	r3, #31
2ffc3960:	d902      	bls.n	2ffc3968 <_txe_thread_create+0x144>
2ffc3962:	230f      	movs	r3, #15
2ffc3964:	62fb      	str	r3, [r7, #44]	@ 0x2c
2ffc3966:	e02c      	b.n	2ffc39c2 <_txe_thread_create+0x19e>
2ffc3968:	6c7a      	ldr	r2, [r7, #68]	@ 0x44
2ffc396a:	6c3b      	ldr	r3, [r7, #64]	@ 0x40
2ffc396c:	429a      	cmp	r2, r3
2ffc396e:	d902      	bls.n	2ffc3976 <_txe_thread_create+0x152>
2ffc3970:	2318      	movs	r3, #24
2ffc3972:	62fb      	str	r3, [r7, #44]	@ 0x2c
2ffc3974:	e025      	b.n	2ffc39c2 <_txe_thread_create+0x19e>
2ffc3976:	6cfb      	ldr	r3, [r7, #76]	@ 0x4c
2ffc3978:	2b01      	cmp	r3, #1
2ffc397a:	d902      	bls.n	2ffc3982 <_txe_thread_create+0x15e>
2ffc397c:	2310      	movs	r3, #16
2ffc397e:	62fb      	str	r3, [r7, #44]	@ 0x2c
2ffc3980:	e01f      	b.n	2ffc39c2 <_txe_thread_create+0x19e>
2ffc3982:	f64a 7334 	movw	r3, #44852	@ 0xaf34
2ffc3986:	f6c2 73fc 	movt	r3, #12284	@ 0x2ffc
2ffc398a:	681b      	ldr	r3, [r3, #0]
2ffc398c:	613b      	str	r3, [r7, #16]
2ffc398e:	693a      	ldr	r2, [r7, #16]
2ffc3990:	f24b 0380 	movw	r3, #45184	@ 0xb080
2ffc3994:	f6c2 73fc 	movt	r3, #12284	@ 0x2ffc
2ffc3998:	429a      	cmp	r2, r3
2ffc399a:	d101      	bne.n	2ffc39a0 <_txe_thread_create+0x17c>
2ffc399c:	2313      	movs	r3, #19
2ffc399e:	62fb      	str	r3, [r7, #44]	@ 0x2c
2ffc39a0:	f24a 33fc 	movw	r3, #41980	@ 0xa3fc
2ffc39a4:	f6c2 73fc 	movt	r3, #12284	@ 0x2ffc
2ffc39a8:	681b      	ldr	r3, [r3, #0]
2ffc39aa:	2b00      	cmp	r3, #0
2ffc39ac:	d009      	beq.n	2ffc39c2 <_txe_thread_create+0x19e>
2ffc39ae:	f24a 33fc 	movw	r3, #41980	@ 0xa3fc
2ffc39b2:	f6c2 73fc 	movt	r3, #12284	@ 0x2ffc
2ffc39b6:	681b      	ldr	r3, [r3, #0]
2ffc39b8:	f1b3 3ff0 	cmp.w	r3, #4042322160	@ 0xf0f0f0f0
2ffc39bc:	d201      	bcs.n	2ffc39c2 <_txe_thread_create+0x19e>
2ffc39be:	2313      	movs	r3, #19
2ffc39c0:	62fb      	str	r3, [r7, #44]	@ 0x2c
2ffc39c2:	6afb      	ldr	r3, [r7, #44]	@ 0x2c
2ffc39c4:	2b00      	cmp	r3, #0
2ffc39c6:	d112      	bne.n	2ffc39ee <_txe_thread_create+0x1ca>
2ffc39c8:	6cfb      	ldr	r3, [r7, #76]	@ 0x4c
2ffc39ca:	9305      	str	r3, [sp, #20]
2ffc39cc:	6cbb      	ldr	r3, [r7, #72]	@ 0x48
2ffc39ce:	9304      	str	r3, [sp, #16]
2ffc39d0:	6c7b      	ldr	r3, [r7, #68]	@ 0x44
2ffc39d2:	9303      	str	r3, [sp, #12]
2ffc39d4:	6c3b      	ldr	r3, [r7, #64]	@ 0x40
2ffc39d6:	9302      	str	r3, [sp, #8]
2ffc39d8:	6bfb      	ldr	r3, [r7, #60]	@ 0x3c
2ffc39da:	9301      	str	r3, [sp, #4]
2ffc39dc:	6bbb      	ldr	r3, [r7, #56]	@ 0x38
2ffc39de:	9300      	str	r3, [sp, #0]
2ffc39e0:	683b      	ldr	r3, [r7, #0]
2ffc39e2:	687a      	ldr	r2, [r7, #4]
2ffc39e4:	68b9      	ldr	r1, [r7, #8]
2ffc39e6:	68f8      	ldr	r0, [r7, #12]
2ffc39e8:	f000 fc8f 	bl	2ffc430a <_tx_thread_create>
2ffc39ec:	62f8      	str	r0, [r7, #44]	@ 0x2c
2ffc39ee:	6afb      	ldr	r3, [r7, #44]	@ 0x2c
2ffc39f0:	4618      	mov	r0, r3
2ffc39f2:	3730      	adds	r7, #48	@ 0x30
2ffc39f4:	46bd      	mov	sp, r7
2ffc39f6:	bd80      	pop	{r7, pc}

2ffc39f8 <_txe_thread_preemption_change>:
2ffc39f8:	b580      	push	{r7, lr}
2ffc39fa:	b086      	sub	sp, #24
2ffc39fc:	af00      	add	r7, sp, #0
2ffc39fe:	60f8      	str	r0, [r7, #12]
2ffc3a00:	60b9      	str	r1, [r7, #8]
2ffc3a02:	607a      	str	r2, [r7, #4]
2ffc3a04:	68fb      	ldr	r3, [r7, #12]
2ffc3a06:	2b00      	cmp	r3, #0
2ffc3a08:	d102      	bne.n	2ffc3a10 <_txe_thread_preemption_change+0x18>
2ffc3a0a:	230e      	movs	r3, #14
2ffc3a0c:	617b      	str	r3, [r7, #20]
2ffc3a0e:	e029      	b.n	2ffc3a64 <_txe_thread_preemption_change+0x6c>
2ffc3a10:	68fb      	ldr	r3, [r7, #12]
2ffc3a12:	681a      	ldr	r2, [r3, #0]
2ffc3a14:	f245 2344 	movw	r3, #21060	@ 0x5244
2ffc3a18:	f2c5 4348 	movt	r3, #21576	@ 0x5448
2ffc3a1c:	429a      	cmp	r2, r3
2ffc3a1e:	d002      	beq.n	2ffc3a26 <_txe_thread_preemption_change+0x2e>
2ffc3a20:	230e      	movs	r3, #14
2ffc3a22:	617b      	str	r3, [r7, #20]
2ffc3a24:	e01e      	b.n	2ffc3a64 <_txe_thread_preemption_change+0x6c>
2ffc3a26:	687b      	ldr	r3, [r7, #4]
2ffc3a28:	2b00      	cmp	r3, #0
2ffc3a2a:	d102      	bne.n	2ffc3a32 <_txe_thread_preemption_change+0x3a>
2ffc3a2c:	2303      	movs	r3, #3
2ffc3a2e:	617b      	str	r3, [r7, #20]
2ffc3a30:	e018      	b.n	2ffc3a64 <_txe_thread_preemption_change+0x6c>
2ffc3a32:	f24a 33fc 	movw	r3, #41980	@ 0xa3fc
2ffc3a36:	f6c2 73fc 	movt	r3, #12284	@ 0x2ffc
2ffc3a3a:	681b      	ldr	r3, [r3, #0]
2ffc3a3c:	2b00      	cmp	r3, #0
2ffc3a3e:	d002      	beq.n	2ffc3a46 <_txe_thread_preemption_change+0x4e>
2ffc3a40:	2313      	movs	r3, #19
2ffc3a42:	617b      	str	r3, [r7, #20]
2ffc3a44:	e00e      	b.n	2ffc3a64 <_txe_thread_preemption_change+0x6c>
2ffc3a46:	68fb      	ldr	r3, [r7, #12]
2ffc3a48:	f8d3 3098 	ldr.w	r3, [r3, #152]	@ 0x98
2ffc3a4c:	68ba      	ldr	r2, [r7, #8]
2ffc3a4e:	429a      	cmp	r2, r3
2ffc3a50:	d902      	bls.n	2ffc3a58 <_txe_thread_preemption_change+0x60>
2ffc3a52:	2318      	movs	r3, #24
2ffc3a54:	617b      	str	r3, [r7, #20]
2ffc3a56:	e005      	b.n	2ffc3a64 <_txe_thread_preemption_change+0x6c>
2ffc3a58:	687a      	ldr	r2, [r7, #4]
2ffc3a5a:	68b9      	ldr	r1, [r7, #8]
2ffc3a5c:	68f8      	ldr	r0, [r7, #12]
2ffc3a5e:	f000 fd92 	bl	2ffc4586 <_tx_thread_preemption_change>
2ffc3a62:	6178      	str	r0, [r7, #20]
2ffc3a64:	697b      	ldr	r3, [r7, #20]
2ffc3a66:	4618      	mov	r0, r3
2ffc3a68:	3718      	adds	r7, #24
2ffc3a6a:	46bd      	mov	sp, r7
2ffc3a6c:	bd80      	pop	{r7, pc}

2ffc3a6e <_txe_thread_priority_change>:
2ffc3a6e:	b580      	push	{r7, lr}
2ffc3a70:	b086      	sub	sp, #24
2ffc3a72:	af00      	add	r7, sp, #0
2ffc3a74:	60f8      	str	r0, [r7, #12]
2ffc3a76:	60b9      	str	r1, [r7, #8]
2ffc3a78:	607a      	str	r2, [r7, #4]
2ffc3a7a:	68fb      	ldr	r3, [r7, #12]
2ffc3a7c:	2b00      	cmp	r3, #0
2ffc3a7e:	d102      	bne.n	2ffc3a86 <_txe_thread_priority_change+0x18>
2ffc3a80:	230e      	movs	r3, #14
2ffc3a82:	617b      	str	r3, [r7, #20]
2ffc3a84:	e026      	b.n	2ffc3ad4 <_txe_thread_priority_change+0x66>
2ffc3a86:	68fb      	ldr	r3, [r7, #12]
2ffc3a88:	681a      	ldr	r2, [r3, #0]
2ffc3a8a:	f245 2344 	movw	r3, #21060	@ 0x5244
2ffc3a8e:	f2c5 4348 	movt	r3, #21576	@ 0x5448
2ffc3a92:	429a      	cmp	r2, r3
2ffc3a94:	d002      	beq.n	2ffc3a9c <_txe_thread_priority_change+0x2e>
2ffc3a96:	230e      	movs	r3, #14
2ffc3a98:	617b      	str	r3, [r7, #20]
2ffc3a9a:	e01b      	b.n	2ffc3ad4 <_txe_thread_priority_change+0x66>
2ffc3a9c:	687b      	ldr	r3, [r7, #4]
2ffc3a9e:	2b00      	cmp	r3, #0
2ffc3aa0:	d102      	bne.n	2ffc3aa8 <_txe_thread_priority_change+0x3a>
2ffc3aa2:	2303      	movs	r3, #3
2ffc3aa4:	617b      	str	r3, [r7, #20]
2ffc3aa6:	e015      	b.n	2ffc3ad4 <_txe_thread_priority_change+0x66>
2ffc3aa8:	68bb      	ldr	r3, [r7, #8]
2ffc3aaa:	2b1f      	cmp	r3, #31
2ffc3aac:	d902      	bls.n	2ffc3ab4 <_txe_thread_priority_change+0x46>
2ffc3aae:	230f      	movs	r3, #15
2ffc3ab0:	617b      	str	r3, [r7, #20]
2ffc3ab2:	e00f      	b.n	2ffc3ad4 <_txe_thread_priority_change+0x66>
2ffc3ab4:	f24a 33fc 	movw	r3, #41980	@ 0xa3fc
2ffc3ab8:	f6c2 73fc 	movt	r3, #12284	@ 0x2ffc
2ffc3abc:	681b      	ldr	r3, [r3, #0]
2ffc3abe:	2b00      	cmp	r3, #0
2ffc3ac0:	d002      	beq.n	2ffc3ac8 <_txe_thread_priority_change+0x5a>
2ffc3ac2:	2313      	movs	r3, #19
2ffc3ac4:	617b      	str	r3, [r7, #20]
2ffc3ac6:	e005      	b.n	2ffc3ad4 <_txe_thread_priority_change+0x66>
2ffc3ac8:	687a      	ldr	r2, [r7, #4]
2ffc3aca:	68b9      	ldr	r1, [r7, #8]
2ffc3acc:	68f8      	ldr	r0, [r7, #12]
2ffc3ace:	f000 fdfb 	bl	2ffc46c8 <_tx_thread_priority_change>
2ffc3ad2:	6178      	str	r0, [r7, #20]
2ffc3ad4:	697b      	ldr	r3, [r7, #20]
2ffc3ad6:	4618      	mov	r0, r3
2ffc3ad8:	3718      	adds	r7, #24
2ffc3ada:	46bd      	mov	sp, r7
2ffc3adc:	bd80      	pop	{r7, pc}

2ffc3ade <_txe_thread_terminate>:
2ffc3ade:	b580      	push	{r7, lr}
2ffc3ae0:	b084      	sub	sp, #16
2ffc3ae2:	af00      	add	r7, sp, #0
2ffc3ae4:	6078      	str	r0, [r7, #4]
2ffc3ae6:	687b      	ldr	r3, [r7, #4]
2ffc3ae8:	2b00      	cmp	r3, #0
2ffc3aea:	d102      	bne.n	2ffc3af2 <_txe_thread_terminate+0x14>
2ffc3aec:	230e      	movs	r3, #14
2ffc3aee:	60fb      	str	r3, [r7, #12]
2ffc3af0:	e018      	b.n	2ffc3b24 <_txe_thread_terminate+0x46>
2ffc3af2:	687b      	ldr	r3, [r7, #4]
2ffc3af4:	681a      	ldr	r2, [r3, #0]
2ffc3af6:	f245 2344 	movw	r3, #21060	@ 0x5244
2ffc3afa:	f2c5 4348 	movt	r3, #21576	@ 0x5448
2ffc3afe:	429a      	cmp	r2, r3
2ffc3b00:	d002      	beq.n	2ffc3b08 <_txe_thread_terminate+0x2a>
2ffc3b02:	230e      	movs	r3, #14
2ffc3b04:	60fb      	str	r3, [r7, #12]
2ffc3b06:	e00d      	b.n	2ffc3b24 <_txe_thread_terminate+0x46>
2ffc3b08:	f24a 33fc 	movw	r3, #41980	@ 0xa3fc
2ffc3b0c:	f6c2 73fc 	movt	r3, #12284	@ 0x2ffc
2ffc3b10:	681b      	ldr	r3, [r3, #0]
2ffc3b12:	2b00      	cmp	r3, #0
2ffc3b14:	d002      	beq.n	2ffc3b1c <_txe_thread_terminate+0x3e>
2ffc3b16:	2313      	movs	r3, #19
2ffc3b18:	60fb      	str	r3, [r7, #12]
2ffc3b1a:	e003      	b.n	2ffc3b24 <_txe_thread_terminate+0x46>
2ffc3b1c:	6878      	ldr	r0, [r7, #4]
2ffc3b1e:	f001 fb1b 	bl	2ffc5158 <_tx_thread_terminate>
2ffc3b22:	60f8      	str	r0, [r7, #12]
2ffc3b24:	68fb      	ldr	r3, [r7, #12]
2ffc3b26:	4618      	mov	r0, r3
2ffc3b28:	3710      	adds	r7, #16
2ffc3b2a:	46bd      	mov	sp, r7
2ffc3b2c:	bd80      	pop	{r7, pc}

2ffc3b2e <_tx_event_flags_cleanup>:
2ffc3b2e:	b580      	push	{r7, lr}
2ffc3b30:	b088      	sub	sp, #32
2ffc3b32:	af00      	add	r7, sp, #0
2ffc3b34:	6078      	str	r0, [r7, #4]
2ffc3b36:	6039      	str	r1, [r7, #0]
2ffc3b38:	f001 ef5c 	blx	2ffc59f4 <_tx_thread_interrupt_disable>
2ffc3b3c:	61f8      	str	r0, [r7, #28]
2ffc3b3e:	687b      	ldr	r3, [r7, #4]
2ffc3b40:	6e9a      	ldr	r2, [r3, #104]	@ 0x68
2ffc3b42:	f643 332f 	movw	r3, #15151	@ 0x3b2f
2ffc3b46:	f6c2 73fc 	movt	r3, #12284	@ 0x2ffc
2ffc3b4a:	429a      	cmp	r2, r3
2ffc3b4c:	d163      	bne.n	2ffc3c16 <_tx_event_flags_cleanup+0xe8>
2ffc3b4e:	687b      	ldr	r3, [r7, #4]
2ffc3b50:	f8d3 30b4 	ldr.w	r3, [r3, #180]	@ 0xb4
2ffc3b54:	683a      	ldr	r2, [r7, #0]
2ffc3b56:	429a      	cmp	r2, r3
2ffc3b58:	d15d      	bne.n	2ffc3c16 <_tx_event_flags_cleanup+0xe8>
2ffc3b5a:	687b      	ldr	r3, [r7, #4]
2ffc3b5c:	6edb      	ldr	r3, [r3, #108]	@ 0x6c
2ffc3b5e:	61bb      	str	r3, [r7, #24]
2ffc3b60:	69bb      	ldr	r3, [r7, #24]
2ffc3b62:	2b00      	cmp	r3, #0
2ffc3b64:	d057      	beq.n	2ffc3c16 <_tx_event_flags_cleanup+0xe8>
2ffc3b66:	69bb      	ldr	r3, [r7, #24]
2ffc3b68:	681a      	ldr	r2, [r3, #0]
2ffc3b6a:	f244 434e 	movw	r3, #17486	@ 0x444e
2ffc3b6e:	f2c4 4356 	movt	r3, #17494	@ 0x4456
2ffc3b72:	429a      	cmp	r2, r3
2ffc3b74:	d14f      	bne.n	2ffc3c16 <_tx_event_flags_cleanup+0xe8>
2ffc3b76:	69bb      	ldr	r3, [r7, #24]
2ffc3b78:	695b      	ldr	r3, [r3, #20]
2ffc3b7a:	2b00      	cmp	r3, #0
2ffc3b7c:	d04b      	beq.n	2ffc3c16 <_tx_event_flags_cleanup+0xe8>
2ffc3b7e:	687b      	ldr	r3, [r7, #4]
2ffc3b80:	2200      	movs	r2, #0
2ffc3b82:	669a      	str	r2, [r3, #104]	@ 0x68
2ffc3b84:	69bb      	ldr	r3, [r7, #24]
2ffc3b86:	695b      	ldr	r3, [r3, #20]
2ffc3b88:	617b      	str	r3, [r7, #20]
2ffc3b8a:	69bb      	ldr	r3, [r7, #24]
2ffc3b8c:	691b      	ldr	r3, [r3, #16]
2ffc3b8e:	613b      	str	r3, [r7, #16]
2ffc3b90:	693b      	ldr	r3, [r7, #16]
2ffc3b92:	2b00      	cmp	r3, #0
2ffc3b94:	d020      	beq.n	2ffc3bd8 <_tx_event_flags_cleanup+0xaa>
2ffc3b96:	697b      	ldr	r3, [r7, #20]
2ffc3b98:	3b01      	subs	r3, #1
2ffc3b9a:	617b      	str	r3, [r7, #20]
2ffc3b9c:	69bb      	ldr	r3, [r7, #24]
2ffc3b9e:	697a      	ldr	r2, [r7, #20]
2ffc3ba0:	615a      	str	r2, [r3, #20]
2ffc3ba2:	697b      	ldr	r3, [r7, #20]
2ffc3ba4:	2b00      	cmp	r3, #0
2ffc3ba6:	d103      	bne.n	2ffc3bb0 <_tx_event_flags_cleanup+0x82>
2ffc3ba8:	69bb      	ldr	r3, [r7, #24]
2ffc3baa:	2200      	movs	r2, #0
2ffc3bac:	611a      	str	r2, [r3, #16]
2ffc3bae:	e016      	b.n	2ffc3bde <_tx_event_flags_cleanup+0xb0>
2ffc3bb0:	687b      	ldr	r3, [r7, #4]
2ffc3bb2:	6f1b      	ldr	r3, [r3, #112]	@ 0x70
2ffc3bb4:	60fb      	str	r3, [r7, #12]
2ffc3bb6:	687b      	ldr	r3, [r7, #4]
2ffc3bb8:	6f5b      	ldr	r3, [r3, #116]	@ 0x74
2ffc3bba:	60bb      	str	r3, [r7, #8]
2ffc3bbc:	68fb      	ldr	r3, [r7, #12]
2ffc3bbe:	68ba      	ldr	r2, [r7, #8]
2ffc3bc0:	675a      	str	r2, [r3, #116]	@ 0x74
2ffc3bc2:	68bb      	ldr	r3, [r7, #8]
2ffc3bc4:	68fa      	ldr	r2, [r7, #12]
2ffc3bc6:	671a      	str	r2, [r3, #112]	@ 0x70
2ffc3bc8:	693a      	ldr	r2, [r7, #16]
2ffc3bca:	687b      	ldr	r3, [r7, #4]
2ffc3bcc:	429a      	cmp	r2, r3
2ffc3bce:	d106      	bne.n	2ffc3bde <_tx_event_flags_cleanup+0xb0>
2ffc3bd0:	69bb      	ldr	r3, [r7, #24]
2ffc3bd2:	68fa      	ldr	r2, [r7, #12]
2ffc3bd4:	611a      	str	r2, [r3, #16]
2ffc3bd6:	e002      	b.n	2ffc3bde <_tx_event_flags_cleanup+0xb0>
2ffc3bd8:	69bb      	ldr	r3, [r7, #24]
2ffc3bda:	2201      	movs	r2, #1
2ffc3bdc:	60da      	str	r2, [r3, #12]
2ffc3bde:	687b      	ldr	r3, [r7, #4]
2ffc3be0:	6b1b      	ldr	r3, [r3, #48]	@ 0x30
2ffc3be2:	2b07      	cmp	r3, #7
2ffc3be4:	d117      	bne.n	2ffc3c16 <_tx_event_flags_cleanup+0xe8>
2ffc3be6:	687b      	ldr	r3, [r7, #4]
2ffc3be8:	2207      	movs	r2, #7
2ffc3bea:	f8c3 2084 	str.w	r2, [r3, #132]	@ 0x84
2ffc3bee:	f64a 73d0 	movw	r3, #45008	@ 0xafd0
2ffc3bf2:	f6c2 73fc 	movt	r3, #12284	@ 0x2ffc
2ffc3bf6:	681b      	ldr	r3, [r3, #0]
2ffc3bf8:	1c5a      	adds	r2, r3, #1
2ffc3bfa:	f64a 73d0 	movw	r3, #45008	@ 0xafd0
2ffc3bfe:	f6c2 73fc 	movt	r3, #12284	@ 0x2ffc
2ffc3c02:	601a      	str	r2, [r3, #0]
2ffc3c04:	69f8      	ldr	r0, [r7, #28]
2ffc3c06:	f001 eefc 	blx	2ffc5a00 <_tx_thread_interrupt_restore>
2ffc3c0a:	6878      	ldr	r0, [r7, #4]
2ffc3c0c:	f000 ff0a 	bl	2ffc4a24 <_tx_thread_system_resume>
2ffc3c10:	f001 eef0 	blx	2ffc59f4 <_tx_thread_interrupt_disable>
2ffc3c14:	61f8      	str	r0, [r7, #28]
2ffc3c16:	69f8      	ldr	r0, [r7, #28]
2ffc3c18:	f001 eef2 	blx	2ffc5a00 <_tx_thread_interrupt_restore>
2ffc3c1c:	bf00      	nop
2ffc3c1e:	3720      	adds	r7, #32
2ffc3c20:	46bd      	mov	sp, r7
2ffc3c22:	bd80      	pop	{r7, pc}

2ffc3c24 <_tx_event_flags_create>:
2ffc3c24:	b580      	push	{r7, lr}
2ffc3c26:	b086      	sub	sp, #24
2ffc3c28:	af00      	add	r7, sp, #0
2ffc3c2a:	6078      	str	r0, [r7, #4]
2ffc3c2c:	6039      	str	r1, [r7, #0]
2ffc3c2e:	2228      	movs	r2, #40	@ 0x28
2ffc3c30:	2100      	movs	r1, #0
2ffc3c32:	6878      	ldr	r0, [r7, #4]
2ffc3c34:	f004 fe47 	bl	2ffc88c6 <memset>
2ffc3c38:	687b      	ldr	r3, [r7, #4]
2ffc3c3a:	683a      	ldr	r2, [r7, #0]
2ffc3c3c:	605a      	str	r2, [r3, #4]
2ffc3c3e:	f001 eeda 	blx	2ffc59f4 <_tx_thread_interrupt_disable>
2ffc3c42:	6178      	str	r0, [r7, #20]
2ffc3c44:	687a      	ldr	r2, [r7, #4]
2ffc3c46:	f244 434e 	movw	r3, #17486	@ 0x444e
2ffc3c4a:	f2c4 4356 	movt	r3, #17494	@ 0x4456
2ffc3c4e:	6013      	str	r3, [r2, #0]
2ffc3c50:	f64a 7310 	movw	r3, #44816	@ 0xaf10
2ffc3c54:	f6c2 73fc 	movt	r3, #12284	@ 0x2ffc
2ffc3c58:	681b      	ldr	r3, [r3, #0]
2ffc3c5a:	2b00      	cmp	r3, #0
2ffc3c5c:	d10c      	bne.n	2ffc3c78 <_tx_event_flags_create+0x54>
2ffc3c5e:	f64a 730c 	movw	r3, #44812	@ 0xaf0c
2ffc3c62:	f6c2 73fc 	movt	r3, #12284	@ 0x2ffc
2ffc3c66:	687a      	ldr	r2, [r7, #4]
2ffc3c68:	601a      	str	r2, [r3, #0]
2ffc3c6a:	687b      	ldr	r3, [r7, #4]
2ffc3c6c:	687a      	ldr	r2, [r7, #4]
2ffc3c6e:	619a      	str	r2, [r3, #24]
2ffc3c70:	687b      	ldr	r3, [r7, #4]
2ffc3c72:	687a      	ldr	r2, [r7, #4]
2ffc3c74:	61da      	str	r2, [r3, #28]
2ffc3c76:	e014      	b.n	2ffc3ca2 <_tx_event_flags_create+0x7e>
2ffc3c78:	f64a 730c 	movw	r3, #44812	@ 0xaf0c
2ffc3c7c:	f6c2 73fc 	movt	r3, #12284	@ 0x2ffc
2ffc3c80:	681b      	ldr	r3, [r3, #0]
2ffc3c82:	613b      	str	r3, [r7, #16]
2ffc3c84:	693b      	ldr	r3, [r7, #16]
2ffc3c86:	69db      	ldr	r3, [r3, #28]
2ffc3c88:	60fb      	str	r3, [r7, #12]
2ffc3c8a:	693b      	ldr	r3, [r7, #16]
2ffc3c8c:	687a      	ldr	r2, [r7, #4]
2ffc3c8e:	61da      	str	r2, [r3, #28]
2ffc3c90:	68fb      	ldr	r3, [r7, #12]
2ffc3c92:	687a      	ldr	r2, [r7, #4]
2ffc3c94:	619a      	str	r2, [r3, #24]
2ffc3c96:	687b      	ldr	r3, [r7, #4]
2ffc3c98:	68fa      	ldr	r2, [r7, #12]
2ffc3c9a:	61da      	str	r2, [r3, #28]
2ffc3c9c:	687b      	ldr	r3, [r7, #4]
2ffc3c9e:	693a      	ldr	r2, [r7, #16]
2ffc3ca0:	619a      	str	r2, [r3, #24]
2ffc3ca2:	f64a 7310 	movw	r3, #44816	@ 0xaf10
2ffc3ca6:	f6c2 73fc 	movt	r3, #12284	@ 0x2ffc
2ffc3caa:	681b      	ldr	r3, [r3, #0]
2ffc3cac:	1c5a      	adds	r2, r3, #1
2ffc3cae:	f64a 7310 	movw	r3, #44816	@ 0xaf10
2ffc3cb2:	f6c2 73fc 	movt	r3, #12284	@ 0x2ffc
2ffc3cb6:	601a      	str	r2, [r3, #0]
2ffc3cb8:	6978      	ldr	r0, [r7, #20]
2ffc3cba:	f001 eea2 	blx	2ffc5a00 <_tx_thread_interrupt_restore>
2ffc3cbe:	2300      	movs	r3, #0
2ffc3cc0:	4618      	mov	r0, r3
2ffc3cc2:	3718      	adds	r7, #24
2ffc3cc4:	46bd      	mov	sp, r7
2ffc3cc6:	bd80      	pop	{r7, pc}

2ffc3cc8 <_tx_event_flags_get>:
2ffc3cc8:	b580      	push	{r7, lr}
2ffc3cca:	b090      	sub	sp, #64	@ 0x40
2ffc3ccc:	af00      	add	r7, sp, #0
2ffc3cce:	60f8      	str	r0, [r7, #12]
2ffc3cd0:	60b9      	str	r1, [r7, #8]
2ffc3cd2:	607a      	str	r2, [r7, #4]
2ffc3cd4:	603b      	str	r3, [r7, #0]
2ffc3cd6:	f001 ee8e 	blx	2ffc59f4 <_tx_thread_interrupt_disable>
2ffc3cda:	63f8      	str	r0, [r7, #60]	@ 0x3c
2ffc3cdc:	68fb      	ldr	r3, [r7, #12]
2ffc3cde:	689b      	ldr	r3, [r3, #8]
2ffc3ce0:	637b      	str	r3, [r7, #52]	@ 0x34
2ffc3ce2:	68fb      	ldr	r3, [r7, #12]
2ffc3ce4:	6a1b      	ldr	r3, [r3, #32]
2ffc3ce6:	43da      	mvns	r2, r3
2ffc3ce8:	6b7b      	ldr	r3, [r7, #52]	@ 0x34
2ffc3cea:	401a      	ands	r2, r3
2ffc3cec:	683b      	ldr	r3, [r7, #0]
2ffc3cee:	601a      	str	r2, [r3, #0]
2ffc3cf0:	687b      	ldr	r3, [r7, #4]
2ffc3cf2:	f003 0302 	and.w	r3, r3, #2
2ffc3cf6:	62bb      	str	r3, [r7, #40]	@ 0x28
2ffc3cf8:	68fb      	ldr	r3, [r7, #12]
2ffc3cfa:	6a1b      	ldr	r3, [r3, #32]
2ffc3cfc:	627b      	str	r3, [r7, #36]	@ 0x24
2ffc3cfe:	6a7b      	ldr	r3, [r7, #36]	@ 0x24
2ffc3d00:	2b00      	cmp	r3, #0
2ffc3d02:	d004      	beq.n	2ffc3d0e <_tx_event_flags_get+0x46>
2ffc3d04:	6a7b      	ldr	r3, [r7, #36]	@ 0x24
2ffc3d06:	43db      	mvns	r3, r3
2ffc3d08:	6b7a      	ldr	r2, [r7, #52]	@ 0x34
2ffc3d0a:	4013      	ands	r3, r2
2ffc3d0c:	637b      	str	r3, [r7, #52]	@ 0x34
2ffc3d0e:	6abb      	ldr	r3, [r7, #40]	@ 0x28
2ffc3d10:	2b02      	cmp	r3, #2
2ffc3d12:	d10a      	bne.n	2ffc3d2a <_tx_event_flags_get+0x62>
2ffc3d14:	6b7a      	ldr	r2, [r7, #52]	@ 0x34
2ffc3d16:	68bb      	ldr	r3, [r7, #8]
2ffc3d18:	4013      	ands	r3, r2
2ffc3d1a:	633b      	str	r3, [r7, #48]	@ 0x30
2ffc3d1c:	6b3a      	ldr	r2, [r7, #48]	@ 0x30
2ffc3d1e:	68bb      	ldr	r3, [r7, #8]
2ffc3d20:	429a      	cmp	r2, r3
2ffc3d22:	d006      	beq.n	2ffc3d32 <_tx_event_flags_get+0x6a>
2ffc3d24:	2300      	movs	r3, #0
2ffc3d26:	633b      	str	r3, [r7, #48]	@ 0x30
2ffc3d28:	e003      	b.n	2ffc3d32 <_tx_event_flags_get+0x6a>
2ffc3d2a:	6b7a      	ldr	r2, [r7, #52]	@ 0x34
2ffc3d2c:	68bb      	ldr	r3, [r7, #8]
2ffc3d2e:	4013      	ands	r3, r2
2ffc3d30:	633b      	str	r3, [r7, #48]	@ 0x30
2ffc3d32:	6b3b      	ldr	r3, [r7, #48]	@ 0x30
2ffc3d34:	2b00      	cmp	r3, #0
2ffc3d36:	d026      	beq.n	2ffc3d86 <_tx_event_flags_get+0xbe>
2ffc3d38:	687b      	ldr	r3, [r7, #4]
2ffc3d3a:	f003 0301 	and.w	r3, r3, #1
2ffc3d3e:	613b      	str	r3, [r7, #16]
2ffc3d40:	693b      	ldr	r3, [r7, #16]
2ffc3d42:	2b01      	cmp	r3, #1
2ffc3d44:	d11c      	bne.n	2ffc3d80 <_tx_event_flags_get+0xb8>
2ffc3d46:	2300      	movs	r3, #0
2ffc3d48:	62fb      	str	r3, [r7, #44]	@ 0x2c
2ffc3d4a:	68fb      	ldr	r3, [r7, #12]
2ffc3d4c:	695b      	ldr	r3, [r3, #20]
2ffc3d4e:	2b00      	cmp	r3, #0
2ffc3d50:	d005      	beq.n	2ffc3d5e <_tx_event_flags_get+0x96>
2ffc3d52:	68fb      	ldr	r3, [r7, #12]
2ffc3d54:	691b      	ldr	r3, [r3, #16]
2ffc3d56:	2b00      	cmp	r3, #0
2ffc3d58:	d101      	bne.n	2ffc3d5e <_tx_event_flags_get+0x96>
2ffc3d5a:	2301      	movs	r3, #1
2ffc3d5c:	62fb      	str	r3, [r7, #44]	@ 0x2c
2ffc3d5e:	6afb      	ldr	r3, [r7, #44]	@ 0x2c
2ffc3d60:	2b01      	cmp	r3, #1
2ffc3d62:	d106      	bne.n	2ffc3d72 <_tx_event_flags_get+0xaa>
2ffc3d64:	68fb      	ldr	r3, [r7, #12]
2ffc3d66:	6a1a      	ldr	r2, [r3, #32]
2ffc3d68:	68bb      	ldr	r3, [r7, #8]
2ffc3d6a:	431a      	orrs	r2, r3
2ffc3d6c:	68fb      	ldr	r3, [r7, #12]
2ffc3d6e:	621a      	str	r2, [r3, #32]
2ffc3d70:	e006      	b.n	2ffc3d80 <_tx_event_flags_get+0xb8>
2ffc3d72:	68fb      	ldr	r3, [r7, #12]
2ffc3d74:	689a      	ldr	r2, [r3, #8]
2ffc3d76:	68bb      	ldr	r3, [r7, #8]
2ffc3d78:	43db      	mvns	r3, r3
2ffc3d7a:	401a      	ands	r2, r3
2ffc3d7c:	68fb      	ldr	r3, [r7, #12]
2ffc3d7e:	609a      	str	r2, [r3, #8]
2ffc3d80:	2300      	movs	r3, #0
2ffc3d82:	63bb      	str	r3, [r7, #56]	@ 0x38
2ffc3d84:	e07a      	b.n	2ffc3e7c <_tx_event_flags_get+0x1b4>
2ffc3d86:	6cbb      	ldr	r3, [r7, #72]	@ 0x48
2ffc3d88:	2b00      	cmp	r3, #0
2ffc3d8a:	d075      	beq.n	2ffc3e78 <_tx_event_flags_get+0x1b0>
2ffc3d8c:	f64a 73d0 	movw	r3, #45008	@ 0xafd0
2ffc3d90:	f6c2 73fc 	movt	r3, #12284	@ 0x2ffc
2ffc3d94:	681b      	ldr	r3, [r3, #0]
2ffc3d96:	2b00      	cmp	r3, #0
2ffc3d98:	d102      	bne.n	2ffc3da0 <_tx_event_flags_get+0xd8>
2ffc3d9a:	68bb      	ldr	r3, [r7, #8]
2ffc3d9c:	2b00      	cmp	r3, #0
2ffc3d9e:	d102      	bne.n	2ffc3da6 <_tx_event_flags_get+0xde>
2ffc3da0:	2307      	movs	r3, #7
2ffc3da2:	63bb      	str	r3, [r7, #56]	@ 0x38
2ffc3da4:	e06a      	b.n	2ffc3e7c <_tx_event_flags_get+0x1b4>
2ffc3da6:	f64a 7334 	movw	r3, #44852	@ 0xaf34
2ffc3daa:	f6c2 73fc 	movt	r3, #12284	@ 0x2ffc
2ffc3dae:	681b      	ldr	r3, [r3, #0]
2ffc3db0:	623b      	str	r3, [r7, #32]
2ffc3db2:	6a3a      	ldr	r2, [r7, #32]
2ffc3db4:	f643 332f 	movw	r3, #15151	@ 0x3b2f
2ffc3db8:	f6c2 73fc 	movt	r3, #12284	@ 0x2ffc
2ffc3dbc:	6693      	str	r3, [r2, #104]	@ 0x68
2ffc3dbe:	6a3b      	ldr	r3, [r7, #32]
2ffc3dc0:	68ba      	ldr	r2, [r7, #8]
2ffc3dc2:	679a      	str	r2, [r3, #120]	@ 0x78
2ffc3dc4:	6a3b      	ldr	r3, [r7, #32]
2ffc3dc6:	687a      	ldr	r2, [r7, #4]
2ffc3dc8:	f8c3 2080 	str.w	r2, [r3, #128]	@ 0x80
2ffc3dcc:	6a3b      	ldr	r3, [r7, #32]
2ffc3dce:	683a      	ldr	r2, [r7, #0]
2ffc3dd0:	67da      	str	r2, [r3, #124]	@ 0x7c
2ffc3dd2:	6a3b      	ldr	r3, [r7, #32]
2ffc3dd4:	68fa      	ldr	r2, [r7, #12]
2ffc3dd6:	66da      	str	r2, [r3, #108]	@ 0x6c
2ffc3dd8:	6a3b      	ldr	r3, [r7, #32]
2ffc3dda:	f8d3 30b4 	ldr.w	r3, [r3, #180]	@ 0xb4
2ffc3dde:	1c5a      	adds	r2, r3, #1
2ffc3de0:	6a3b      	ldr	r3, [r7, #32]
2ffc3de2:	f8c3 20b4 	str.w	r2, [r3, #180]	@ 0xb4
2ffc3de6:	68fb      	ldr	r3, [r7, #12]
2ffc3de8:	695b      	ldr	r3, [r3, #20]
2ffc3dea:	61fb      	str	r3, [r7, #28]
2ffc3dec:	69fb      	ldr	r3, [r7, #28]
2ffc3dee:	2b00      	cmp	r3, #0
2ffc3df0:	d109      	bne.n	2ffc3e06 <_tx_event_flags_get+0x13e>
2ffc3df2:	68fb      	ldr	r3, [r7, #12]
2ffc3df4:	6a3a      	ldr	r2, [r7, #32]
2ffc3df6:	611a      	str	r2, [r3, #16]
2ffc3df8:	6a3b      	ldr	r3, [r7, #32]
2ffc3dfa:	6a3a      	ldr	r2, [r7, #32]
2ffc3dfc:	671a      	str	r2, [r3, #112]	@ 0x70
2ffc3dfe:	6a3b      	ldr	r3, [r7, #32]
2ffc3e00:	6a3a      	ldr	r2, [r7, #32]
2ffc3e02:	675a      	str	r2, [r3, #116]	@ 0x74
2ffc3e04:	e011      	b.n	2ffc3e2a <_tx_event_flags_get+0x162>
2ffc3e06:	68fb      	ldr	r3, [r7, #12]
2ffc3e08:	691b      	ldr	r3, [r3, #16]
2ffc3e0a:	61bb      	str	r3, [r7, #24]
2ffc3e0c:	6a3b      	ldr	r3, [r7, #32]
2ffc3e0e:	69ba      	ldr	r2, [r7, #24]
2ffc3e10:	671a      	str	r2, [r3, #112]	@ 0x70
2ffc3e12:	69bb      	ldr	r3, [r7, #24]
2ffc3e14:	6f5b      	ldr	r3, [r3, #116]	@ 0x74
2ffc3e16:	617b      	str	r3, [r7, #20]
2ffc3e18:	6a3b      	ldr	r3, [r7, #32]
2ffc3e1a:	697a      	ldr	r2, [r7, #20]
2ffc3e1c:	675a      	str	r2, [r3, #116]	@ 0x74
2ffc3e1e:	697b      	ldr	r3, [r7, #20]
2ffc3e20:	6a3a      	ldr	r2, [r7, #32]
2ffc3e22:	671a      	str	r2, [r3, #112]	@ 0x70
2ffc3e24:	69bb      	ldr	r3, [r7, #24]
2ffc3e26:	6a3a      	ldr	r2, [r7, #32]
2ffc3e28:	675a      	str	r2, [r3, #116]	@ 0x74
2ffc3e2a:	68fb      	ldr	r3, [r7, #12]
2ffc3e2c:	695b      	ldr	r3, [r3, #20]
2ffc3e2e:	1c5a      	adds	r2, r3, #1
2ffc3e30:	68fb      	ldr	r3, [r7, #12]
2ffc3e32:	615a      	str	r2, [r3, #20]
2ffc3e34:	6a3b      	ldr	r3, [r7, #32]
2ffc3e36:	2207      	movs	r2, #7
2ffc3e38:	631a      	str	r2, [r3, #48]	@ 0x30
2ffc3e3a:	6a3b      	ldr	r3, [r7, #32]
2ffc3e3c:	2201      	movs	r2, #1
2ffc3e3e:	639a      	str	r2, [r3, #56]	@ 0x38
2ffc3e40:	6a3b      	ldr	r3, [r7, #32]
2ffc3e42:	6cba      	ldr	r2, [r7, #72]	@ 0x48
2ffc3e44:	64da      	str	r2, [r3, #76]	@ 0x4c
2ffc3e46:	f64a 73d0 	movw	r3, #45008	@ 0xafd0
2ffc3e4a:	f6c2 73fc 	movt	r3, #12284	@ 0x2ffc
2ffc3e4e:	681b      	ldr	r3, [r3, #0]
2ffc3e50:	1c5a      	adds	r2, r3, #1
2ffc3e52:	f64a 73d0 	movw	r3, #45008	@ 0xafd0
2ffc3e56:	f6c2 73fc 	movt	r3, #12284	@ 0x2ffc
2ffc3e5a:	601a      	str	r2, [r3, #0]
2ffc3e5c:	6bf8      	ldr	r0, [r7, #60]	@ 0x3c
2ffc3e5e:	f001 edd0 	blx	2ffc5a00 <_tx_thread_interrupt_restore>
2ffc3e62:	6a38      	ldr	r0, [r7, #32]
2ffc3e64:	f000 feed 	bl	2ffc4c42 <_tx_thread_system_suspend>
2ffc3e68:	f001 edc4 	blx	2ffc59f4 <_tx_thread_interrupt_disable>
2ffc3e6c:	63f8      	str	r0, [r7, #60]	@ 0x3c
2ffc3e6e:	6a3b      	ldr	r3, [r7, #32]
2ffc3e70:	f8d3 3084 	ldr.w	r3, [r3, #132]	@ 0x84
2ffc3e74:	63bb      	str	r3, [r7, #56]	@ 0x38
2ffc3e76:	e001      	b.n	2ffc3e7c <_tx_event_flags_get+0x1b4>
2ffc3e78:	2307      	movs	r3, #7
2ffc3e7a:	63bb      	str	r3, [r7, #56]	@ 0x38
2ffc3e7c:	6bf8      	ldr	r0, [r7, #60]	@ 0x3c
2ffc3e7e:	f001 edc0 	blx	2ffc5a00 <_tx_thread_interrupt_restore>
2ffc3e82:	6bbb      	ldr	r3, [r7, #56]	@ 0x38
2ffc3e84:	4618      	mov	r0, r3
2ffc3e86:	3740      	adds	r7, #64	@ 0x40
2ffc3e88:	46bd      	mov	sp, r7
2ffc3e8a:	bd80      	pop	{r7, pc}

2ffc3e8c <_tx_event_flags_set>:
2ffc3e8c:	b580      	push	{r7, lr}
2ffc3e8e:	b098      	sub	sp, #96	@ 0x60
2ffc3e90:	af00      	add	r7, sp, #0
2ffc3e92:	60f8      	str	r0, [r7, #12]
2ffc3e94:	60b9      	str	r1, [r7, #8]
2ffc3e96:	607a      	str	r2, [r7, #4]
2ffc3e98:	f001 edac 	blx	2ffc59f4 <_tx_thread_interrupt_disable>
2ffc3e9c:	65f8      	str	r0, [r7, #92]	@ 0x5c
2ffc3e9e:	687b      	ldr	r3, [r7, #4]
2ffc3ea0:	f003 0302 	and.w	r3, r3, #2
2ffc3ea4:	2b00      	cmp	r3, #0
2ffc3ea6:	d020      	beq.n	2ffc3eea <_tx_event_flags_set+0x5e>
2ffc3ea8:	2300      	movs	r3, #0
2ffc3eaa:	63bb      	str	r3, [r7, #56]	@ 0x38
2ffc3eac:	68fb      	ldr	r3, [r7, #12]
2ffc3eae:	695b      	ldr	r3, [r3, #20]
2ffc3eb0:	2b00      	cmp	r3, #0
2ffc3eb2:	d005      	beq.n	2ffc3ec0 <_tx_event_flags_set+0x34>
2ffc3eb4:	68fb      	ldr	r3, [r7, #12]
2ffc3eb6:	691b      	ldr	r3, [r3, #16]
2ffc3eb8:	2b00      	cmp	r3, #0
2ffc3eba:	d101      	bne.n	2ffc3ec0 <_tx_event_flags_set+0x34>
2ffc3ebc:	2301      	movs	r3, #1
2ffc3ebe:	63bb      	str	r3, [r7, #56]	@ 0x38
2ffc3ec0:	6bbb      	ldr	r3, [r7, #56]	@ 0x38
2ffc3ec2:	2b01      	cmp	r3, #1
2ffc3ec4:	d107      	bne.n	2ffc3ed6 <_tx_event_flags_set+0x4a>
2ffc3ec6:	68fb      	ldr	r3, [r7, #12]
2ffc3ec8:	6a1a      	ldr	r2, [r3, #32]
2ffc3eca:	68bb      	ldr	r3, [r7, #8]
2ffc3ecc:	43db      	mvns	r3, r3
2ffc3ece:	431a      	orrs	r2, r3
2ffc3ed0:	68fb      	ldr	r3, [r7, #12]
2ffc3ed2:	621a      	str	r2, [r3, #32]
2ffc3ed4:	e005      	b.n	2ffc3ee2 <_tx_event_flags_set+0x56>
2ffc3ed6:	68fb      	ldr	r3, [r7, #12]
2ffc3ed8:	689a      	ldr	r2, [r3, #8]
2ffc3eda:	68bb      	ldr	r3, [r7, #8]
2ffc3edc:	401a      	ands	r2, r3
2ffc3ede:	68fb      	ldr	r3, [r7, #12]
2ffc3ee0:	609a      	str	r2, [r3, #8]
2ffc3ee2:	6df8      	ldr	r0, [r7, #92]	@ 0x5c
2ffc3ee4:	f001 ed8c 	blx	2ffc5a00 <_tx_thread_interrupt_restore>
2ffc3ee8:	e18c      	b.n	2ffc4204 <_tx_event_flags_set+0x378>
2ffc3eea:	68fb      	ldr	r3, [r7, #12]
2ffc3eec:	6a5b      	ldr	r3, [r3, #36]	@ 0x24
2ffc3eee:	637b      	str	r3, [r7, #52]	@ 0x34
2ffc3ef0:	68fb      	ldr	r3, [r7, #12]
2ffc3ef2:	689a      	ldr	r2, [r3, #8]
2ffc3ef4:	68bb      	ldr	r3, [r7, #8]
2ffc3ef6:	431a      	orrs	r2, r3
2ffc3ef8:	68fb      	ldr	r3, [r7, #12]
2ffc3efa:	609a      	str	r2, [r3, #8]
2ffc3efc:	68fb      	ldr	r3, [r7, #12]
2ffc3efe:	6a1b      	ldr	r3, [r3, #32]
2ffc3f00:	2b00      	cmp	r3, #0
2ffc3f02:	d006      	beq.n	2ffc3f12 <_tx_event_flags_set+0x86>
2ffc3f04:	68fb      	ldr	r3, [r7, #12]
2ffc3f06:	6a1a      	ldr	r2, [r3, #32]
2ffc3f08:	68bb      	ldr	r3, [r7, #8]
2ffc3f0a:	43db      	mvns	r3, r3
2ffc3f0c:	401a      	ands	r2, r3
2ffc3f0e:	68fb      	ldr	r3, [r7, #12]
2ffc3f10:	621a      	str	r2, [r3, #32]
2ffc3f12:	2300      	movs	r3, #0
2ffc3f14:	63fb      	str	r3, [r7, #60]	@ 0x3c
2ffc3f16:	68fb      	ldr	r3, [r7, #12]
2ffc3f18:	695b      	ldr	r3, [r3, #20]
2ffc3f1a:	64bb      	str	r3, [r7, #72]	@ 0x48
2ffc3f1c:	68fb      	ldr	r3, [r7, #12]
2ffc3f1e:	691b      	ldr	r3, [r3, #16]
2ffc3f20:	2b00      	cmp	r3, #0
2ffc3f22:	f000 815a 	beq.w	2ffc41da <_tx_event_flags_set+0x34e>
2ffc3f26:	6cbb      	ldr	r3, [r7, #72]	@ 0x48
2ffc3f28:	2b01      	cmp	r3, #1
2ffc3f2a:	d15c      	bne.n	2ffc3fe6 <_tx_event_flags_set+0x15a>
2ffc3f2c:	68fb      	ldr	r3, [r7, #12]
2ffc3f2e:	691b      	ldr	r3, [r3, #16]
2ffc3f30:	65bb      	str	r3, [r7, #88]	@ 0x58
2ffc3f32:	68fb      	ldr	r3, [r7, #12]
2ffc3f34:	689b      	ldr	r3, [r3, #8]
2ffc3f36:	647b      	str	r3, [r7, #68]	@ 0x44
2ffc3f38:	6dbb      	ldr	r3, [r7, #88]	@ 0x58
2ffc3f3a:	6f9b      	ldr	r3, [r3, #120]	@ 0x78
2ffc3f3c:	62fb      	str	r3, [r7, #44]	@ 0x2c
2ffc3f3e:	6dbb      	ldr	r3, [r7, #88]	@ 0x58
2ffc3f40:	f8d3 3080 	ldr.w	r3, [r3, #128]	@ 0x80
2ffc3f44:	62bb      	str	r3, [r7, #40]	@ 0x28
2ffc3f46:	6abb      	ldr	r3, [r7, #40]	@ 0x28
2ffc3f48:	f003 0302 	and.w	r3, r3, #2
2ffc3f4c:	627b      	str	r3, [r7, #36]	@ 0x24
2ffc3f4e:	6a7b      	ldr	r3, [r7, #36]	@ 0x24
2ffc3f50:	2b02      	cmp	r3, #2
2ffc3f52:	d10a      	bne.n	2ffc3f6a <_tx_event_flags_set+0xde>
2ffc3f54:	6c7a      	ldr	r2, [r7, #68]	@ 0x44
2ffc3f56:	6afb      	ldr	r3, [r7, #44]	@ 0x2c
2ffc3f58:	4013      	ands	r3, r2
2ffc3f5a:	643b      	str	r3, [r7, #64]	@ 0x40
2ffc3f5c:	6c3a      	ldr	r2, [r7, #64]	@ 0x40
2ffc3f5e:	6afb      	ldr	r3, [r7, #44]	@ 0x2c
2ffc3f60:	429a      	cmp	r2, r3
2ffc3f62:	d006      	beq.n	2ffc3f72 <_tx_event_flags_set+0xe6>
2ffc3f64:	2300      	movs	r3, #0
2ffc3f66:	643b      	str	r3, [r7, #64]	@ 0x40
2ffc3f68:	e003      	b.n	2ffc3f72 <_tx_event_flags_set+0xe6>
2ffc3f6a:	6c7a      	ldr	r2, [r7, #68]	@ 0x44
2ffc3f6c:	6afb      	ldr	r3, [r7, #44]	@ 0x2c
2ffc3f6e:	4013      	ands	r3, r2
2ffc3f70:	643b      	str	r3, [r7, #64]	@ 0x40
2ffc3f72:	6c3b      	ldr	r3, [r7, #64]	@ 0x40
2ffc3f74:	2b00      	cmp	r3, #0
2ffc3f76:	f000 8137 	beq.w	2ffc41e8 <_tx_event_flags_set+0x35c>
2ffc3f7a:	6dbb      	ldr	r3, [r7, #88]	@ 0x58
2ffc3f7c:	6fdb      	ldr	r3, [r3, #124]	@ 0x7c
2ffc3f7e:	623b      	str	r3, [r7, #32]
2ffc3f80:	6a3b      	ldr	r3, [r7, #32]
2ffc3f82:	6c7a      	ldr	r2, [r7, #68]	@ 0x44
2ffc3f84:	601a      	str	r2, [r3, #0]
2ffc3f86:	6abb      	ldr	r3, [r7, #40]	@ 0x28
2ffc3f88:	f003 0301 	and.w	r3, r3, #1
2ffc3f8c:	61fb      	str	r3, [r7, #28]
2ffc3f8e:	69fb      	ldr	r3, [r7, #28]
2ffc3f90:	2b01      	cmp	r3, #1
2ffc3f92:	d106      	bne.n	2ffc3fa2 <_tx_event_flags_set+0x116>
2ffc3f94:	68fb      	ldr	r3, [r7, #12]
2ffc3f96:	689a      	ldr	r2, [r3, #8]
2ffc3f98:	6afb      	ldr	r3, [r7, #44]	@ 0x2c
2ffc3f9a:	43db      	mvns	r3, r3
2ffc3f9c:	401a      	ands	r2, r3
2ffc3f9e:	68fb      	ldr	r3, [r7, #12]
2ffc3fa0:	609a      	str	r2, [r3, #8]
2ffc3fa2:	68fb      	ldr	r3, [r7, #12]
2ffc3fa4:	2200      	movs	r2, #0
2ffc3fa6:	611a      	str	r2, [r3, #16]
2ffc3fa8:	68fb      	ldr	r3, [r7, #12]
2ffc3faa:	2200      	movs	r2, #0
2ffc3fac:	615a      	str	r2, [r3, #20]
2ffc3fae:	6dbb      	ldr	r3, [r7, #88]	@ 0x58
2ffc3fb0:	2200      	movs	r2, #0
2ffc3fb2:	669a      	str	r2, [r3, #104]	@ 0x68
2ffc3fb4:	6dbb      	ldr	r3, [r7, #88]	@ 0x58
2ffc3fb6:	2200      	movs	r2, #0
2ffc3fb8:	f8c3 2084 	str.w	r2, [r3, #132]	@ 0x84
2ffc3fbc:	f64a 73d0 	movw	r3, #45008	@ 0xafd0
2ffc3fc0:	f6c2 73fc 	movt	r3, #12284	@ 0x2ffc
2ffc3fc4:	681b      	ldr	r3, [r3, #0]
2ffc3fc6:	1c5a      	adds	r2, r3, #1
2ffc3fc8:	f64a 73d0 	movw	r3, #45008	@ 0xafd0
2ffc3fcc:	f6c2 73fc 	movt	r3, #12284	@ 0x2ffc
2ffc3fd0:	601a      	str	r2, [r3, #0]
2ffc3fd2:	6df8      	ldr	r0, [r7, #92]	@ 0x5c
2ffc3fd4:	f001 ed14 	blx	2ffc5a00 <_tx_thread_interrupt_restore>
2ffc3fd8:	6db8      	ldr	r0, [r7, #88]	@ 0x58
2ffc3fda:	f000 fd23 	bl	2ffc4a24 <_tx_thread_system_resume>
2ffc3fde:	f001 ed0a 	blx	2ffc59f4 <_tx_thread_interrupt_disable>
2ffc3fe2:	65f8      	str	r0, [r7, #92]	@ 0x5c
2ffc3fe4:	e100      	b.n	2ffc41e8 <_tx_event_flags_set+0x35c>
2ffc3fe6:	68fb      	ldr	r3, [r7, #12]
2ffc3fe8:	691b      	ldr	r3, [r3, #16]
2ffc3fea:	64fb      	str	r3, [r7, #76]	@ 0x4c
2ffc3fec:	6cfb      	ldr	r3, [r7, #76]	@ 0x4c
2ffc3fee:	65bb      	str	r3, [r7, #88]	@ 0x58
2ffc3ff0:	68fb      	ldr	r3, [r7, #12]
2ffc3ff2:	2200      	movs	r2, #0
2ffc3ff4:	611a      	str	r2, [r3, #16]
2ffc3ff6:	2300      	movs	r3, #0
2ffc3ff8:	657b      	str	r3, [r7, #84]	@ 0x54
2ffc3ffa:	2300      	movs	r3, #0
2ffc3ffc:	653b      	str	r3, [r7, #80]	@ 0x50
2ffc3ffe:	68fb      	ldr	r3, [r7, #12]
2ffc4000:	689b      	ldr	r3, [r3, #8]
2ffc4002:	647b      	str	r3, [r7, #68]	@ 0x44
2ffc4004:	f64a 73d0 	movw	r3, #45008	@ 0xafd0
2ffc4008:	f6c2 73fc 	movt	r3, #12284	@ 0x2ffc
2ffc400c:	681b      	ldr	r3, [r3, #0]
2ffc400e:	1c5a      	adds	r2, r3, #1
2ffc4010:	f64a 73d0 	movw	r3, #45008	@ 0xafd0
2ffc4014:	f6c2 73fc 	movt	r3, #12284	@ 0x2ffc
2ffc4018:	601a      	str	r2, [r3, #0]
2ffc401a:	2301      	movs	r3, #1
2ffc401c:	63fb      	str	r3, [r7, #60]	@ 0x3c
2ffc401e:	6df8      	ldr	r0, [r7, #92]	@ 0x5c
2ffc4020:	f001 ecee 	blx	2ffc5a00 <_tx_thread_interrupt_restore>
2ffc4024:	f001 ece6 	blx	2ffc59f4 <_tx_thread_interrupt_disable>
2ffc4028:	65f8      	str	r0, [r7, #92]	@ 0x5c
2ffc402a:	68fb      	ldr	r3, [r7, #12]
2ffc402c:	68db      	ldr	r3, [r3, #12]
2ffc402e:	2b00      	cmp	r3, #0
2ffc4030:	d00c      	beq.n	2ffc404c <_tx_event_flags_set+0x1c0>
2ffc4032:	68fb      	ldr	r3, [r7, #12]
2ffc4034:	2200      	movs	r2, #0
2ffc4036:	60da      	str	r2, [r3, #12]
2ffc4038:	6cfb      	ldr	r3, [r7, #76]	@ 0x4c
2ffc403a:	65bb      	str	r3, [r7, #88]	@ 0x58
2ffc403c:	68fb      	ldr	r3, [r7, #12]
2ffc403e:	695b      	ldr	r3, [r3, #20]
2ffc4040:	64bb      	str	r3, [r7, #72]	@ 0x48
2ffc4042:	68fb      	ldr	r3, [r7, #12]
2ffc4044:	689b      	ldr	r3, [r3, #8]
2ffc4046:	6c7a      	ldr	r2, [r7, #68]	@ 0x44
2ffc4048:	4313      	orrs	r3, r2
2ffc404a:	647b      	str	r3, [r7, #68]	@ 0x44
2ffc404c:	6dbb      	ldr	r3, [r7, #88]	@ 0x58
2ffc404e:	6f1b      	ldr	r3, [r3, #112]	@ 0x70
2ffc4050:	633b      	str	r3, [r7, #48]	@ 0x30
2ffc4052:	6dbb      	ldr	r3, [r7, #88]	@ 0x58
2ffc4054:	6f9b      	ldr	r3, [r3, #120]	@ 0x78
2ffc4056:	62fb      	str	r3, [r7, #44]	@ 0x2c
2ffc4058:	6dbb      	ldr	r3, [r7, #88]	@ 0x58
2ffc405a:	f8d3 3080 	ldr.w	r3, [r3, #128]	@ 0x80
2ffc405e:	62bb      	str	r3, [r7, #40]	@ 0x28
2ffc4060:	6abb      	ldr	r3, [r7, #40]	@ 0x28
2ffc4062:	f003 0302 	and.w	r3, r3, #2
2ffc4066:	627b      	str	r3, [r7, #36]	@ 0x24
2ffc4068:	6a7b      	ldr	r3, [r7, #36]	@ 0x24
2ffc406a:	2b02      	cmp	r3, #2
2ffc406c:	d10a      	bne.n	2ffc4084 <_tx_event_flags_set+0x1f8>
2ffc406e:	6c7a      	ldr	r2, [r7, #68]	@ 0x44
2ffc4070:	6afb      	ldr	r3, [r7, #44]	@ 0x2c
2ffc4072:	4013      	ands	r3, r2
2ffc4074:	643b      	str	r3, [r7, #64]	@ 0x40
2ffc4076:	6c3a      	ldr	r2, [r7, #64]	@ 0x40
2ffc4078:	6afb      	ldr	r3, [r7, #44]	@ 0x2c
2ffc407a:	429a      	cmp	r2, r3
2ffc407c:	d006      	beq.n	2ffc408c <_tx_event_flags_set+0x200>
2ffc407e:	2300      	movs	r3, #0
2ffc4080:	643b      	str	r3, [r7, #64]	@ 0x40
2ffc4082:	e003      	b.n	2ffc408c <_tx_event_flags_set+0x200>
2ffc4084:	6c7a      	ldr	r2, [r7, #68]	@ 0x44
2ffc4086:	6afb      	ldr	r3, [r7, #44]	@ 0x2c
2ffc4088:	4013      	ands	r3, r2
2ffc408a:	643b      	str	r3, [r7, #64]	@ 0x40
2ffc408c:	6dbb      	ldr	r3, [r7, #88]	@ 0x58
2ffc408e:	6b1b      	ldr	r3, [r3, #48]	@ 0x30
2ffc4090:	2b07      	cmp	r3, #7
2ffc4092:	d001      	beq.n	2ffc4098 <_tx_event_flags_set+0x20c>
2ffc4094:	2301      	movs	r3, #1
2ffc4096:	643b      	str	r3, [r7, #64]	@ 0x40
2ffc4098:	6c3b      	ldr	r3, [r7, #64]	@ 0x40
2ffc409a:	2b00      	cmp	r3, #0
2ffc409c:	d051      	beq.n	2ffc4142 <_tx_event_flags_set+0x2b6>
2ffc409e:	6dbb      	ldr	r3, [r7, #88]	@ 0x58
2ffc40a0:	6b1b      	ldr	r3, [r3, #48]	@ 0x30
2ffc40a2:	2b07      	cmp	r3, #7
2ffc40a4:	d11a      	bne.n	2ffc40dc <_tx_event_flags_set+0x250>
2ffc40a6:	6dbb      	ldr	r3, [r7, #88]	@ 0x58
2ffc40a8:	6fdb      	ldr	r3, [r3, #124]	@ 0x7c
2ffc40aa:	623b      	str	r3, [r7, #32]
2ffc40ac:	6a3b      	ldr	r3, [r7, #32]
2ffc40ae:	6c7a      	ldr	r2, [r7, #68]	@ 0x44
2ffc40b0:	601a      	str	r2, [r3, #0]
2ffc40b2:	6abb      	ldr	r3, [r7, #40]	@ 0x28
2ffc40b4:	f003 0301 	and.w	r3, r3, #1
2ffc40b8:	61fb      	str	r3, [r7, #28]
2ffc40ba:	69fb      	ldr	r3, [r7, #28]
2ffc40bc:	2b01      	cmp	r3, #1
2ffc40be:	d106      	bne.n	2ffc40ce <_tx_event_flags_set+0x242>
2ffc40c0:	68fb      	ldr	r3, [r7, #12]
2ffc40c2:	689a      	ldr	r2, [r3, #8]
2ffc40c4:	6afb      	ldr	r3, [r7, #44]	@ 0x2c
2ffc40c6:	43db      	mvns	r3, r3
2ffc40c8:	401a      	ands	r2, r3
2ffc40ca:	68fb      	ldr	r3, [r7, #12]
2ffc40cc:	609a      	str	r2, [r3, #8]
2ffc40ce:	6dbb      	ldr	r3, [r7, #88]	@ 0x58
2ffc40d0:	2200      	movs	r2, #0
2ffc40d2:	669a      	str	r2, [r3, #104]	@ 0x68
2ffc40d4:	6dbb      	ldr	r3, [r7, #88]	@ 0x58
2ffc40d6:	2200      	movs	r2, #0
2ffc40d8:	f8c3 2084 	str.w	r2, [r3, #132]	@ 0x84
2ffc40dc:	6dbb      	ldr	r3, [r7, #88]	@ 0x58
2ffc40de:	6f1b      	ldr	r3, [r3, #112]	@ 0x70
2ffc40e0:	6dba      	ldr	r2, [r7, #88]	@ 0x58
2ffc40e2:	429a      	cmp	r2, r3
2ffc40e4:	d102      	bne.n	2ffc40ec <_tx_event_flags_set+0x260>
2ffc40e6:	2300      	movs	r3, #0
2ffc40e8:	64fb      	str	r3, [r7, #76]	@ 0x4c
2ffc40ea:	e012      	b.n	2ffc4112 <_tx_event_flags_set+0x286>
2ffc40ec:	6dbb      	ldr	r3, [r7, #88]	@ 0x58
2ffc40ee:	6f1b      	ldr	r3, [r3, #112]	@ 0x70
2ffc40f0:	61bb      	str	r3, [r7, #24]
2ffc40f2:	6dbb      	ldr	r3, [r7, #88]	@ 0x58
2ffc40f4:	6f5b      	ldr	r3, [r3, #116]	@ 0x74
2ffc40f6:	617b      	str	r3, [r7, #20]
2ffc40f8:	69bb      	ldr	r3, [r7, #24]
2ffc40fa:	697a      	ldr	r2, [r7, #20]
2ffc40fc:	675a      	str	r2, [r3, #116]	@ 0x74
2ffc40fe:	697b      	ldr	r3, [r7, #20]
2ffc4100:	69ba      	ldr	r2, [r7, #24]
2ffc4102:	671a      	str	r2, [r3, #112]	@ 0x70
2ffc4104:	6cfa      	ldr	r2, [r7, #76]	@ 0x4c
2ffc4106:	6dbb      	ldr	r3, [r7, #88]	@ 0x58
2ffc4108:	429a      	cmp	r2, r3
2ffc410a:	d102      	bne.n	2ffc4112 <_tx_event_flags_set+0x286>
2ffc410c:	6dbb      	ldr	r3, [r7, #88]	@ 0x58
2ffc410e:	6f1b      	ldr	r3, [r3, #112]	@ 0x70
2ffc4110:	64fb      	str	r3, [r7, #76]	@ 0x4c
2ffc4112:	68fb      	ldr	r3, [r7, #12]
2ffc4114:	695b      	ldr	r3, [r3, #20]
2ffc4116:	1e5a      	subs	r2, r3, #1
2ffc4118:	68fb      	ldr	r3, [r7, #12]
2ffc411a:	615a      	str	r2, [r3, #20]
2ffc411c:	6d7b      	ldr	r3, [r7, #84]	@ 0x54
2ffc411e:	2b00      	cmp	r3, #0
2ffc4120:	d107      	bne.n	2ffc4132 <_tx_event_flags_set+0x2a6>
2ffc4122:	6dbb      	ldr	r3, [r7, #88]	@ 0x58
2ffc4124:	657b      	str	r3, [r7, #84]	@ 0x54
2ffc4126:	6dbb      	ldr	r3, [r7, #88]	@ 0x58
2ffc4128:	653b      	str	r3, [r7, #80]	@ 0x50
2ffc412a:	6dbb      	ldr	r3, [r7, #88]	@ 0x58
2ffc412c:	2200      	movs	r2, #0
2ffc412e:	671a      	str	r2, [r3, #112]	@ 0x70
2ffc4130:	e007      	b.n	2ffc4142 <_tx_event_flags_set+0x2b6>
2ffc4132:	6d3b      	ldr	r3, [r7, #80]	@ 0x50
2ffc4134:	6dba      	ldr	r2, [r7, #88]	@ 0x58
2ffc4136:	671a      	str	r2, [r3, #112]	@ 0x70
2ffc4138:	6dbb      	ldr	r3, [r7, #88]	@ 0x58
2ffc413a:	2200      	movs	r2, #0
2ffc413c:	671a      	str	r2, [r3, #112]	@ 0x70
2ffc413e:	6dbb      	ldr	r3, [r7, #88]	@ 0x58
2ffc4140:	653b      	str	r3, [r7, #80]	@ 0x50
2ffc4142:	6b3b      	ldr	r3, [r7, #48]	@ 0x30
2ffc4144:	65bb      	str	r3, [r7, #88]	@ 0x58
2ffc4146:	6cbb      	ldr	r3, [r7, #72]	@ 0x48
2ffc4148:	3b01      	subs	r3, #1
2ffc414a:	64bb      	str	r3, [r7, #72]	@ 0x48
2ffc414c:	6cbb      	ldr	r3, [r7, #72]	@ 0x48
2ffc414e:	2b00      	cmp	r3, #0
2ffc4150:	f47f af65 	bne.w	2ffc401e <_tx_event_flags_set+0x192>
2ffc4154:	68fb      	ldr	r3, [r7, #12]
2ffc4156:	6cfa      	ldr	r2, [r7, #76]	@ 0x4c
2ffc4158:	611a      	str	r2, [r3, #16]
2ffc415a:	68fb      	ldr	r3, [r7, #12]
2ffc415c:	6a1b      	ldr	r3, [r3, #32]
2ffc415e:	2b00      	cmp	r3, #0
2ffc4160:	d00a      	beq.n	2ffc4178 <_tx_event_flags_set+0x2ec>
2ffc4162:	68fb      	ldr	r3, [r7, #12]
2ffc4164:	689a      	ldr	r2, [r3, #8]
2ffc4166:	68fb      	ldr	r3, [r7, #12]
2ffc4168:	6a1b      	ldr	r3, [r3, #32]
2ffc416a:	43db      	mvns	r3, r3
2ffc416c:	401a      	ands	r2, r3
2ffc416e:	68fb      	ldr	r3, [r7, #12]
2ffc4170:	609a      	str	r2, [r3, #8]
2ffc4172:	68fb      	ldr	r3, [r7, #12]
2ffc4174:	2200      	movs	r2, #0
2ffc4176:	621a      	str	r2, [r3, #32]
2ffc4178:	6df8      	ldr	r0, [r7, #92]	@ 0x5c
2ffc417a:	f001 ec42 	blx	2ffc5a00 <_tx_thread_interrupt_restore>
2ffc417e:	6d7b      	ldr	r3, [r7, #84]	@ 0x54
2ffc4180:	65bb      	str	r3, [r7, #88]	@ 0x58
2ffc4182:	e018      	b.n	2ffc41b6 <_tx_event_flags_set+0x32a>
2ffc4184:	6dbb      	ldr	r3, [r7, #88]	@ 0x58
2ffc4186:	6f1b      	ldr	r3, [r3, #112]	@ 0x70
2ffc4188:	633b      	str	r3, [r7, #48]	@ 0x30
2ffc418a:	f001 ec34 	blx	2ffc59f4 <_tx_thread_interrupt_disable>
2ffc418e:	65f8      	str	r0, [r7, #92]	@ 0x5c
2ffc4190:	f64a 73d0 	movw	r3, #45008	@ 0xafd0
2ffc4194:	f6c2 73fc 	movt	r3, #12284	@ 0x2ffc
2ffc4198:	681b      	ldr	r3, [r3, #0]
2ffc419a:	1c5a      	adds	r2, r3, #1
2ffc419c:	f64a 73d0 	movw	r3, #45008	@ 0xafd0
2ffc41a0:	f6c2 73fc 	movt	r3, #12284	@ 0x2ffc
2ffc41a4:	601a      	str	r2, [r3, #0]
2ffc41a6:	6df8      	ldr	r0, [r7, #92]	@ 0x5c
2ffc41a8:	f001 ec2a 	blx	2ffc5a00 <_tx_thread_interrupt_restore>
2ffc41ac:	6db8      	ldr	r0, [r7, #88]	@ 0x58
2ffc41ae:	f000 fc39 	bl	2ffc4a24 <_tx_thread_system_resume>
2ffc41b2:	6b3b      	ldr	r3, [r7, #48]	@ 0x30
2ffc41b4:	65bb      	str	r3, [r7, #88]	@ 0x58
2ffc41b6:	6dbb      	ldr	r3, [r7, #88]	@ 0x58
2ffc41b8:	2b00      	cmp	r3, #0
2ffc41ba:	d1e3      	bne.n	2ffc4184 <_tx_event_flags_set+0x2f8>
2ffc41bc:	f001 ec1a 	blx	2ffc59f4 <_tx_thread_interrupt_disable>
2ffc41c0:	65f8      	str	r0, [r7, #92]	@ 0x5c
2ffc41c2:	f64a 73d0 	movw	r3, #45008	@ 0xafd0
2ffc41c6:	f6c2 73fc 	movt	r3, #12284	@ 0x2ffc
2ffc41ca:	681b      	ldr	r3, [r3, #0]
2ffc41cc:	1e5a      	subs	r2, r3, #1
2ffc41ce:	f64a 73d0 	movw	r3, #45008	@ 0xafd0
2ffc41d2:	f6c2 73fc 	movt	r3, #12284	@ 0x2ffc
2ffc41d6:	601a      	str	r2, [r3, #0]
2ffc41d8:	e006      	b.n	2ffc41e8 <_tx_event_flags_set+0x35c>
2ffc41da:	68fb      	ldr	r3, [r7, #12]
2ffc41dc:	695b      	ldr	r3, [r3, #20]
2ffc41de:	2b00      	cmp	r3, #0
2ffc41e0:	d002      	beq.n	2ffc41e8 <_tx_event_flags_set+0x35c>
2ffc41e2:	68fb      	ldr	r3, [r7, #12]
2ffc41e4:	2201      	movs	r2, #1
2ffc41e6:	60da      	str	r2, [r3, #12]
2ffc41e8:	6df8      	ldr	r0, [r7, #92]	@ 0x5c
2ffc41ea:	f001 ec0a 	blx	2ffc5a00 <_tx_thread_interrupt_restore>
2ffc41ee:	6b7b      	ldr	r3, [r7, #52]	@ 0x34
2ffc41f0:	2b00      	cmp	r3, #0
2ffc41f2:	d002      	beq.n	2ffc41fa <_tx_event_flags_set+0x36e>
2ffc41f4:	6b7b      	ldr	r3, [r7, #52]	@ 0x34
2ffc41f6:	68f8      	ldr	r0, [r7, #12]
2ffc41f8:	4798      	blx	r3
2ffc41fa:	6bfb      	ldr	r3, [r7, #60]	@ 0x3c
2ffc41fc:	2b01      	cmp	r3, #1
2ffc41fe:	d101      	bne.n	2ffc4204 <_tx_event_flags_set+0x378>
2ffc4200:	f000 fbe6 	bl	2ffc49d0 <_tx_thread_system_preempt_check>
2ffc4204:	2300      	movs	r3, #0
2ffc4206:	4618      	mov	r0, r3
2ffc4208:	3760      	adds	r7, #96	@ 0x60
2ffc420a:	46bd      	mov	sp, r7
2ffc420c:	bd80      	pop	{r7, pc}

2ffc420e <_tx_initialize_high_level>:
2ffc420e:	b580      	push	{r7, lr}
2ffc4210:	af00      	add	r7, sp, #0
2ffc4212:	f000 f966 	bl	2ffc44e2 <_tx_thread_initialize>
2ffc4216:	f001 f901 	bl	2ffc541c <_tx_timer_initialize>
2ffc421a:	f64a 63fc 	movw	r3, #44796	@ 0xaefc
2ffc421e:	f6c2 73fc 	movt	r3, #12284	@ 0x2ffc
2ffc4222:	2200      	movs	r2, #0
2ffc4224:	601a      	str	r2, [r3, #0]
2ffc4226:	f64a 7300 	movw	r3, #44800	@ 0xaf00
2ffc422a:	f6c2 73fc 	movt	r3, #12284	@ 0x2ffc
2ffc422e:	2200      	movs	r2, #0
2ffc4230:	601a      	str	r2, [r3, #0]
2ffc4232:	f64a 7304 	movw	r3, #44804	@ 0xaf04
2ffc4236:	f6c2 73fc 	movt	r3, #12284	@ 0x2ffc
2ffc423a:	2200      	movs	r2, #0
2ffc423c:	601a      	str	r2, [r3, #0]
2ffc423e:	f64a 7308 	movw	r3, #44808	@ 0xaf08
2ffc4242:	f6c2 73fc 	movt	r3, #12284	@ 0x2ffc
2ffc4246:	2200      	movs	r2, #0
2ffc4248:	601a      	str	r2, [r3, #0]
2ffc424a:	f64a 730c 	movw	r3, #44812	@ 0xaf0c
2ffc424e:	f6c2 73fc 	movt	r3, #12284	@ 0x2ffc
2ffc4252:	2200      	movs	r2, #0
2ffc4254:	601a      	str	r2, [r3, #0]
2ffc4256:	f64a 7310 	movw	r3, #44816	@ 0xaf10
2ffc425a:	f6c2 73fc 	movt	r3, #12284	@ 0x2ffc
2ffc425e:	2200      	movs	r2, #0
2ffc4260:	601a      	str	r2, [r3, #0]
2ffc4262:	f64a 731c 	movw	r3, #44828	@ 0xaf1c
2ffc4266:	f6c2 73fc 	movt	r3, #12284	@ 0x2ffc
2ffc426a:	2200      	movs	r2, #0
2ffc426c:	601a      	str	r2, [r3, #0]
2ffc426e:	f64a 7320 	movw	r3, #44832	@ 0xaf20
2ffc4272:	f6c2 73fc 	movt	r3, #12284	@ 0x2ffc
2ffc4276:	2200      	movs	r2, #0
2ffc4278:	601a      	str	r2, [r3, #0]
2ffc427a:	f64a 7324 	movw	r3, #44836	@ 0xaf24
2ffc427e:	f6c2 73fc 	movt	r3, #12284	@ 0x2ffc
2ffc4282:	2200      	movs	r2, #0
2ffc4284:	601a      	str	r2, [r3, #0]
2ffc4286:	f64a 7328 	movw	r3, #44840	@ 0xaf28
2ffc428a:	f6c2 73fc 	movt	r3, #12284	@ 0x2ffc
2ffc428e:	2200      	movs	r2, #0
2ffc4290:	601a      	str	r2, [r3, #0]
2ffc4292:	f64a 7314 	movw	r3, #44820	@ 0xaf14
2ffc4296:	f6c2 73fc 	movt	r3, #12284	@ 0x2ffc
2ffc429a:	2200      	movs	r2, #0
2ffc429c:	601a      	str	r2, [r3, #0]
2ffc429e:	f64a 7318 	movw	r3, #44824	@ 0xaf18
2ffc42a2:	f6c2 73fc 	movt	r3, #12284	@ 0x2ffc
2ffc42a6:	2200      	movs	r2, #0
2ffc42a8:	601a      	str	r2, [r3, #0]
2ffc42aa:	bf00      	nop
2ffc42ac:	bd80      	pop	{r7, pc}

2ffc42ae <_tx_initialize_kernel_enter>:
2ffc42ae:	b580      	push	{r7, lr}
2ffc42b0:	af00      	add	r7, sp, #0
2ffc42b2:	f24a 33fc 	movw	r3, #41980	@ 0xa3fc
2ffc42b6:	f6c2 73fc 	movt	r3, #12284	@ 0x2ffc
2ffc42ba:	681b      	ldr	r3, [r3, #0]
2ffc42bc:	f113 3f0f 	cmn.w	r3, #252645135	@ 0xf0f0f0f
2ffc42c0:	d00a      	beq.n	2ffc42d8 <_tx_initialize_kernel_enter+0x2a>
2ffc42c2:	f24a 33fc 	movw	r3, #41980	@ 0xa3fc
2ffc42c6:	f6c2 73fc 	movt	r3, #12284	@ 0x2ffc
2ffc42ca:	f04f 32f0 	mov.w	r2, #4042322160	@ 0xf0f0f0f0
2ffc42ce:	601a      	str	r2, [r3, #0]
2ffc42d0:	f7fe fd86 	bl	2ffc2de0 <_tx_initialize_low_level>
2ffc42d4:	f7ff ff9b 	bl	2ffc420e <_tx_initialize_high_level>
2ffc42d8:	f24a 33fc 	movw	r3, #41980	@ 0xa3fc
2ffc42dc:	f6c2 73fc 	movt	r3, #12284	@ 0x2ffc
2ffc42e0:	f04f 32f0 	mov.w	r2, #4042322160	@ 0xf0f0f0f0
2ffc42e4:	601a      	str	r2, [r3, #0]
2ffc42e6:	f64a 732c 	movw	r3, #44844	@ 0xaf2c
2ffc42ea:	f6c2 73fc 	movt	r3, #12284	@ 0x2ffc
2ffc42ee:	681b      	ldr	r3, [r3, #0]
2ffc42f0:	4618      	mov	r0, r3
2ffc42f2:	f7fe fbc5 	bl	2ffc2a80 <tx_application_define>
2ffc42f6:	f24a 33fc 	movw	r3, #41980	@ 0xa3fc
2ffc42fa:	f6c2 73fc 	movt	r3, #12284	@ 0x2ffc
2ffc42fe:	2200      	movs	r2, #0
2ffc4300:	601a      	str	r2, [r3, #0]
2ffc4302:	f001 eb86 	blx	2ffc5a10 <_tx_thread_schedule>
2ffc4306:	bf00      	nop
2ffc4308:	bd80      	pop	{r7, pc}

2ffc430a <_tx_thread_create>:
2ffc430a:	b580      	push	{r7, lr}
2ffc430c:	b08a      	sub	sp, #40	@ 0x28
2ffc430e:	af00      	add	r7, sp, #0
2ffc4310:	60f8      	str	r0, [r7, #12]
2ffc4312:	60b9      	str	r1, [r7, #8]
2ffc4314:	607a      	str	r2, [r7, #4]
2ffc4316:	603b      	str	r3, [r7, #0]
2ffc4318:	2300      	movs	r3, #0
2ffc431a:	623b      	str	r3, [r7, #32]
2ffc431c:	6b7a      	ldr	r2, [r7, #52]	@ 0x34
2ffc431e:	21ef      	movs	r1, #239	@ 0xef
2ffc4320:	6b38      	ldr	r0, [r7, #48]	@ 0x30
2ffc4322:	f004 fad0 	bl	2ffc88c6 <memset>
2ffc4326:	22b8      	movs	r2, #184	@ 0xb8
2ffc4328:	2100      	movs	r1, #0
2ffc432a:	68f8      	ldr	r0, [r7, #12]
2ffc432c:	f004 facb 	bl	2ffc88c6 <memset>
2ffc4330:	68fb      	ldr	r3, [r7, #12]
2ffc4332:	68ba      	ldr	r2, [r7, #8]
2ffc4334:	629a      	str	r2, [r3, #40]	@ 0x28
2ffc4336:	68fb      	ldr	r3, [r7, #12]
2ffc4338:	687a      	ldr	r2, [r7, #4]
2ffc433a:	645a      	str	r2, [r3, #68]	@ 0x44
2ffc433c:	68fb      	ldr	r3, [r7, #12]
2ffc433e:	683a      	ldr	r2, [r7, #0]
2ffc4340:	649a      	str	r2, [r3, #72]	@ 0x48
2ffc4342:	68fb      	ldr	r3, [r7, #12]
2ffc4344:	6b3a      	ldr	r2, [r7, #48]	@ 0x30
2ffc4346:	60da      	str	r2, [r3, #12]
2ffc4348:	68fb      	ldr	r3, [r7, #12]
2ffc434a:	6b7a      	ldr	r2, [r7, #52]	@ 0x34
2ffc434c:	615a      	str	r2, [r3, #20]
2ffc434e:	68fb      	ldr	r3, [r7, #12]
2ffc4350:	6bba      	ldr	r2, [r7, #56]	@ 0x38
2ffc4352:	62da      	str	r2, [r3, #44]	@ 0x2c
2ffc4354:	68fb      	ldr	r3, [r7, #12]
2ffc4356:	6bba      	ldr	r2, [r7, #56]	@ 0x38
2ffc4358:	f8c3 2098 	str.w	r2, [r3, #152]	@ 0x98
2ffc435c:	68fb      	ldr	r3, [r7, #12]
2ffc435e:	6c3a      	ldr	r2, [r7, #64]	@ 0x40
2ffc4360:	619a      	str	r2, [r3, #24]
2ffc4362:	68fb      	ldr	r3, [r7, #12]
2ffc4364:	6c3a      	ldr	r2, [r7, #64]	@ 0x40
2ffc4366:	61da      	str	r2, [r3, #28]
2ffc4368:	68fb      	ldr	r3, [r7, #12]
2ffc436a:	2220      	movs	r2, #32
2ffc436c:	f8c3 20a0 	str.w	r2, [r3, #160]	@ 0xa0
2ffc4370:	6b3b      	ldr	r3, [r7, #48]	@ 0x30
2ffc4372:	61fb      	str	r3, [r7, #28]
2ffc4374:	6b7b      	ldr	r3, [r7, #52]	@ 0x34
2ffc4376:	3b01      	subs	r3, #1
2ffc4378:	69fa      	ldr	r2, [r7, #28]
2ffc437a:	4413      	add	r3, r2
2ffc437c:	61fb      	str	r3, [r7, #28]
2ffc437e:	68fb      	ldr	r3, [r7, #12]
2ffc4380:	69fa      	ldr	r2, [r7, #28]
2ffc4382:	611a      	str	r2, [r3, #16]
2ffc4384:	68fb      	ldr	r3, [r7, #12]
2ffc4386:	6bfa      	ldr	r2, [r7, #60]	@ 0x3c
2ffc4388:	63da      	str	r2, [r3, #60]	@ 0x3c
2ffc438a:	68fb      	ldr	r3, [r7, #12]
2ffc438c:	6bfa      	ldr	r2, [r7, #60]	@ 0x3c
2ffc438e:	f8c3 209c 	str.w	r2, [r3, #156]	@ 0x9c
2ffc4392:	68fb      	ldr	r3, [r7, #12]
2ffc4394:	2203      	movs	r2, #3
2ffc4396:	631a      	str	r2, [r3, #48]	@ 0x30
2ffc4398:	68fa      	ldr	r2, [r7, #12]
2ffc439a:	f245 23b1 	movw	r3, #21169	@ 0x52b1
2ffc439e:	f6c2 73fc 	movt	r3, #12284	@ 0x2ffc
2ffc43a2:	6553      	str	r3, [r2, #84]	@ 0x54
2ffc43a4:	68fa      	ldr	r2, [r7, #12]
2ffc43a6:	68fb      	ldr	r3, [r7, #12]
2ffc43a8:	659a      	str	r2, [r3, #88]	@ 0x58
2ffc43aa:	f644 0143 	movw	r1, #18499	@ 0x4843
2ffc43ae:	f6c2 71fc 	movt	r1, #12284	@ 0x2ffc
2ffc43b2:	68f8      	ldr	r0, [r7, #12]
2ffc43b4:	f001 eb60 	blx	2ffc5a78 <_tx_thread_stack_build>
2ffc43b8:	f001 eb1c 	blx	2ffc59f4 <_tx_thread_interrupt_disable>
2ffc43bc:	61b8      	str	r0, [r7, #24]
2ffc43be:	68fa      	ldr	r2, [r7, #12]
2ffc43c0:	f245 2344 	movw	r3, #21060	@ 0x5244
2ffc43c4:	f2c5 4348 	movt	r3, #21576	@ 0x5448
2ffc43c8:	6013      	str	r3, [r2, #0]
2ffc43ca:	f64a 7340 	movw	r3, #44864	@ 0xaf40
2ffc43ce:	f6c2 73fc 	movt	r3, #12284	@ 0x2ffc
2ffc43d2:	681b      	ldr	r3, [r3, #0]
2ffc43d4:	2b00      	cmp	r3, #0
2ffc43d6:	d10e      	bne.n	2ffc43f6 <_tx_thread_create+0xec>
2ffc43d8:	f64a 733c 	movw	r3, #44860	@ 0xaf3c
2ffc43dc:	f6c2 73fc 	movt	r3, #12284	@ 0x2ffc
2ffc43e0:	68fa      	ldr	r2, [r7, #12]
2ffc43e2:	601a      	str	r2, [r3, #0]
2ffc43e4:	68fb      	ldr	r3, [r7, #12]
2ffc43e6:	68fa      	ldr	r2, [r7, #12]
2ffc43e8:	f8c3 2088 	str.w	r2, [r3, #136]	@ 0x88
2ffc43ec:	68fb      	ldr	r3, [r7, #12]
2ffc43ee:	68fa      	ldr	r2, [r7, #12]
2ffc43f0:	f8c3 208c 	str.w	r2, [r3, #140]	@ 0x8c
2ffc43f4:	e019      	b.n	2ffc442a <_tx_thread_create+0x120>
2ffc43f6:	f64a 733c 	movw	r3, #44860	@ 0xaf3c
2ffc43fa:	f6c2 73fc 	movt	r3, #12284	@ 0x2ffc
2ffc43fe:	681b      	ldr	r3, [r3, #0]
2ffc4400:	617b      	str	r3, [r7, #20]
2ffc4402:	697b      	ldr	r3, [r7, #20]
2ffc4404:	f8d3 308c 	ldr.w	r3, [r3, #140]	@ 0x8c
2ffc4408:	613b      	str	r3, [r7, #16]
2ffc440a:	697b      	ldr	r3, [r7, #20]
2ffc440c:	68fa      	ldr	r2, [r7, #12]
2ffc440e:	f8c3 208c 	str.w	r2, [r3, #140]	@ 0x8c
2ffc4412:	693b      	ldr	r3, [r7, #16]
2ffc4414:	68fa      	ldr	r2, [r7, #12]
2ffc4416:	f8c3 2088 	str.w	r2, [r3, #136]	@ 0x88
2ffc441a:	68fb      	ldr	r3, [r7, #12]
2ffc441c:	693a      	ldr	r2, [r7, #16]
2ffc441e:	f8c3 208c 	str.w	r2, [r3, #140]	@ 0x8c
2ffc4422:	68fb      	ldr	r3, [r7, #12]
2ffc4424:	697a      	ldr	r2, [r7, #20]
2ffc4426:	f8c3 2088 	str.w	r2, [r3, #136]	@ 0x88
2ffc442a:	f64a 7340 	movw	r3, #44864	@ 0xaf40
2ffc442e:	f6c2 73fc 	movt	r3, #12284	@ 0x2ffc
2ffc4432:	681b      	ldr	r3, [r3, #0]
2ffc4434:	1c5a      	adds	r2, r3, #1
2ffc4436:	f64a 7340 	movw	r3, #44864	@ 0xaf40
2ffc443a:	f6c2 73fc 	movt	r3, #12284	@ 0x2ffc
2ffc443e:	601a      	str	r2, [r3, #0]
2ffc4440:	f64a 73d0 	movw	r3, #45008	@ 0xafd0
2ffc4444:	f6c2 73fc 	movt	r3, #12284	@ 0x2ffc
2ffc4448:	681b      	ldr	r3, [r3, #0]
2ffc444a:	1c5a      	adds	r2, r3, #1
2ffc444c:	f64a 73d0 	movw	r3, #45008	@ 0xafd0
2ffc4450:	f6c2 73fc 	movt	r3, #12284	@ 0x2ffc
2ffc4454:	601a      	str	r2, [r3, #0]
2ffc4456:	6c7b      	ldr	r3, [r7, #68]	@ 0x44
2ffc4458:	2b01      	cmp	r3, #1
2ffc445a:	d127      	bne.n	2ffc44ac <_tx_thread_create+0x1a2>
2ffc445c:	f24a 33fc 	movw	r3, #41980	@ 0xa3fc
2ffc4460:	f6c2 73fc 	movt	r3, #12284	@ 0x2ffc
2ffc4464:	681b      	ldr	r3, [r3, #0]
2ffc4466:	f1b3 3ff0 	cmp.w	r3, #4042322160	@ 0xf0f0f0f0
2ffc446a:	d310      	bcc.n	2ffc448e <_tx_thread_create+0x184>
2ffc446c:	f64a 7338 	movw	r3, #44856	@ 0xaf38
2ffc4470:	f6c2 73fc 	movt	r3, #12284	@ 0x2ffc
2ffc4474:	681b      	ldr	r3, [r3, #0]
2ffc4476:	627b      	str	r3, [r7, #36]	@ 0x24
2ffc4478:	6a7b      	ldr	r3, [r7, #36]	@ 0x24
2ffc447a:	2b00      	cmp	r3, #0
2ffc447c:	d009      	beq.n	2ffc4492 <_tx_thread_create+0x188>
2ffc447e:	6a7b      	ldr	r3, [r7, #36]	@ 0x24
2ffc4480:	6bdb      	ldr	r3, [r3, #60]	@ 0x3c
2ffc4482:	623b      	str	r3, [r7, #32]
2ffc4484:	6a7b      	ldr	r3, [r7, #36]	@ 0x24
2ffc4486:	6ada      	ldr	r2, [r3, #44]	@ 0x2c
2ffc4488:	6a7b      	ldr	r3, [r7, #36]	@ 0x24
2ffc448a:	63da      	str	r2, [r3, #60]	@ 0x3c
2ffc448c:	e001      	b.n	2ffc4492 <_tx_thread_create+0x188>
2ffc448e:	2300      	movs	r3, #0
2ffc4490:	627b      	str	r3, [r7, #36]	@ 0x24
2ffc4492:	69b8      	ldr	r0, [r7, #24]
2ffc4494:	f001 eab4 	blx	2ffc5a00 <_tx_thread_interrupt_restore>
2ffc4498:	68f8      	ldr	r0, [r7, #12]
2ffc449a:	f000 fac3 	bl	2ffc4a24 <_tx_thread_system_resume>
2ffc449e:	6a7b      	ldr	r3, [r7, #36]	@ 0x24
2ffc44a0:	2b00      	cmp	r3, #0
2ffc44a2:	d019      	beq.n	2ffc44d8 <_tx_thread_create+0x1ce>
2ffc44a4:	6a7b      	ldr	r3, [r7, #36]	@ 0x24
2ffc44a6:	6a3a      	ldr	r2, [r7, #32]
2ffc44a8:	63da      	str	r2, [r3, #60]	@ 0x3c
2ffc44aa:	e015      	b.n	2ffc44d8 <_tx_thread_create+0x1ce>
2ffc44ac:	69b8      	ldr	r0, [r7, #24]
2ffc44ae:	f001 eaa8 	blx	2ffc5a00 <_tx_thread_interrupt_restore>
2ffc44b2:	f001 eaa0 	blx	2ffc59f4 <_tx_thread_interrupt_disable>
2ffc44b6:	61b8      	str	r0, [r7, #24]
2ffc44b8:	f64a 73d0 	movw	r3, #45008	@ 0xafd0
2ffc44bc:	f6c2 73fc 	movt	r3, #12284	@ 0x2ffc
2ffc44c0:	681b      	ldr	r3, [r3, #0]
2ffc44c2:	1e5a      	subs	r2, r3, #1
2ffc44c4:	f64a 73d0 	movw	r3, #45008	@ 0xafd0
2ffc44c8:	f6c2 73fc 	movt	r3, #12284	@ 0x2ffc
2ffc44cc:	601a      	str	r2, [r3, #0]
2ffc44ce:	69b8      	ldr	r0, [r7, #24]
2ffc44d0:	f001 ea96 	blx	2ffc5a00 <_tx_thread_interrupt_restore>
2ffc44d4:	f000 fa7c 	bl	2ffc49d0 <_tx_thread_system_preempt_check>
2ffc44d8:	2300      	movs	r3, #0
2ffc44da:	4618      	mov	r0, r3
2ffc44dc:	3728      	adds	r7, #40	@ 0x28
2ffc44de:	46bd      	mov	sp, r7
2ffc44e0:	bd80      	pop	{r7, pc}

2ffc44e2 <_tx_thread_initialize>:
2ffc44e2:	b580      	push	{r7, lr}
2ffc44e4:	af00      	add	r7, sp, #0
2ffc44e6:	f64a 7334 	movw	r3, #44852	@ 0xaf34
2ffc44ea:	f6c2 73fc 	movt	r3, #12284	@ 0x2ffc
2ffc44ee:	2200      	movs	r2, #0
2ffc44f0:	601a      	str	r2, [r3, #0]
2ffc44f2:	f64a 7338 	movw	r3, #44856	@ 0xaf38
2ffc44f6:	f6c2 73fc 	movt	r3, #12284	@ 0x2ffc
2ffc44fa:	2200      	movs	r2, #0
2ffc44fc:	601a      	str	r2, [r3, #0]
2ffc44fe:	2204      	movs	r2, #4
2ffc4500:	2100      	movs	r1, #0
2ffc4502:	f64a 7044 	movw	r0, #44868	@ 0xaf44
2ffc4506:	f6c2 70fc 	movt	r0, #12284	@ 0x2ffc
2ffc450a:	f004 f9dc 	bl	2ffc88c6 <memset>
2ffc450e:	2204      	movs	r2, #4
2ffc4510:	2100      	movs	r1, #0
2ffc4512:	f64a 7048 	movw	r0, #44872	@ 0xaf48
2ffc4516:	f6c2 70fc 	movt	r0, #12284	@ 0x2ffc
2ffc451a:	f004 f9d4 	bl	2ffc88c6 <memset>
2ffc451e:	f64a 734c 	movw	r3, #44876	@ 0xaf4c
2ffc4522:	f6c2 73fc 	movt	r3, #12284	@ 0x2ffc
2ffc4526:	2220      	movs	r2, #32
2ffc4528:	601a      	str	r2, [r3, #0]
2ffc452a:	2280      	movs	r2, #128	@ 0x80
2ffc452c:	2100      	movs	r1, #0
2ffc452e:	f64a 7050 	movw	r0, #44880	@ 0xaf50
2ffc4532:	f6c2 70fc 	movt	r0, #12284	@ 0x2ffc
2ffc4536:	f004 f9c6 	bl	2ffc88c6 <memset>
2ffc453a:	f64a 733c 	movw	r3, #44860	@ 0xaf3c
2ffc453e:	f6c2 73fc 	movt	r3, #12284	@ 0x2ffc
2ffc4542:	2200      	movs	r2, #0
2ffc4544:	601a      	str	r2, [r3, #0]
2ffc4546:	f64a 7340 	movw	r3, #44864	@ 0xaf40
2ffc454a:	f6c2 73fc 	movt	r3, #12284	@ 0x2ffc
2ffc454e:	2200      	movs	r2, #0
2ffc4550:	601a      	str	r2, [r3, #0]
2ffc4552:	f64a 73d0 	movw	r3, #45008	@ 0xafd0
2ffc4556:	f6c2 73fc 	movt	r3, #12284	@ 0x2ffc
2ffc455a:	2200      	movs	r2, #0
2ffc455c:	601a      	str	r2, [r3, #0]
2ffc455e:	f64a 73d4 	movw	r3, #45012	@ 0xafd4
2ffc4562:	f6c2 73fc 	movt	r3, #12284	@ 0x2ffc
2ffc4566:	2200      	movs	r2, #0
2ffc4568:	601a      	str	r2, [r3, #0]
2ffc456a:	f64a 73d8 	movw	r3, #45016	@ 0xafd8
2ffc456e:	f6c2 73fc 	movt	r3, #12284	@ 0x2ffc
2ffc4572:	681b      	ldr	r3, [r3, #0]
2ffc4574:	f043 7280 	orr.w	r2, r3, #16777216	@ 0x1000000
2ffc4578:	f64a 73d8 	movw	r3, #45016	@ 0xafd8
2ffc457c:	f6c2 73fc 	movt	r3, #12284	@ 0x2ffc
2ffc4580:	601a      	str	r2, [r3, #0]
2ffc4582:	bf00      	nop
2ffc4584:	bd80      	pop	{r7, pc}

2ffc4586 <_tx_thread_preemption_change>:
2ffc4586:	b580      	push	{r7, lr}
2ffc4588:	b088      	sub	sp, #32
2ffc458a:	af00      	add	r7, sp, #0
2ffc458c:	60f8      	str	r0, [r7, #12]
2ffc458e:	60b9      	str	r1, [r7, #8]
2ffc4590:	607a      	str	r2, [r7, #4]
2ffc4592:	2300      	movs	r3, #0
2ffc4594:	61bb      	str	r3, [r7, #24]
2ffc4596:	f001 ea2e 	blx	2ffc59f4 <_tx_thread_interrupt_disable>
2ffc459a:	61f8      	str	r0, [r7, #28]
2ffc459c:	68fb      	ldr	r3, [r7, #12]
2ffc459e:	f8d3 3098 	ldr.w	r3, [r3, #152]	@ 0x98
2ffc45a2:	68ba      	ldr	r2, [r7, #8]
2ffc45a4:	429a      	cmp	r2, r3
2ffc45a6:	d902      	bls.n	2ffc45ae <_tx_thread_preemption_change+0x28>
2ffc45a8:	2318      	movs	r3, #24
2ffc45aa:	61bb      	str	r3, [r7, #24]
2ffc45ac:	e084      	b.n	2ffc46b8 <_tx_thread_preemption_change+0x132>
2ffc45ae:	68fb      	ldr	r3, [r7, #12]
2ffc45b0:	f8d3 3098 	ldr.w	r3, [r3, #152]	@ 0x98
2ffc45b4:	68ba      	ldr	r2, [r7, #8]
2ffc45b6:	429a      	cmp	r2, r3
2ffc45b8:	d11d      	bne.n	2ffc45f6 <_tx_thread_preemption_change+0x70>
2ffc45ba:	68fb      	ldr	r3, [r7, #12]
2ffc45bc:	6ada      	ldr	r2, [r3, #44]	@ 0x2c
2ffc45be:	f64a 7350 	movw	r3, #44880	@ 0xaf50
2ffc45c2:	f6c2 73fc 	movt	r3, #12284	@ 0x2ffc
2ffc45c6:	f853 3022 	ldr.w	r3, [r3, r2, lsl #2]
2ffc45ca:	68fa      	ldr	r2, [r7, #12]
2ffc45cc:	429a      	cmp	r2, r3
2ffc45ce:	d112      	bne.n	2ffc45f6 <_tx_thread_preemption_change+0x70>
2ffc45d0:	68fb      	ldr	r3, [r7, #12]
2ffc45d2:	6adb      	ldr	r3, [r3, #44]	@ 0x2c
2ffc45d4:	2201      	movs	r2, #1
2ffc45d6:	fa02 f303 	lsl.w	r3, r2, r3
2ffc45da:	617b      	str	r3, [r7, #20]
2ffc45dc:	f64a 7348 	movw	r3, #44872	@ 0xaf48
2ffc45e0:	f6c2 73fc 	movt	r3, #12284	@ 0x2ffc
2ffc45e4:	681a      	ldr	r2, [r3, #0]
2ffc45e6:	697b      	ldr	r3, [r7, #20]
2ffc45e8:	43db      	mvns	r3, r3
2ffc45ea:	401a      	ands	r2, r3
2ffc45ec:	f64a 7348 	movw	r3, #44872	@ 0xaf48
2ffc45f0:	f6c2 73fc 	movt	r3, #12284	@ 0x2ffc
2ffc45f4:	601a      	str	r2, [r3, #0]
2ffc45f6:	68fb      	ldr	r3, [r7, #12]
2ffc45f8:	f8d3 209c 	ldr.w	r2, [r3, #156]	@ 0x9c
2ffc45fc:	687b      	ldr	r3, [r7, #4]
2ffc45fe:	601a      	str	r2, [r3, #0]
2ffc4600:	68fb      	ldr	r3, [r7, #12]
2ffc4602:	68ba      	ldr	r2, [r7, #8]
2ffc4604:	f8c3 209c 	str.w	r2, [r3, #156]	@ 0x9c
2ffc4608:	68fb      	ldr	r3, [r7, #12]
2ffc460a:	f8d3 30a0 	ldr.w	r3, [r3, #160]	@ 0xa0
2ffc460e:	68ba      	ldr	r2, [r7, #8]
2ffc4610:	429a      	cmp	r2, r3
2ffc4612:	d203      	bcs.n	2ffc461c <_tx_thread_preemption_change+0x96>
2ffc4614:	68fb      	ldr	r3, [r7, #12]
2ffc4616:	68ba      	ldr	r2, [r7, #8]
2ffc4618:	63da      	str	r2, [r3, #60]	@ 0x3c
2ffc461a:	e004      	b.n	2ffc4626 <_tx_thread_preemption_change+0xa0>
2ffc461c:	68fb      	ldr	r3, [r7, #12]
2ffc461e:	f8d3 20a0 	ldr.w	r2, [r3, #160]	@ 0xa0
2ffc4622:	68fb      	ldr	r3, [r7, #12]
2ffc4624:	63da      	str	r2, [r3, #60]	@ 0x3c
2ffc4626:	68fb      	ldr	r3, [r7, #12]
2ffc4628:	6ada      	ldr	r2, [r3, #44]	@ 0x2c
2ffc462a:	f64a 734c 	movw	r3, #44876	@ 0xaf4c
2ffc462e:	f6c2 73fc 	movt	r3, #12284	@ 0x2ffc
2ffc4632:	681b      	ldr	r3, [r3, #0]
2ffc4634:	429a      	cmp	r2, r3
2ffc4636:	d93f      	bls.n	2ffc46b8 <_tx_thread_preemption_change+0x132>
2ffc4638:	f64a 734c 	movw	r3, #44876	@ 0xaf4c
2ffc463c:	f6c2 73fc 	movt	r3, #12284	@ 0x2ffc
2ffc4640:	681b      	ldr	r3, [r3, #0]
2ffc4642:	68ba      	ldr	r2, [r7, #8]
2ffc4644:	429a      	cmp	r2, r3
2ffc4646:	d937      	bls.n	2ffc46b8 <_tx_thread_preemption_change+0x132>
2ffc4648:	f64a 7338 	movw	r3, #44856	@ 0xaf38
2ffc464c:	f6c2 73fc 	movt	r3, #12284	@ 0x2ffc
2ffc4650:	681b      	ldr	r3, [r3, #0]
2ffc4652:	68fa      	ldr	r2, [r7, #12]
2ffc4654:	429a      	cmp	r2, r3
2ffc4656:	d12f      	bne.n	2ffc46b8 <_tx_thread_preemption_change+0x132>
2ffc4658:	68fb      	ldr	r3, [r7, #12]
2ffc465a:	6bda      	ldr	r2, [r3, #60]	@ 0x3c
2ffc465c:	68fb      	ldr	r3, [r7, #12]
2ffc465e:	6adb      	ldr	r3, [r3, #44]	@ 0x2c
2ffc4660:	429a      	cmp	r2, r3
2ffc4662:	d011      	beq.n	2ffc4688 <_tx_thread_preemption_change+0x102>
2ffc4664:	68fb      	ldr	r3, [r7, #12]
2ffc4666:	6adb      	ldr	r3, [r3, #44]	@ 0x2c
2ffc4668:	2201      	movs	r2, #1
2ffc466a:	fa02 f303 	lsl.w	r3, r2, r3
2ffc466e:	617b      	str	r3, [r7, #20]
2ffc4670:	f64a 7348 	movw	r3, #44872	@ 0xaf48
2ffc4674:	f6c2 73fc 	movt	r3, #12284	@ 0x2ffc
2ffc4678:	681a      	ldr	r2, [r3, #0]
2ffc467a:	697b      	ldr	r3, [r7, #20]
2ffc467c:	431a      	orrs	r2, r3
2ffc467e:	f64a 7348 	movw	r3, #44872	@ 0xaf48
2ffc4682:	f6c2 73fc 	movt	r3, #12284	@ 0x2ffc
2ffc4686:	601a      	str	r2, [r3, #0]
2ffc4688:	f64a 734c 	movw	r3, #44876	@ 0xaf4c
2ffc468c:	f6c2 73fc 	movt	r3, #12284	@ 0x2ffc
2ffc4690:	681a      	ldr	r2, [r3, #0]
2ffc4692:	f64a 7350 	movw	r3, #44880	@ 0xaf50
2ffc4696:	f6c2 73fc 	movt	r3, #12284	@ 0x2ffc
2ffc469a:	f853 2022 	ldr.w	r2, [r3, r2, lsl #2]
2ffc469e:	f64a 7338 	movw	r3, #44856	@ 0xaf38
2ffc46a2:	f6c2 73fc 	movt	r3, #12284	@ 0x2ffc
2ffc46a6:	601a      	str	r2, [r3, #0]
2ffc46a8:	69f8      	ldr	r0, [r7, #28]
2ffc46aa:	f001 e9aa 	blx	2ffc5a00 <_tx_thread_interrupt_restore>
2ffc46ae:	f000 f98f 	bl	2ffc49d0 <_tx_thread_system_preempt_check>
2ffc46b2:	f001 e9a0 	blx	2ffc59f4 <_tx_thread_interrupt_disable>
2ffc46b6:	61f8      	str	r0, [r7, #28]
2ffc46b8:	69f8      	ldr	r0, [r7, #28]
2ffc46ba:	f001 e9a2 	blx	2ffc5a00 <_tx_thread_interrupt_restore>
2ffc46be:	69bb      	ldr	r3, [r7, #24]
2ffc46c0:	4618      	mov	r0, r3
2ffc46c2:	3720      	adds	r7, #32
2ffc46c4:	46bd      	mov	sp, r7
2ffc46c6:	bd80      	pop	{r7, pc}

2ffc46c8 <_tx_thread_priority_change>:
2ffc46c8:	b580      	push	{r7, lr}
2ffc46ca:	b088      	sub	sp, #32
2ffc46cc:	af00      	add	r7, sp, #0
2ffc46ce:	60f8      	str	r0, [r7, #12]
2ffc46d0:	60b9      	str	r1, [r7, #8]
2ffc46d2:	607a      	str	r2, [r7, #4]
2ffc46d4:	f001 e98e 	blx	2ffc59f4 <_tx_thread_interrupt_disable>
2ffc46d8:	61f8      	str	r0, [r7, #28]
2ffc46da:	68fb      	ldr	r3, [r7, #12]
2ffc46dc:	f8d3 2098 	ldr.w	r2, [r3, #152]	@ 0x98
2ffc46e0:	687b      	ldr	r3, [r7, #4]
2ffc46e2:	601a      	str	r2, [r3, #0]
2ffc46e4:	68fb      	ldr	r3, [r7, #12]
2ffc46e6:	6b1b      	ldr	r3, [r3, #48]	@ 0x30
2ffc46e8:	2b00      	cmp	r3, #0
2ffc46ea:	d022      	beq.n	2ffc4732 <_tx_thread_priority_change+0x6a>
2ffc46ec:	68fb      	ldr	r3, [r7, #12]
2ffc46ee:	68ba      	ldr	r2, [r7, #8]
2ffc46f0:	f8c3 2098 	str.w	r2, [r3, #152]	@ 0x98
2ffc46f4:	68fb      	ldr	r3, [r7, #12]
2ffc46f6:	68ba      	ldr	r2, [r7, #8]
2ffc46f8:	f8c3 209c 	str.w	r2, [r3, #156]	@ 0x9c
2ffc46fc:	68fb      	ldr	r3, [r7, #12]
2ffc46fe:	f8d3 30a0 	ldr.w	r3, [r3, #160]	@ 0xa0
2ffc4702:	68ba      	ldr	r2, [r7, #8]
2ffc4704:	429a      	cmp	r2, r3
2ffc4706:	d206      	bcs.n	2ffc4716 <_tx_thread_priority_change+0x4e>
2ffc4708:	68fb      	ldr	r3, [r7, #12]
2ffc470a:	68ba      	ldr	r2, [r7, #8]
2ffc470c:	62da      	str	r2, [r3, #44]	@ 0x2c
2ffc470e:	68fb      	ldr	r3, [r7, #12]
2ffc4710:	68ba      	ldr	r2, [r7, #8]
2ffc4712:	63da      	str	r2, [r3, #60]	@ 0x3c
2ffc4714:	e009      	b.n	2ffc472a <_tx_thread_priority_change+0x62>
2ffc4716:	68fb      	ldr	r3, [r7, #12]
2ffc4718:	f8d3 20a0 	ldr.w	r2, [r3, #160]	@ 0xa0
2ffc471c:	68fb      	ldr	r3, [r7, #12]
2ffc471e:	62da      	str	r2, [r3, #44]	@ 0x2c
2ffc4720:	68fb      	ldr	r3, [r7, #12]
2ffc4722:	f8d3 20a0 	ldr.w	r2, [r3, #160]	@ 0xa0
2ffc4726:	68fb      	ldr	r3, [r7, #12]
2ffc4728:	63da      	str	r2, [r3, #60]	@ 0x3c
2ffc472a:	69f8      	ldr	r0, [r7, #28]
2ffc472c:	f001 e968 	blx	2ffc5a00 <_tx_thread_interrupt_restore>
2ffc4730:	e082      	b.n	2ffc4838 <_tx_thread_priority_change+0x170>
2ffc4732:	68fb      	ldr	r3, [r7, #12]
2ffc4734:	220e      	movs	r2, #14
2ffc4736:	631a      	str	r2, [r3, #48]	@ 0x30
2ffc4738:	f64a 7338 	movw	r3, #44856	@ 0xaf38
2ffc473c:	f6c2 73fc 	movt	r3, #12284	@ 0x2ffc
2ffc4740:	681b      	ldr	r3, [r3, #0]
2ffc4742:	61bb      	str	r3, [r7, #24]
2ffc4744:	68fb      	ldr	r3, [r7, #12]
2ffc4746:	6adb      	ldr	r3, [r3, #44]	@ 0x2c
2ffc4748:	617b      	str	r3, [r7, #20]
2ffc474a:	f64a 73d0 	movw	r3, #45008	@ 0xafd0
2ffc474e:	f6c2 73fc 	movt	r3, #12284	@ 0x2ffc
2ffc4752:	681b      	ldr	r3, [r3, #0]
2ffc4754:	1cda      	adds	r2, r3, #3
2ffc4756:	f64a 73d0 	movw	r3, #45008	@ 0xafd0
2ffc475a:	f6c2 73fc 	movt	r3, #12284	@ 0x2ffc
2ffc475e:	601a      	str	r2, [r3, #0]
2ffc4760:	68fb      	ldr	r3, [r7, #12]
2ffc4762:	2201      	movs	r2, #1
2ffc4764:	639a      	str	r2, [r3, #56]	@ 0x38
2ffc4766:	68fb      	ldr	r3, [r7, #12]
2ffc4768:	2200      	movs	r2, #0
2ffc476a:	64da      	str	r2, [r3, #76]	@ 0x4c
2ffc476c:	69f8      	ldr	r0, [r7, #28]
2ffc476e:	f001 e948 	blx	2ffc5a00 <_tx_thread_interrupt_restore>
2ffc4772:	68f8      	ldr	r0, [r7, #12]
2ffc4774:	f000 fa65 	bl	2ffc4c42 <_tx_thread_system_suspend>
2ffc4778:	68fb      	ldr	r3, [r7, #12]
2ffc477a:	68ba      	ldr	r2, [r7, #8]
2ffc477c:	f8c3 2098 	str.w	r2, [r3, #152]	@ 0x98
2ffc4780:	68fb      	ldr	r3, [r7, #12]
2ffc4782:	68ba      	ldr	r2, [r7, #8]
2ffc4784:	f8c3 209c 	str.w	r2, [r3, #156]	@ 0x9c
2ffc4788:	68fb      	ldr	r3, [r7, #12]
2ffc478a:	f8d3 30a0 	ldr.w	r3, [r3, #160]	@ 0xa0
2ffc478e:	68ba      	ldr	r2, [r7, #8]
2ffc4790:	429a      	cmp	r2, r3
2ffc4792:	d206      	bcs.n	2ffc47a2 <_tx_thread_priority_change+0xda>
2ffc4794:	68fb      	ldr	r3, [r7, #12]
2ffc4796:	68ba      	ldr	r2, [r7, #8]
2ffc4798:	62da      	str	r2, [r3, #44]	@ 0x2c
2ffc479a:	68fb      	ldr	r3, [r7, #12]
2ffc479c:	68ba      	ldr	r2, [r7, #8]
2ffc479e:	63da      	str	r2, [r3, #60]	@ 0x3c
2ffc47a0:	e009      	b.n	2ffc47b6 <_tx_thread_priority_change+0xee>
2ffc47a2:	68fb      	ldr	r3, [r7, #12]
2ffc47a4:	f8d3 20a0 	ldr.w	r2, [r3, #160]	@ 0xa0
2ffc47a8:	68fb      	ldr	r3, [r7, #12]
2ffc47aa:	62da      	str	r2, [r3, #44]	@ 0x2c
2ffc47ac:	68fb      	ldr	r3, [r7, #12]
2ffc47ae:	f8d3 20a0 	ldr.w	r2, [r3, #160]	@ 0xa0
2ffc47b2:	68fb      	ldr	r3, [r7, #12]
2ffc47b4:	63da      	str	r2, [r3, #60]	@ 0x3c
2ffc47b6:	68f8      	ldr	r0, [r7, #12]
2ffc47b8:	f000 f934 	bl	2ffc4a24 <_tx_thread_system_resume>
2ffc47bc:	f001 e91a 	blx	2ffc59f4 <_tx_thread_interrupt_disable>
2ffc47c0:	61f8      	str	r0, [r7, #28]
2ffc47c2:	f64a 73d0 	movw	r3, #45008	@ 0xafd0
2ffc47c6:	f6c2 73fc 	movt	r3, #12284	@ 0x2ffc
2ffc47ca:	681b      	ldr	r3, [r3, #0]
2ffc47cc:	1e5a      	subs	r2, r3, #1
2ffc47ce:	f64a 73d0 	movw	r3, #45008	@ 0xafd0
2ffc47d2:	f6c2 73fc 	movt	r3, #12284	@ 0x2ffc
2ffc47d6:	601a      	str	r2, [r3, #0]
2ffc47d8:	f64a 7338 	movw	r3, #44856	@ 0xaf38
2ffc47dc:	f6c2 73fc 	movt	r3, #12284	@ 0x2ffc
2ffc47e0:	681b      	ldr	r3, [r3, #0]
2ffc47e2:	613b      	str	r3, [r7, #16]
2ffc47e4:	68fa      	ldr	r2, [r7, #12]
2ffc47e6:	693b      	ldr	r3, [r7, #16]
2ffc47e8:	429a      	cmp	r2, r3
2ffc47ea:	d020      	beq.n	2ffc482e <_tx_thread_priority_change+0x166>
2ffc47ec:	68fb      	ldr	r3, [r7, #12]
2ffc47ee:	6b1b      	ldr	r3, [r3, #48]	@ 0x30
2ffc47f0:	2b00      	cmp	r3, #0
2ffc47f2:	d11c      	bne.n	2ffc482e <_tx_thread_priority_change+0x166>
2ffc47f4:	68fb      	ldr	r3, [r7, #12]
2ffc47f6:	6ada      	ldr	r2, [r3, #44]	@ 0x2c
2ffc47f8:	693b      	ldr	r3, [r7, #16]
2ffc47fa:	6adb      	ldr	r3, [r3, #44]	@ 0x2c
2ffc47fc:	429a      	cmp	r2, r3
2ffc47fe:	d816      	bhi.n	2ffc482e <_tx_thread_priority_change+0x166>
2ffc4800:	68fa      	ldr	r2, [r7, #12]
2ffc4802:	69bb      	ldr	r3, [r7, #24]
2ffc4804:	429a      	cmp	r2, r3
2ffc4806:	d112      	bne.n	2ffc482e <_tx_thread_priority_change+0x166>
2ffc4808:	f64a 7338 	movw	r3, #44856	@ 0xaf38
2ffc480c:	f6c2 73fc 	movt	r3, #12284	@ 0x2ffc
2ffc4810:	68fa      	ldr	r2, [r7, #12]
2ffc4812:	601a      	str	r2, [r3, #0]
2ffc4814:	697a      	ldr	r2, [r7, #20]
2ffc4816:	68bb      	ldr	r3, [r7, #8]
2ffc4818:	429a      	cmp	r2, r3
2ffc481a:	d208      	bcs.n	2ffc482e <_tx_thread_priority_change+0x166>
2ffc481c:	68fb      	ldr	r3, [r7, #12]
2ffc481e:	6ada      	ldr	r2, [r3, #44]	@ 0x2c
2ffc4820:	f64a 7350 	movw	r3, #44880	@ 0xaf50
2ffc4824:	f6c2 73fc 	movt	r3, #12284	@ 0x2ffc
2ffc4828:	68f9      	ldr	r1, [r7, #12]
2ffc482a:	f843 1022 	str.w	r1, [r3, r2, lsl #2]
2ffc482e:	69f8      	ldr	r0, [r7, #28]
2ffc4830:	f001 e8e6 	blx	2ffc5a00 <_tx_thread_interrupt_restore>
2ffc4834:	f000 f8cc 	bl	2ffc49d0 <_tx_thread_system_preempt_check>
2ffc4838:	2300      	movs	r3, #0
2ffc483a:	4618      	mov	r0, r3
2ffc483c:	3720      	adds	r7, #32
2ffc483e:	46bd      	mov	sp, r7
2ffc4840:	bd80      	pop	{r7, pc}

2ffc4842 <_tx_thread_shell_entry>:
2ffc4842:	b580      	push	{r7, lr}
2ffc4844:	b084      	sub	sp, #16
2ffc4846:	af00      	add	r7, sp, #0
2ffc4848:	f64a 7334 	movw	r3, #44852	@ 0xaf34
2ffc484c:	f6c2 73fc 	movt	r3, #12284	@ 0x2ffc
2ffc4850:	681b      	ldr	r3, [r3, #0]
2ffc4852:	60fb      	str	r3, [r7, #12]
2ffc4854:	f001 e8ce 	blx	2ffc59f4 <_tx_thread_interrupt_disable>
2ffc4858:	60b8      	str	r0, [r7, #8]
2ffc485a:	68fb      	ldr	r3, [r7, #12]
2ffc485c:	f8d3 30b0 	ldr.w	r3, [r3, #176]	@ 0xb0
2ffc4860:	607b      	str	r3, [r7, #4]
2ffc4862:	68b8      	ldr	r0, [r7, #8]
2ffc4864:	f001 e8cc 	blx	2ffc5a00 <_tx_thread_interrupt_restore>
2ffc4868:	687b      	ldr	r3, [r7, #4]
2ffc486a:	2b00      	cmp	r3, #0
2ffc486c:	d003      	beq.n	2ffc4876 <_tx_thread_shell_entry+0x34>
2ffc486e:	687b      	ldr	r3, [r7, #4]
2ffc4870:	2100      	movs	r1, #0
2ffc4872:	68f8      	ldr	r0, [r7, #12]
2ffc4874:	4798      	blx	r3
2ffc4876:	68fb      	ldr	r3, [r7, #12]
2ffc4878:	6c5b      	ldr	r3, [r3, #68]	@ 0x44
2ffc487a:	68fa      	ldr	r2, [r7, #12]
2ffc487c:	6c92      	ldr	r2, [r2, #72]	@ 0x48
2ffc487e:	4610      	mov	r0, r2
2ffc4880:	4798      	blx	r3
2ffc4882:	f64a 73d4 	movw	r3, #45012	@ 0xafd4
2ffc4886:	f6c2 73fc 	movt	r3, #12284	@ 0x2ffc
2ffc488a:	681b      	ldr	r3, [r3, #0]
2ffc488c:	2b00      	cmp	r3, #0
2ffc488e:	d006      	beq.n	2ffc489e <_tx_thread_shell_entry+0x5c>
2ffc4890:	f64a 73d4 	movw	r3, #45012	@ 0xafd4
2ffc4894:	f6c2 73fc 	movt	r3, #12284	@ 0x2ffc
2ffc4898:	681b      	ldr	r3, [r3, #0]
2ffc489a:	68f8      	ldr	r0, [r7, #12]
2ffc489c:	4798      	blx	r3
2ffc489e:	f001 e8aa 	blx	2ffc59f4 <_tx_thread_interrupt_disable>
2ffc48a2:	60b8      	str	r0, [r7, #8]
2ffc48a4:	68fb      	ldr	r3, [r7, #12]
2ffc48a6:	f8d3 30b0 	ldr.w	r3, [r3, #176]	@ 0xb0
2ffc48aa:	607b      	str	r3, [r7, #4]
2ffc48ac:	68fb      	ldr	r3, [r7, #12]
2ffc48ae:	2201      	movs	r2, #1
2ffc48b0:	631a      	str	r2, [r3, #48]	@ 0x30
2ffc48b2:	68fb      	ldr	r3, [r7, #12]
2ffc48b4:	2201      	movs	r2, #1
2ffc48b6:	639a      	str	r2, [r3, #56]	@ 0x38
2ffc48b8:	68fb      	ldr	r3, [r7, #12]
2ffc48ba:	2200      	movs	r2, #0
2ffc48bc:	64da      	str	r2, [r3, #76]	@ 0x4c
2ffc48be:	f64a 73d0 	movw	r3, #45008	@ 0xafd0
2ffc48c2:	f6c2 73fc 	movt	r3, #12284	@ 0x2ffc
2ffc48c6:	681b      	ldr	r3, [r3, #0]
2ffc48c8:	1c5a      	adds	r2, r3, #1
2ffc48ca:	f64a 73d0 	movw	r3, #45008	@ 0xafd0
2ffc48ce:	f6c2 73fc 	movt	r3, #12284	@ 0x2ffc
2ffc48d2:	601a      	str	r2, [r3, #0]
2ffc48d4:	68b8      	ldr	r0, [r7, #8]
2ffc48d6:	f001 e894 	blx	2ffc5a00 <_tx_thread_interrupt_restore>
2ffc48da:	687b      	ldr	r3, [r7, #4]
2ffc48dc:	2b00      	cmp	r3, #0
2ffc48de:	d003      	beq.n	2ffc48e8 <_tx_thread_shell_entry+0xa6>
2ffc48e0:	687b      	ldr	r3, [r7, #4]
2ffc48e2:	2101      	movs	r1, #1
2ffc48e4:	68f8      	ldr	r0, [r7, #12]
2ffc48e6:	4798      	blx	r3
2ffc48e8:	68f8      	ldr	r0, [r7, #12]
2ffc48ea:	f000 f9aa 	bl	2ffc4c42 <_tx_thread_system_suspend>
2ffc48ee:	bf00      	nop
2ffc48f0:	3710      	adds	r7, #16
2ffc48f2:	46bd      	mov	sp, r7
2ffc48f4:	bd80      	pop	{r7, pc}

2ffc48f6 <_tx_thread_sleep>:
2ffc48f6:	b580      	push	{r7, lr}
2ffc48f8:	b086      	sub	sp, #24
2ffc48fa:	af00      	add	r7, sp, #0
2ffc48fc:	6078      	str	r0, [r7, #4]
2ffc48fe:	f001 e87a 	blx	2ffc59f4 <_tx_thread_interrupt_disable>
2ffc4902:	6138      	str	r0, [r7, #16]
2ffc4904:	f64a 7334 	movw	r3, #44852	@ 0xaf34
2ffc4908:	f6c2 73fc 	movt	r3, #12284	@ 0x2ffc
2ffc490c:	681b      	ldr	r3, [r3, #0]
2ffc490e:	60fb      	str	r3, [r7, #12]
2ffc4910:	68fb      	ldr	r3, [r7, #12]
2ffc4912:	2b00      	cmp	r3, #0
2ffc4914:	d105      	bne.n	2ffc4922 <_tx_thread_sleep+0x2c>
2ffc4916:	6938      	ldr	r0, [r7, #16]
2ffc4918:	f001 e872 	blx	2ffc5a00 <_tx_thread_interrupt_restore>
2ffc491c:	2313      	movs	r3, #19
2ffc491e:	617b      	str	r3, [r7, #20]
2ffc4920:	e051      	b.n	2ffc49c6 <_tx_thread_sleep+0xd0>
2ffc4922:	f24a 33fc 	movw	r3, #41980	@ 0xa3fc
2ffc4926:	f6c2 73fc 	movt	r3, #12284	@ 0x2ffc
2ffc492a:	681b      	ldr	r3, [r3, #0]
2ffc492c:	2b00      	cmp	r3, #0
2ffc492e:	d005      	beq.n	2ffc493c <_tx_thread_sleep+0x46>
2ffc4930:	6938      	ldr	r0, [r7, #16]
2ffc4932:	f001 e866 	blx	2ffc5a00 <_tx_thread_interrupt_restore>
2ffc4936:	2313      	movs	r3, #19
2ffc4938:	617b      	str	r3, [r7, #20]
2ffc493a:	e044      	b.n	2ffc49c6 <_tx_thread_sleep+0xd0>
2ffc493c:	68fa      	ldr	r2, [r7, #12]
2ffc493e:	f24b 0380 	movw	r3, #45184	@ 0xb080
2ffc4942:	f6c2 73fc 	movt	r3, #12284	@ 0x2ffc
2ffc4946:	429a      	cmp	r2, r3
2ffc4948:	d105      	bne.n	2ffc4956 <_tx_thread_sleep+0x60>
2ffc494a:	6938      	ldr	r0, [r7, #16]
2ffc494c:	f001 e858 	blx	2ffc5a00 <_tx_thread_interrupt_restore>
2ffc4950:	2313      	movs	r3, #19
2ffc4952:	617b      	str	r3, [r7, #20]
2ffc4954:	e037      	b.n	2ffc49c6 <_tx_thread_sleep+0xd0>
2ffc4956:	687b      	ldr	r3, [r7, #4]
2ffc4958:	2b00      	cmp	r3, #0
2ffc495a:	d105      	bne.n	2ffc4968 <_tx_thread_sleep+0x72>
2ffc495c:	6938      	ldr	r0, [r7, #16]
2ffc495e:	f001 e850 	blx	2ffc5a00 <_tx_thread_interrupt_restore>
2ffc4962:	2300      	movs	r3, #0
2ffc4964:	617b      	str	r3, [r7, #20]
2ffc4966:	e02e      	b.n	2ffc49c6 <_tx_thread_sleep+0xd0>
2ffc4968:	f64a 73d0 	movw	r3, #45008	@ 0xafd0
2ffc496c:	f6c2 73fc 	movt	r3, #12284	@ 0x2ffc
2ffc4970:	681b      	ldr	r3, [r3, #0]
2ffc4972:	2b00      	cmp	r3, #0
2ffc4974:	d005      	beq.n	2ffc4982 <_tx_thread_sleep+0x8c>
2ffc4976:	6938      	ldr	r0, [r7, #16]
2ffc4978:	f001 e842 	blx	2ffc5a00 <_tx_thread_interrupt_restore>
2ffc497c:	2313      	movs	r3, #19
2ffc497e:	617b      	str	r3, [r7, #20]
2ffc4980:	e021      	b.n	2ffc49c6 <_tx_thread_sleep+0xd0>
2ffc4982:	68fb      	ldr	r3, [r7, #12]
2ffc4984:	2204      	movs	r2, #4
2ffc4986:	631a      	str	r2, [r3, #48]	@ 0x30
2ffc4988:	68fb      	ldr	r3, [r7, #12]
2ffc498a:	2201      	movs	r2, #1
2ffc498c:	639a      	str	r2, [r3, #56]	@ 0x38
2ffc498e:	68fb      	ldr	r3, [r7, #12]
2ffc4990:	2200      	movs	r2, #0
2ffc4992:	f8c3 2084 	str.w	r2, [r3, #132]	@ 0x84
2ffc4996:	68fb      	ldr	r3, [r7, #12]
2ffc4998:	687a      	ldr	r2, [r7, #4]
2ffc499a:	64da      	str	r2, [r3, #76]	@ 0x4c
2ffc499c:	f64a 73d0 	movw	r3, #45008	@ 0xafd0
2ffc49a0:	f6c2 73fc 	movt	r3, #12284	@ 0x2ffc
2ffc49a4:	681b      	ldr	r3, [r3, #0]
2ffc49a6:	1c5a      	adds	r2, r3, #1
2ffc49a8:	f64a 73d0 	movw	r3, #45008	@ 0xafd0
2ffc49ac:	f6c2 73fc 	movt	r3, #12284	@ 0x2ffc
2ffc49b0:	601a      	str	r2, [r3, #0]
2ffc49b2:	6938      	ldr	r0, [r7, #16]
2ffc49b4:	f001 e824 	blx	2ffc5a00 <_tx_thread_interrupt_restore>
2ffc49b8:	68f8      	ldr	r0, [r7, #12]
2ffc49ba:	f000 f942 	bl	2ffc4c42 <_tx_thread_system_suspend>
2ffc49be:	68fb      	ldr	r3, [r7, #12]
2ffc49c0:	f8d3 3084 	ldr.w	r3, [r3, #132]	@ 0x84
2ffc49c4:	617b      	str	r3, [r7, #20]
2ffc49c6:	697b      	ldr	r3, [r7, #20]
2ffc49c8:	4618      	mov	r0, r3
2ffc49ca:	3718      	adds	r7, #24
2ffc49cc:	46bd      	mov	sp, r7
2ffc49ce:	bd80      	pop	{r7, pc}

2ffc49d0 <_tx_thread_system_preempt_check>:
2ffc49d0:	b580      	push	{r7, lr}
2ffc49d2:	b084      	sub	sp, #16
2ffc49d4:	af00      	add	r7, sp, #0
2ffc49d6:	f64a 73d0 	movw	r3, #45008	@ 0xafd0
2ffc49da:	f6c2 73fc 	movt	r3, #12284	@ 0x2ffc
2ffc49de:	681b      	ldr	r3, [r3, #0]
2ffc49e0:	60fb      	str	r3, [r7, #12]
2ffc49e2:	f24a 33fc 	movw	r3, #41980	@ 0xa3fc
2ffc49e6:	f6c2 73fc 	movt	r3, #12284	@ 0x2ffc
2ffc49ea:	681b      	ldr	r3, [r3, #0]
2ffc49ec:	68fa      	ldr	r2, [r7, #12]
2ffc49ee:	4313      	orrs	r3, r2
2ffc49f0:	60fb      	str	r3, [r7, #12]
2ffc49f2:	68fb      	ldr	r3, [r7, #12]
2ffc49f4:	2b00      	cmp	r3, #0
2ffc49f6:	d111      	bne.n	2ffc4a1c <_tx_thread_system_preempt_check+0x4c>
2ffc49f8:	f64a 7334 	movw	r3, #44852	@ 0xaf34
2ffc49fc:	f6c2 73fc 	movt	r3, #12284	@ 0x2ffc
2ffc4a00:	681b      	ldr	r3, [r3, #0]
2ffc4a02:	60bb      	str	r3, [r7, #8]
2ffc4a04:	f64a 7338 	movw	r3, #44856	@ 0xaf38
2ffc4a08:	f6c2 73fc 	movt	r3, #12284	@ 0x2ffc
2ffc4a0c:	681b      	ldr	r3, [r3, #0]
2ffc4a0e:	607b      	str	r3, [r7, #4]
2ffc4a10:	68ba      	ldr	r2, [r7, #8]
2ffc4a12:	687b      	ldr	r3, [r7, #4]
2ffc4a14:	429a      	cmp	r2, r3
2ffc4a16:	d001      	beq.n	2ffc4a1c <_tx_thread_system_preempt_check+0x4c>
2ffc4a18:	f001 e870 	blx	2ffc5afc <_tx_thread_system_return>
2ffc4a1c:	bf00      	nop
2ffc4a1e:	3710      	adds	r7, #16
2ffc4a20:	46bd      	mov	sp, r7
2ffc4a22:	bd80      	pop	{r7, pc}

2ffc4a24 <_tx_thread_system_resume>:
2ffc4a24:	b580      	push	{r7, lr}
2ffc4a26:	b08a      	sub	sp, #40	@ 0x28
2ffc4a28:	af00      	add	r7, sp, #0
2ffc4a2a:	6078      	str	r0, [r7, #4]
2ffc4a2c:	f000 efe2 	blx	2ffc59f4 <_tx_thread_interrupt_disable>
2ffc4a30:	6278      	str	r0, [r7, #36]	@ 0x24
2ffc4a32:	687b      	ldr	r3, [r7, #4]
2ffc4a34:	6e5b      	ldr	r3, [r3, #100]	@ 0x64
2ffc4a36:	2b00      	cmp	r3, #0
2ffc4a38:	d005      	beq.n	2ffc4a46 <_tx_thread_system_resume+0x22>
2ffc4a3a:	687b      	ldr	r3, [r7, #4]
2ffc4a3c:	334c      	adds	r3, #76	@ 0x4c
2ffc4a3e:	4618      	mov	r0, r3
2ffc4a40:	f000 fdf9 	bl	2ffc5636 <_tx_timer_system_deactivate>
2ffc4a44:	e002      	b.n	2ffc4a4c <_tx_thread_system_resume+0x28>
2ffc4a46:	687b      	ldr	r3, [r7, #4]
2ffc4a48:	2200      	movs	r2, #0
2ffc4a4a:	64da      	str	r2, [r3, #76]	@ 0x4c
2ffc4a4c:	f64a 73d0 	movw	r3, #45008	@ 0xafd0
2ffc4a50:	f6c2 73fc 	movt	r3, #12284	@ 0x2ffc
2ffc4a54:	681b      	ldr	r3, [r3, #0]
2ffc4a56:	1e5a      	subs	r2, r3, #1
2ffc4a58:	f64a 73d0 	movw	r3, #45008	@ 0xafd0
2ffc4a5c:	f6c2 73fc 	movt	r3, #12284	@ 0x2ffc
2ffc4a60:	601a      	str	r2, [r3, #0]
2ffc4a62:	687b      	ldr	r3, [r7, #4]
2ffc4a64:	6b9b      	ldr	r3, [r3, #56]	@ 0x38
2ffc4a66:	2b00      	cmp	r3, #0
2ffc4a68:	f040 80a9 	bne.w	2ffc4bbe <_tx_thread_system_resume+0x19a>
2ffc4a6c:	687b      	ldr	r3, [r7, #4]
2ffc4a6e:	6b1b      	ldr	r3, [r3, #48]	@ 0x30
2ffc4a70:	2b00      	cmp	r3, #0
2ffc4a72:	f000 80bd 	beq.w	2ffc4bf0 <_tx_thread_system_resume+0x1cc>
2ffc4a76:	687b      	ldr	r3, [r7, #4]
2ffc4a78:	6b5b      	ldr	r3, [r3, #52]	@ 0x34
2ffc4a7a:	2b00      	cmp	r3, #0
2ffc4a7c:	f040 8098 	bne.w	2ffc4bb0 <_tx_thread_system_resume+0x18c>
2ffc4a80:	687b      	ldr	r3, [r7, #4]
2ffc4a82:	2200      	movs	r2, #0
2ffc4a84:	631a      	str	r2, [r3, #48]	@ 0x30
2ffc4a86:	687b      	ldr	r3, [r7, #4]
2ffc4a88:	6adb      	ldr	r3, [r3, #44]	@ 0x2c
2ffc4a8a:	623b      	str	r3, [r7, #32]
2ffc4a8c:	f64a 7350 	movw	r3, #44880	@ 0xaf50
2ffc4a90:	f6c2 73fc 	movt	r3, #12284	@ 0x2ffc
2ffc4a94:	6a3a      	ldr	r2, [r7, #32]
2ffc4a96:	f853 3022 	ldr.w	r3, [r3, r2, lsl #2]
2ffc4a9a:	61fb      	str	r3, [r7, #28]
2ffc4a9c:	69fb      	ldr	r3, [r7, #28]
2ffc4a9e:	2b00      	cmp	r3, #0
2ffc4aa0:	d176      	bne.n	2ffc4b90 <_tx_thread_system_resume+0x16c>
2ffc4aa2:	f64a 7350 	movw	r3, #44880	@ 0xaf50
2ffc4aa6:	f6c2 73fc 	movt	r3, #12284	@ 0x2ffc
2ffc4aaa:	6a3a      	ldr	r2, [r7, #32]
2ffc4aac:	6879      	ldr	r1, [r7, #4]
2ffc4aae:	f843 1022 	str.w	r1, [r3, r2, lsl #2]
2ffc4ab2:	687b      	ldr	r3, [r7, #4]
2ffc4ab4:	687a      	ldr	r2, [r7, #4]
2ffc4ab6:	621a      	str	r2, [r3, #32]
2ffc4ab8:	687b      	ldr	r3, [r7, #4]
2ffc4aba:	687a      	ldr	r2, [r7, #4]
2ffc4abc:	625a      	str	r2, [r3, #36]	@ 0x24
2ffc4abe:	2201      	movs	r2, #1
2ffc4ac0:	6a3b      	ldr	r3, [r7, #32]
2ffc4ac2:	fa02 f303 	lsl.w	r3, r2, r3
2ffc4ac6:	617b      	str	r3, [r7, #20]
2ffc4ac8:	f64a 7344 	movw	r3, #44868	@ 0xaf44
2ffc4acc:	f6c2 73fc 	movt	r3, #12284	@ 0x2ffc
2ffc4ad0:	681a      	ldr	r2, [r3, #0]
2ffc4ad2:	697b      	ldr	r3, [r7, #20]
2ffc4ad4:	431a      	orrs	r2, r3
2ffc4ad6:	f64a 7344 	movw	r3, #44868	@ 0xaf44
2ffc4ada:	f6c2 73fc 	movt	r3, #12284	@ 0x2ffc
2ffc4ade:	601a      	str	r2, [r3, #0]
2ffc4ae0:	f64a 734c 	movw	r3, #44876	@ 0xaf4c
2ffc4ae4:	f6c2 73fc 	movt	r3, #12284	@ 0x2ffc
2ffc4ae8:	681b      	ldr	r3, [r3, #0]
2ffc4aea:	6a3a      	ldr	r2, [r7, #32]
2ffc4aec:	429a      	cmp	r2, r3
2ffc4aee:	d27f      	bcs.n	2ffc4bf0 <_tx_thread_system_resume+0x1cc>
2ffc4af0:	f64a 734c 	movw	r3, #44876	@ 0xaf4c
2ffc4af4:	f6c2 73fc 	movt	r3, #12284	@ 0x2ffc
2ffc4af8:	6a3a      	ldr	r2, [r7, #32]
2ffc4afa:	601a      	str	r2, [r3, #0]
2ffc4afc:	f64a 7338 	movw	r3, #44856	@ 0xaf38
2ffc4b00:	f6c2 73fc 	movt	r3, #12284	@ 0x2ffc
2ffc4b04:	681b      	ldr	r3, [r3, #0]
2ffc4b06:	613b      	str	r3, [r7, #16]
2ffc4b08:	693b      	ldr	r3, [r7, #16]
2ffc4b0a:	2b00      	cmp	r3, #0
2ffc4b0c:	d106      	bne.n	2ffc4b1c <_tx_thread_system_resume+0xf8>
2ffc4b0e:	f64a 7338 	movw	r3, #44856	@ 0xaf38
2ffc4b12:	f6c2 73fc 	movt	r3, #12284	@ 0x2ffc
2ffc4b16:	687a      	ldr	r2, [r7, #4]
2ffc4b18:	601a      	str	r2, [r3, #0]
2ffc4b1a:	e069      	b.n	2ffc4bf0 <_tx_thread_system_resume+0x1cc>
2ffc4b1c:	693b      	ldr	r3, [r7, #16]
2ffc4b1e:	6bdb      	ldr	r3, [r3, #60]	@ 0x3c
2ffc4b20:	6a3a      	ldr	r2, [r7, #32]
2ffc4b22:	429a      	cmp	r2, r3
2ffc4b24:	d264      	bcs.n	2ffc4bf0 <_tx_thread_system_resume+0x1cc>
2ffc4b26:	693b      	ldr	r3, [r7, #16]
2ffc4b28:	6bda      	ldr	r2, [r3, #60]	@ 0x3c
2ffc4b2a:	693b      	ldr	r3, [r7, #16]
2ffc4b2c:	6adb      	ldr	r3, [r3, #44]	@ 0x2c
2ffc4b2e:	429a      	cmp	r2, r3
2ffc4b30:	d011      	beq.n	2ffc4b56 <_tx_thread_system_resume+0x132>
2ffc4b32:	693b      	ldr	r3, [r7, #16]
2ffc4b34:	6adb      	ldr	r3, [r3, #44]	@ 0x2c
2ffc4b36:	2201      	movs	r2, #1
2ffc4b38:	fa02 f303 	lsl.w	r3, r2, r3
2ffc4b3c:	617b      	str	r3, [r7, #20]
2ffc4b3e:	f64a 7348 	movw	r3, #44872	@ 0xaf48
2ffc4b42:	f6c2 73fc 	movt	r3, #12284	@ 0x2ffc
2ffc4b46:	681a      	ldr	r2, [r3, #0]
2ffc4b48:	697b      	ldr	r3, [r7, #20]
2ffc4b4a:	431a      	orrs	r2, r3
2ffc4b4c:	f64a 7348 	movw	r3, #44872	@ 0xaf48
2ffc4b50:	f6c2 73fc 	movt	r3, #12284	@ 0x2ffc
2ffc4b54:	601a      	str	r2, [r3, #0]
2ffc4b56:	f64a 7338 	movw	r3, #44856	@ 0xaf38
2ffc4b5a:	f6c2 73fc 	movt	r3, #12284	@ 0x2ffc
2ffc4b5e:	687a      	ldr	r2, [r7, #4]
2ffc4b60:	601a      	str	r2, [r3, #0]
2ffc4b62:	6a78      	ldr	r0, [r7, #36]	@ 0x24
2ffc4b64:	f000 ef4c 	blx	2ffc5a00 <_tx_thread_interrupt_restore>
2ffc4b68:	f64a 73d0 	movw	r3, #45008	@ 0xafd0
2ffc4b6c:	f6c2 73fc 	movt	r3, #12284	@ 0x2ffc
2ffc4b70:	681b      	ldr	r3, [r3, #0]
2ffc4b72:	60fb      	str	r3, [r7, #12]
2ffc4b74:	f24a 33fc 	movw	r3, #41980	@ 0xa3fc
2ffc4b78:	f6c2 73fc 	movt	r3, #12284	@ 0x2ffc
2ffc4b7c:	681b      	ldr	r3, [r3, #0]
2ffc4b7e:	68fa      	ldr	r2, [r7, #12]
2ffc4b80:	4313      	orrs	r3, r2
2ffc4b82:	60fb      	str	r3, [r7, #12]
2ffc4b84:	68fb      	ldr	r3, [r7, #12]
2ffc4b86:	2b00      	cmp	r3, #0
2ffc4b88:	d157      	bne.n	2ffc4c3a <_tx_thread_system_resume+0x216>
2ffc4b8a:	f000 efb8 	blx	2ffc5afc <_tx_thread_system_return>
2ffc4b8e:	e054      	b.n	2ffc4c3a <_tx_thread_system_resume+0x216>
2ffc4b90:	69fb      	ldr	r3, [r7, #28]
2ffc4b92:	6a5b      	ldr	r3, [r3, #36]	@ 0x24
2ffc4b94:	61bb      	str	r3, [r7, #24]
2ffc4b96:	69bb      	ldr	r3, [r7, #24]
2ffc4b98:	687a      	ldr	r2, [r7, #4]
2ffc4b9a:	621a      	str	r2, [r3, #32]
2ffc4b9c:	69fb      	ldr	r3, [r7, #28]
2ffc4b9e:	687a      	ldr	r2, [r7, #4]
2ffc4ba0:	625a      	str	r2, [r3, #36]	@ 0x24
2ffc4ba2:	687b      	ldr	r3, [r7, #4]
2ffc4ba4:	69ba      	ldr	r2, [r7, #24]
2ffc4ba6:	625a      	str	r2, [r3, #36]	@ 0x24
2ffc4ba8:	687b      	ldr	r3, [r7, #4]
2ffc4baa:	69fa      	ldr	r2, [r7, #28]
2ffc4bac:	621a      	str	r2, [r3, #32]
2ffc4bae:	e01f      	b.n	2ffc4bf0 <_tx_thread_system_resume+0x1cc>
2ffc4bb0:	687b      	ldr	r3, [r7, #4]
2ffc4bb2:	2200      	movs	r2, #0
2ffc4bb4:	635a      	str	r2, [r3, #52]	@ 0x34
2ffc4bb6:	687b      	ldr	r3, [r7, #4]
2ffc4bb8:	2203      	movs	r2, #3
2ffc4bba:	631a      	str	r2, [r3, #48]	@ 0x30
2ffc4bbc:	e018      	b.n	2ffc4bf0 <_tx_thread_system_resume+0x1cc>
2ffc4bbe:	687b      	ldr	r3, [r7, #4]
2ffc4bc0:	6b1b      	ldr	r3, [r3, #48]	@ 0x30
2ffc4bc2:	2b01      	cmp	r3, #1
2ffc4bc4:	d014      	beq.n	2ffc4bf0 <_tx_thread_system_resume+0x1cc>
2ffc4bc6:	687b      	ldr	r3, [r7, #4]
2ffc4bc8:	6b1b      	ldr	r3, [r3, #48]	@ 0x30
2ffc4bca:	2b02      	cmp	r3, #2
2ffc4bcc:	d010      	beq.n	2ffc4bf0 <_tx_thread_system_resume+0x1cc>
2ffc4bce:	687b      	ldr	r3, [r7, #4]
2ffc4bd0:	6b5b      	ldr	r3, [r3, #52]	@ 0x34
2ffc4bd2:	2b00      	cmp	r3, #0
2ffc4bd4:	d106      	bne.n	2ffc4be4 <_tx_thread_system_resume+0x1c0>
2ffc4bd6:	687b      	ldr	r3, [r7, #4]
2ffc4bd8:	2200      	movs	r2, #0
2ffc4bda:	639a      	str	r2, [r3, #56]	@ 0x38
2ffc4bdc:	687b      	ldr	r3, [r7, #4]
2ffc4bde:	2200      	movs	r2, #0
2ffc4be0:	631a      	str	r2, [r3, #48]	@ 0x30
2ffc4be2:	e005      	b.n	2ffc4bf0 <_tx_thread_system_resume+0x1cc>
2ffc4be4:	687b      	ldr	r3, [r7, #4]
2ffc4be6:	2200      	movs	r2, #0
2ffc4be8:	635a      	str	r2, [r3, #52]	@ 0x34
2ffc4bea:	687b      	ldr	r3, [r7, #4]
2ffc4bec:	2203      	movs	r2, #3
2ffc4bee:	631a      	str	r2, [r3, #48]	@ 0x30
2ffc4bf0:	f64a 7334 	movw	r3, #44852	@ 0xaf34
2ffc4bf4:	f6c2 73fc 	movt	r3, #12284	@ 0x2ffc
2ffc4bf8:	681b      	ldr	r3, [r3, #0]
2ffc4bfa:	60bb      	str	r3, [r7, #8]
2ffc4bfc:	6a78      	ldr	r0, [r7, #36]	@ 0x24
2ffc4bfe:	f000 ef00 	blx	2ffc5a00 <_tx_thread_interrupt_restore>
2ffc4c02:	f64a 7338 	movw	r3, #44856	@ 0xaf38
2ffc4c06:	f6c2 73fc 	movt	r3, #12284	@ 0x2ffc
2ffc4c0a:	681b      	ldr	r3, [r3, #0]
2ffc4c0c:	68ba      	ldr	r2, [r7, #8]
2ffc4c0e:	429a      	cmp	r2, r3
2ffc4c10:	d014      	beq.n	2ffc4c3c <_tx_thread_system_resume+0x218>
2ffc4c12:	f64a 73d0 	movw	r3, #45008	@ 0xafd0
2ffc4c16:	f6c2 73fc 	movt	r3, #12284	@ 0x2ffc
2ffc4c1a:	681b      	ldr	r3, [r3, #0]
2ffc4c1c:	60fb      	str	r3, [r7, #12]
2ffc4c1e:	f24a 33fc 	movw	r3, #41980	@ 0xa3fc
2ffc4c22:	f6c2 73fc 	movt	r3, #12284	@ 0x2ffc
2ffc4c26:	681b      	ldr	r3, [r3, #0]
2ffc4c28:	68fa      	ldr	r2, [r7, #12]
2ffc4c2a:	4313      	orrs	r3, r2
2ffc4c2c:	60fb      	str	r3, [r7, #12]
2ffc4c2e:	68fb      	ldr	r3, [r7, #12]
2ffc4c30:	2b00      	cmp	r3, #0
2ffc4c32:	d103      	bne.n	2ffc4c3c <_tx_thread_system_resume+0x218>
2ffc4c34:	f000 ef62 	blx	2ffc5afc <_tx_thread_system_return>
2ffc4c38:	e000      	b.n	2ffc4c3c <_tx_thread_system_resume+0x218>
2ffc4c3a:	bf00      	nop
2ffc4c3c:	3728      	adds	r7, #40	@ 0x28
2ffc4c3e:	46bd      	mov	sp, r7
2ffc4c40:	bd80      	pop	{r7, pc}

2ffc4c42 <_tx_thread_system_suspend>:
2ffc4c42:	b580      	push	{r7, lr}
2ffc4c44:	b08c      	sub	sp, #48	@ 0x30
2ffc4c46:	af00      	add	r7, sp, #0
2ffc4c48:	6078      	str	r0, [r7, #4]
2ffc4c4a:	f64a 7334 	movw	r3, #44852	@ 0xaf34
2ffc4c4e:	f6c2 73fc 	movt	r3, #12284	@ 0x2ffc
2ffc4c52:	681b      	ldr	r3, [r3, #0]
2ffc4c54:	623b      	str	r3, [r7, #32]
2ffc4c56:	f000 eece 	blx	2ffc59f4 <_tx_thread_interrupt_disable>
2ffc4c5a:	62f8      	str	r0, [r7, #44]	@ 0x2c
2ffc4c5c:	687a      	ldr	r2, [r7, #4]
2ffc4c5e:	6a3b      	ldr	r3, [r7, #32]
2ffc4c60:	429a      	cmp	r2, r3
2ffc4c62:	d115      	bne.n	2ffc4c90 <_tx_thread_system_suspend+0x4e>
2ffc4c64:	687b      	ldr	r3, [r7, #4]
2ffc4c66:	6cdb      	ldr	r3, [r3, #76]	@ 0x4c
2ffc4c68:	61fb      	str	r3, [r7, #28]
2ffc4c6a:	69fb      	ldr	r3, [r7, #28]
2ffc4c6c:	2b00      	cmp	r3, #0
2ffc4c6e:	d008      	beq.n	2ffc4c82 <_tx_thread_system_suspend+0x40>
2ffc4c70:	69fb      	ldr	r3, [r7, #28]
2ffc4c72:	f1b3 3fff 	cmp.w	r3, #4294967295	@ 0xffffffff
2ffc4c76:	d004      	beq.n	2ffc4c82 <_tx_thread_system_suspend+0x40>
2ffc4c78:	687b      	ldr	r3, [r7, #4]
2ffc4c7a:	334c      	adds	r3, #76	@ 0x4c
2ffc4c7c:	4618      	mov	r0, r3
2ffc4c7e:	f000 fc73 	bl	2ffc5568 <_tx_timer_system_activate>
2ffc4c82:	687b      	ldr	r3, [r7, #4]
2ffc4c84:	69da      	ldr	r2, [r3, #28]
2ffc4c86:	f24b 5344 	movw	r3, #46404	@ 0xb544
2ffc4c8a:	f6c2 73fc 	movt	r3, #12284	@ 0x2ffc
2ffc4c8e:	601a      	str	r2, [r3, #0]
2ffc4c90:	f64a 73d0 	movw	r3, #45008	@ 0xafd0
2ffc4c94:	f6c2 73fc 	movt	r3, #12284	@ 0x2ffc
2ffc4c98:	681b      	ldr	r3, [r3, #0]
2ffc4c9a:	1e5a      	subs	r2, r3, #1
2ffc4c9c:	f64a 73d0 	movw	r3, #45008	@ 0xafd0
2ffc4ca0:	f6c2 73fc 	movt	r3, #12284	@ 0x2ffc
2ffc4ca4:	601a      	str	r2, [r3, #0]
2ffc4ca6:	687b      	ldr	r3, [r7, #4]
2ffc4ca8:	6b9b      	ldr	r3, [r3, #56]	@ 0x38
2ffc4caa:	2b01      	cmp	r3, #1
2ffc4cac:	f040 822d 	bne.w	2ffc510a <_tx_thread_system_suspend+0x4c8>
2ffc4cb0:	687b      	ldr	r3, [r7, #4]
2ffc4cb2:	2200      	movs	r2, #0
2ffc4cb4:	639a      	str	r2, [r3, #56]	@ 0x38
2ffc4cb6:	687b      	ldr	r3, [r7, #4]
2ffc4cb8:	6adb      	ldr	r3, [r3, #44]	@ 0x2c
2ffc4cba:	61bb      	str	r3, [r7, #24]
2ffc4cbc:	687b      	ldr	r3, [r7, #4]
2ffc4cbe:	6a1b      	ldr	r3, [r3, #32]
2ffc4cc0:	617b      	str	r3, [r7, #20]
2ffc4cc2:	697a      	ldr	r2, [r7, #20]
2ffc4cc4:	687b      	ldr	r3, [r7, #4]
2ffc4cc6:	429a      	cmp	r2, r3
2ffc4cc8:	d036      	beq.n	2ffc4d38 <_tx_thread_system_suspend+0xf6>
2ffc4cca:	687b      	ldr	r3, [r7, #4]
2ffc4ccc:	6a5b      	ldr	r3, [r3, #36]	@ 0x24
2ffc4cce:	60bb      	str	r3, [r7, #8]
2ffc4cd0:	697b      	ldr	r3, [r7, #20]
2ffc4cd2:	68ba      	ldr	r2, [r7, #8]
2ffc4cd4:	625a      	str	r2, [r3, #36]	@ 0x24
2ffc4cd6:	68bb      	ldr	r3, [r7, #8]
2ffc4cd8:	697a      	ldr	r2, [r7, #20]
2ffc4cda:	621a      	str	r2, [r3, #32]
2ffc4cdc:	f64a 7350 	movw	r3, #44880	@ 0xaf50
2ffc4ce0:	f6c2 73fc 	movt	r3, #12284	@ 0x2ffc
2ffc4ce4:	69ba      	ldr	r2, [r7, #24]
2ffc4ce6:	f853 3022 	ldr.w	r3, [r3, r2, lsl #2]
2ffc4cea:	687a      	ldr	r2, [r7, #4]
2ffc4cec:	429a      	cmp	r2, r3
2ffc4cee:	f040 8106 	bne.w	2ffc4efe <_tx_thread_system_suspend+0x2bc>
2ffc4cf2:	f64a 7350 	movw	r3, #44880	@ 0xaf50
2ffc4cf6:	f6c2 73fc 	movt	r3, #12284	@ 0x2ffc
2ffc4cfa:	69ba      	ldr	r2, [r7, #24]
2ffc4cfc:	6979      	ldr	r1, [r7, #20]
2ffc4cfe:	f843 1022 	str.w	r1, [r3, r2, lsl #2]
2ffc4d02:	f64a 7348 	movw	r3, #44872	@ 0xaf48
2ffc4d06:	f6c2 73fc 	movt	r3, #12284	@ 0x2ffc
2ffc4d0a:	681b      	ldr	r3, [r3, #0]
2ffc4d0c:	2b00      	cmp	r3, #0
2ffc4d0e:	f000 80f6 	beq.w	2ffc4efe <_tx_thread_system_suspend+0x2bc>
2ffc4d12:	2201      	movs	r2, #1
2ffc4d14:	69bb      	ldr	r3, [r7, #24]
2ffc4d16:	fa02 f303 	lsl.w	r3, r2, r3
2ffc4d1a:	627b      	str	r3, [r7, #36]	@ 0x24
2ffc4d1c:	f64a 7348 	movw	r3, #44872	@ 0xaf48
2ffc4d20:	f6c2 73fc 	movt	r3, #12284	@ 0x2ffc
2ffc4d24:	681a      	ldr	r2, [r3, #0]
2ffc4d26:	6a7b      	ldr	r3, [r7, #36]	@ 0x24
2ffc4d28:	43db      	mvns	r3, r3
2ffc4d2a:	401a      	ands	r2, r3
2ffc4d2c:	f64a 7348 	movw	r3, #44872	@ 0xaf48
2ffc4d30:	f6c2 73fc 	movt	r3, #12284	@ 0x2ffc
2ffc4d34:	601a      	str	r2, [r3, #0]
2ffc4d36:	e0e2      	b.n	2ffc4efe <_tx_thread_system_suspend+0x2bc>
2ffc4d38:	f64a 7350 	movw	r3, #44880	@ 0xaf50
2ffc4d3c:	f6c2 73fc 	movt	r3, #12284	@ 0x2ffc
2ffc4d40:	69ba      	ldr	r2, [r7, #24]
2ffc4d42:	2100      	movs	r1, #0
2ffc4d44:	f843 1022 	str.w	r1, [r3, r2, lsl #2]
2ffc4d48:	2201      	movs	r2, #1
2ffc4d4a:	69bb      	ldr	r3, [r7, #24]
2ffc4d4c:	fa02 f303 	lsl.w	r3, r2, r3
2ffc4d50:	627b      	str	r3, [r7, #36]	@ 0x24
2ffc4d52:	f64a 7344 	movw	r3, #44868	@ 0xaf44
2ffc4d56:	f6c2 73fc 	movt	r3, #12284	@ 0x2ffc
2ffc4d5a:	681a      	ldr	r2, [r3, #0]
2ffc4d5c:	6a7b      	ldr	r3, [r7, #36]	@ 0x24
2ffc4d5e:	43db      	mvns	r3, r3
2ffc4d60:	401a      	ands	r2, r3
2ffc4d62:	f64a 7344 	movw	r3, #44868	@ 0xaf44
2ffc4d66:	f6c2 73fc 	movt	r3, #12284	@ 0x2ffc
2ffc4d6a:	601a      	str	r2, [r3, #0]
2ffc4d6c:	f64a 7348 	movw	r3, #44872	@ 0xaf48
2ffc4d70:	f6c2 73fc 	movt	r3, #12284	@ 0x2ffc
2ffc4d74:	681b      	ldr	r3, [r3, #0]
2ffc4d76:	2b00      	cmp	r3, #0
2ffc4d78:	d011      	beq.n	2ffc4d9e <_tx_thread_system_suspend+0x15c>
2ffc4d7a:	2201      	movs	r2, #1
2ffc4d7c:	69bb      	ldr	r3, [r7, #24]
2ffc4d7e:	fa02 f303 	lsl.w	r3, r2, r3
2ffc4d82:	627b      	str	r3, [r7, #36]	@ 0x24
2ffc4d84:	f64a 7348 	movw	r3, #44872	@ 0xaf48
2ffc4d88:	f6c2 73fc 	movt	r3, #12284	@ 0x2ffc
2ffc4d8c:	681a      	ldr	r2, [r3, #0]
2ffc4d8e:	6a7b      	ldr	r3, [r7, #36]	@ 0x24
2ffc4d90:	43db      	mvns	r3, r3
2ffc4d92:	401a      	ands	r2, r3
2ffc4d94:	f64a 7348 	movw	r3, #44872	@ 0xaf48
2ffc4d98:	f6c2 73fc 	movt	r3, #12284	@ 0x2ffc
2ffc4d9c:	601a      	str	r2, [r3, #0]
2ffc4d9e:	2300      	movs	r3, #0
2ffc4da0:	613b      	str	r3, [r7, #16]
2ffc4da2:	f64a 7344 	movw	r3, #44868	@ 0xaf44
2ffc4da6:	f6c2 73fc 	movt	r3, #12284	@ 0x2ffc
2ffc4daa:	681b      	ldr	r3, [r3, #0]
2ffc4dac:	62bb      	str	r3, [r7, #40]	@ 0x28
2ffc4dae:	6abb      	ldr	r3, [r7, #40]	@ 0x28
2ffc4db0:	2b00      	cmp	r3, #0
2ffc4db2:	d123      	bne.n	2ffc4dfc <_tx_thread_system_suspend+0x1ba>
2ffc4db4:	f64a 734c 	movw	r3, #44876	@ 0xaf4c
2ffc4db8:	f6c2 73fc 	movt	r3, #12284	@ 0x2ffc
2ffc4dbc:	2220      	movs	r2, #32
2ffc4dbe:	601a      	str	r2, [r3, #0]
2ffc4dc0:	f64a 7338 	movw	r3, #44856	@ 0xaf38
2ffc4dc4:	f6c2 73fc 	movt	r3, #12284	@ 0x2ffc
2ffc4dc8:	2200      	movs	r2, #0
2ffc4dca:	601a      	str	r2, [r3, #0]
2ffc4dcc:	6af8      	ldr	r0, [r7, #44]	@ 0x2c
2ffc4dce:	f000 ee18 	blx	2ffc5a00 <_tx_thread_interrupt_restore>
2ffc4dd2:	f64a 73d0 	movw	r3, #45008	@ 0xafd0
2ffc4dd6:	f6c2 73fc 	movt	r3, #12284	@ 0x2ffc
2ffc4dda:	681b      	ldr	r3, [r3, #0]
2ffc4ddc:	60fb      	str	r3, [r7, #12]
2ffc4dde:	f24a 33fc 	movw	r3, #41980	@ 0xa3fc
2ffc4de2:	f6c2 73fc 	movt	r3, #12284	@ 0x2ffc
2ffc4de6:	681b      	ldr	r3, [r3, #0]
2ffc4de8:	68fa      	ldr	r2, [r7, #12]
2ffc4dea:	4313      	orrs	r3, r2
2ffc4dec:	60fb      	str	r3, [r7, #12]
2ffc4dee:	68fb      	ldr	r3, [r7, #12]
2ffc4df0:	2b00      	cmp	r3, #0
2ffc4df2:	f040 81a9 	bne.w	2ffc5148 <_tx_thread_system_suspend+0x506>
2ffc4df6:	f000 ee82 	blx	2ffc5afc <_tx_thread_system_return>
2ffc4dfa:	e1a5      	b.n	2ffc5148 <_tx_thread_system_suspend+0x506>
2ffc4dfc:	2300      	movs	r3, #0
2ffc4dfe:	627b      	str	r3, [r7, #36]	@ 0x24
2ffc4e00:	6abb      	ldr	r3, [r7, #40]	@ 0x28
2ffc4e02:	425b      	negs	r3, r3
2ffc4e04:	6aba      	ldr	r2, [r7, #40]	@ 0x28
2ffc4e06:	4013      	ands	r3, r2
2ffc4e08:	62bb      	str	r3, [r7, #40]	@ 0x28
2ffc4e0a:	6abb      	ldr	r3, [r7, #40]	@ 0x28
2ffc4e0c:	2b0f      	cmp	r3, #15
2ffc4e0e:	d80e      	bhi.n	2ffc4e2e <_tx_thread_system_suspend+0x1ec>
2ffc4e10:	6abb      	ldr	r3, [r7, #40]	@ 0x28
2ffc4e12:	2b03      	cmp	r3, #3
2ffc4e14:	d905      	bls.n	2ffc4e22 <_tx_thread_system_suspend+0x1e0>
2ffc4e16:	6abb      	ldr	r3, [r7, #40]	@ 0x28
2ffc4e18:	089b      	lsrs	r3, r3, #2
2ffc4e1a:	62bb      	str	r3, [r7, #40]	@ 0x28
2ffc4e1c:	6a7b      	ldr	r3, [r7, #36]	@ 0x24
2ffc4e1e:	3302      	adds	r3, #2
2ffc4e20:	627b      	str	r3, [r7, #36]	@ 0x24
2ffc4e22:	6abb      	ldr	r3, [r7, #40]	@ 0x28
2ffc4e24:	085b      	lsrs	r3, r3, #1
2ffc4e26:	6a7a      	ldr	r2, [r7, #36]	@ 0x24
2ffc4e28:	4413      	add	r3, r2
2ffc4e2a:	627b      	str	r3, [r7, #36]	@ 0x24
2ffc4e2c:	e05f      	b.n	2ffc4eee <_tx_thread_system_suspend+0x2ac>
2ffc4e2e:	6abb      	ldr	r3, [r7, #40]	@ 0x28
2ffc4e30:	2bff      	cmp	r3, #255	@ 0xff
2ffc4e32:	d814      	bhi.n	2ffc4e5e <_tx_thread_system_suspend+0x21c>
2ffc4e34:	6abb      	ldr	r3, [r7, #40]	@ 0x28
2ffc4e36:	091b      	lsrs	r3, r3, #4
2ffc4e38:	62bb      	str	r3, [r7, #40]	@ 0x28
2ffc4e3a:	6a7b      	ldr	r3, [r7, #36]	@ 0x24
2ffc4e3c:	3304      	adds	r3, #4
2ffc4e3e:	627b      	str	r3, [r7, #36]	@ 0x24
2ffc4e40:	6abb      	ldr	r3, [r7, #40]	@ 0x28
2ffc4e42:	2b03      	cmp	r3, #3
2ffc4e44:	d905      	bls.n	2ffc4e52 <_tx_thread_system_suspend+0x210>
2ffc4e46:	6abb      	ldr	r3, [r7, #40]	@ 0x28
2ffc4e48:	089b      	lsrs	r3, r3, #2
2ffc4e4a:	62bb      	str	r3, [r7, #40]	@ 0x28
2ffc4e4c:	6a7b      	ldr	r3, [r7, #36]	@ 0x24
2ffc4e4e:	3302      	adds	r3, #2
2ffc4e50:	627b      	str	r3, [r7, #36]	@ 0x24
2ffc4e52:	6abb      	ldr	r3, [r7, #40]	@ 0x28
2ffc4e54:	085b      	lsrs	r3, r3, #1
2ffc4e56:	6a7a      	ldr	r2, [r7, #36]	@ 0x24
2ffc4e58:	4413      	add	r3, r2
2ffc4e5a:	627b      	str	r3, [r7, #36]	@ 0x24
2ffc4e5c:	e047      	b.n	2ffc4eee <_tx_thread_system_suspend+0x2ac>
2ffc4e5e:	6abb      	ldr	r3, [r7, #40]	@ 0x28
2ffc4e60:	f5b3 3f80 	cmp.w	r3, #65536	@ 0x10000
2ffc4e64:	d21d      	bcs.n	2ffc4ea2 <_tx_thread_system_suspend+0x260>
2ffc4e66:	6abb      	ldr	r3, [r7, #40]	@ 0x28
2ffc4e68:	0a1b      	lsrs	r3, r3, #8
2ffc4e6a:	62bb      	str	r3, [r7, #40]	@ 0x28
2ffc4e6c:	6a7b      	ldr	r3, [r7, #36]	@ 0x24
2ffc4e6e:	3308      	adds	r3, #8
2ffc4e70:	627b      	str	r3, [r7, #36]	@ 0x24
2ffc4e72:	6abb      	ldr	r3, [r7, #40]	@ 0x28
2ffc4e74:	2b0f      	cmp	r3, #15
2ffc4e76:	d905      	bls.n	2ffc4e84 <_tx_thread_system_suspend+0x242>
2ffc4e78:	6abb      	ldr	r3, [r7, #40]	@ 0x28
2ffc4e7a:	091b      	lsrs	r3, r3, #4
2ffc4e7c:	62bb      	str	r3, [r7, #40]	@ 0x28
2ffc4e7e:	6a7b      	ldr	r3, [r7, #36]	@ 0x24
2ffc4e80:	3304      	adds	r3, #4
2ffc4e82:	627b      	str	r3, [r7, #36]	@ 0x24
2ffc4e84:	6abb      	ldr	r3, [r7, #40]	@ 0x28
2ffc4e86:	2b03      	cmp	r3, #3
2ffc4e88:	d905      	bls.n	2ffc4e96 <_tx_thread_system_suspend+0x254>
2ffc4e8a:	6abb      	ldr	r3, [r7, #40]	@ 0x28
2ffc4e8c:	089b      	lsrs	r3, r3, #2
2ffc4e8e:	62bb      	str	r3, [r7, #40]	@ 0x28
2ffc4e90:	6a7b      	ldr	r3, [r7, #36]	@ 0x24
2ffc4e92:	3302      	adds	r3, #2
2ffc4e94:	627b      	str	r3, [r7, #36]	@ 0x24
2ffc4e96:	6abb      	ldr	r3, [r7, #40]	@ 0x28
2ffc4e98:	085b      	lsrs	r3, r3, #1
2ffc4e9a:	6a7a      	ldr	r2, [r7, #36]	@ 0x24
2ffc4e9c:	4413      	add	r3, r2
2ffc4e9e:	627b      	str	r3, [r7, #36]	@ 0x24
2ffc4ea0:	e025      	b.n	2ffc4eee <_tx_thread_system_suspend+0x2ac>
2ffc4ea2:	6abb      	ldr	r3, [r7, #40]	@ 0x28
2ffc4ea4:	0c1b      	lsrs	r3, r3, #16
2ffc4ea6:	62bb      	str	r3, [r7, #40]	@ 0x28
2ffc4ea8:	6a7b      	ldr	r3, [r7, #36]	@ 0x24
2ffc4eaa:	3310      	adds	r3, #16
2ffc4eac:	627b      	str	r3, [r7, #36]	@ 0x24
2ffc4eae:	6abb      	ldr	r3, [r7, #40]	@ 0x28
2ffc4eb0:	2bff      	cmp	r3, #255	@ 0xff
2ffc4eb2:	d905      	bls.n	2ffc4ec0 <_tx_thread_system_suspend+0x27e>
2ffc4eb4:	6abb      	ldr	r3, [r7, #40]	@ 0x28
2ffc4eb6:	0a1b      	lsrs	r3, r3, #8
2ffc4eb8:	62bb      	str	r3, [r7, #40]	@ 0x28
2ffc4eba:	6a7b      	ldr	r3, [r7, #36]	@ 0x24
2ffc4ebc:	3308      	adds	r3, #8
2ffc4ebe:	627b      	str	r3, [r7, #36]	@ 0x24
2ffc4ec0:	6abb      	ldr	r3, [r7, #40]	@ 0x28
2ffc4ec2:	2b0f      	cmp	r3, #15
2ffc4ec4:	d905      	bls.n	2ffc4ed2 <_tx_thread_system_suspend+0x290>
2ffc4ec6:	6abb      	ldr	r3, [r7, #40]	@ 0x28
2ffc4ec8:	091b      	lsrs	r3, r3, #4
2ffc4eca:	62bb      	str	r3, [r7, #40]	@ 0x28
2ffc4ecc:	6a7b      	ldr	r3, [r7, #36]	@ 0x24
2ffc4ece:	3304      	adds	r3, #4
2ffc4ed0:	627b      	str	r3, [r7, #36]	@ 0x24
2ffc4ed2:	6abb      	ldr	r3, [r7, #40]	@ 0x28
2ffc4ed4:	2b03      	cmp	r3, #3
2ffc4ed6:	d905      	bls.n	2ffc4ee4 <_tx_thread_system_suspend+0x2a2>
2ffc4ed8:	6abb      	ldr	r3, [r7, #40]	@ 0x28
2ffc4eda:	089b      	lsrs	r3, r3, #2
2ffc4edc:	62bb      	str	r3, [r7, #40]	@ 0x28
2ffc4ede:	6a7b      	ldr	r3, [r7, #36]	@ 0x24
2ffc4ee0:	3302      	adds	r3, #2
2ffc4ee2:	627b      	str	r3, [r7, #36]	@ 0x24
2ffc4ee4:	6abb      	ldr	r3, [r7, #40]	@ 0x28
2ffc4ee6:	085b      	lsrs	r3, r3, #1
2ffc4ee8:	6a7a      	ldr	r2, [r7, #36]	@ 0x24
2ffc4eea:	4413      	add	r3, r2
2ffc4eec:	627b      	str	r3, [r7, #36]	@ 0x24
2ffc4eee:	693a      	ldr	r2, [r7, #16]
2ffc4ef0:	6a7b      	ldr	r3, [r7, #36]	@ 0x24
2ffc4ef2:	441a      	add	r2, r3
2ffc4ef4:	f64a 734c 	movw	r3, #44876	@ 0xaf4c
2ffc4ef8:	f6c2 73fc 	movt	r3, #12284	@ 0x2ffc
2ffc4efc:	601a      	str	r2, [r3, #0]
2ffc4efe:	f64a 7338 	movw	r3, #44856	@ 0xaf38
2ffc4f02:	f6c2 73fc 	movt	r3, #12284	@ 0x2ffc
2ffc4f06:	681b      	ldr	r3, [r3, #0]
2ffc4f08:	687a      	ldr	r2, [r7, #4]
2ffc4f0a:	429a      	cmp	r2, r3
2ffc4f0c:	f040 80fd 	bne.w	2ffc510a <_tx_thread_system_suspend+0x4c8>
2ffc4f10:	f64a 734c 	movw	r3, #44876	@ 0xaf4c
2ffc4f14:	f6c2 73fc 	movt	r3, #12284	@ 0x2ffc
2ffc4f18:	681a      	ldr	r2, [r3, #0]
2ffc4f1a:	f64a 7350 	movw	r3, #44880	@ 0xaf50
2ffc4f1e:	f6c2 73fc 	movt	r3, #12284	@ 0x2ffc
2ffc4f22:	f853 2022 	ldr.w	r2, [r3, r2, lsl #2]
2ffc4f26:	f64a 7338 	movw	r3, #44856	@ 0xaf38
2ffc4f2a:	f6c2 73fc 	movt	r3, #12284	@ 0x2ffc
2ffc4f2e:	601a      	str	r2, [r3, #0]
2ffc4f30:	f64a 7348 	movw	r3, #44872	@ 0xaf48
2ffc4f34:	f6c2 73fc 	movt	r3, #12284	@ 0x2ffc
2ffc4f38:	681b      	ldr	r3, [r3, #0]
2ffc4f3a:	2b00      	cmp	r3, #0
2ffc4f3c:	f000 80ce 	beq.w	2ffc50dc <_tx_thread_system_suspend+0x49a>
2ffc4f40:	f64a 73d0 	movw	r3, #45008	@ 0xafd0
2ffc4f44:	f6c2 73fc 	movt	r3, #12284	@ 0x2ffc
2ffc4f48:	681b      	ldr	r3, [r3, #0]
2ffc4f4a:	1c5a      	adds	r2, r3, #1
2ffc4f4c:	f64a 73d0 	movw	r3, #45008	@ 0xafd0
2ffc4f50:	f6c2 73fc 	movt	r3, #12284	@ 0x2ffc
2ffc4f54:	601a      	str	r2, [r3, #0]
2ffc4f56:	6af8      	ldr	r0, [r7, #44]	@ 0x2c
2ffc4f58:	f000 ed52 	blx	2ffc5a00 <_tx_thread_interrupt_restore>
2ffc4f5c:	f000 ed4a 	blx	2ffc59f4 <_tx_thread_interrupt_disable>
2ffc4f60:	62f8      	str	r0, [r7, #44]	@ 0x2c
2ffc4f62:	f64a 73d0 	movw	r3, #45008	@ 0xafd0
2ffc4f66:	f6c2 73fc 	movt	r3, #12284	@ 0x2ffc
2ffc4f6a:	681b      	ldr	r3, [r3, #0]
2ffc4f6c:	1e5a      	subs	r2, r3, #1
2ffc4f6e:	f64a 73d0 	movw	r3, #45008	@ 0xafd0
2ffc4f72:	f6c2 73fc 	movt	r3, #12284	@ 0x2ffc
2ffc4f76:	601a      	str	r2, [r3, #0]
2ffc4f78:	2300      	movs	r3, #0
2ffc4f7a:	613b      	str	r3, [r7, #16]
2ffc4f7c:	f64a 7348 	movw	r3, #44872	@ 0xaf48
2ffc4f80:	f6c2 73fc 	movt	r3, #12284	@ 0x2ffc
2ffc4f84:	681b      	ldr	r3, [r3, #0]
2ffc4f86:	62bb      	str	r3, [r7, #40]	@ 0x28
2ffc4f88:	2300      	movs	r3, #0
2ffc4f8a:	627b      	str	r3, [r7, #36]	@ 0x24
2ffc4f8c:	6abb      	ldr	r3, [r7, #40]	@ 0x28
2ffc4f8e:	425b      	negs	r3, r3
2ffc4f90:	6aba      	ldr	r2, [r7, #40]	@ 0x28
2ffc4f92:	4013      	ands	r3, r2
2ffc4f94:	62bb      	str	r3, [r7, #40]	@ 0x28
2ffc4f96:	6abb      	ldr	r3, [r7, #40]	@ 0x28
2ffc4f98:	2b0f      	cmp	r3, #15
2ffc4f9a:	d80e      	bhi.n	2ffc4fba <_tx_thread_system_suspend+0x378>
2ffc4f9c:	6abb      	ldr	r3, [r7, #40]	@ 0x28
2ffc4f9e:	2b03      	cmp	r3, #3
2ffc4fa0:	d905      	bls.n	2ffc4fae <_tx_thread_system_suspend+0x36c>
2ffc4fa2:	6abb      	ldr	r3, [r7, #40]	@ 0x28
2ffc4fa4:	089b      	lsrs	r3, r3, #2
2ffc4fa6:	62bb      	str	r3, [r7, #40]	@ 0x28
2ffc4fa8:	6a7b      	ldr	r3, [r7, #36]	@ 0x24
2ffc4faa:	3302      	adds	r3, #2
2ffc4fac:	627b      	str	r3, [r7, #36]	@ 0x24
2ffc4fae:	6abb      	ldr	r3, [r7, #40]	@ 0x28
2ffc4fb0:	085b      	lsrs	r3, r3, #1
2ffc4fb2:	6a7a      	ldr	r2, [r7, #36]	@ 0x24
2ffc4fb4:	4413      	add	r3, r2
2ffc4fb6:	627b      	str	r3, [r7, #36]	@ 0x24
2ffc4fb8:	e05f      	b.n	2ffc507a <_tx_thread_system_suspend+0x438>
2ffc4fba:	6abb      	ldr	r3, [r7, #40]	@ 0x28
2ffc4fbc:	2bff      	cmp	r3, #255	@ 0xff
2ffc4fbe:	d814      	bhi.n	2ffc4fea <_tx_thread_system_suspend+0x3a8>
2ffc4fc0:	6abb      	ldr	r3, [r7, #40]	@ 0x28
2ffc4fc2:	091b      	lsrs	r3, r3, #4
2ffc4fc4:	62bb      	str	r3, [r7, #40]	@ 0x28
2ffc4fc6:	6a7b      	ldr	r3, [r7, #36]	@ 0x24
2ffc4fc8:	3304      	adds	r3, #4
2ffc4fca:	627b      	str	r3, [r7, #36]	@ 0x24
2ffc4fcc:	6abb      	ldr	r3, [r7, #40]	@ 0x28
2ffc4fce:	2b03      	cmp	r3, #3
2ffc4fd0:	d905      	bls.n	2ffc4fde <_tx_thread_system_suspend+0x39c>
2ffc4fd2:	6abb      	ldr	r3, [r7, #40]	@ 0x28
2ffc4fd4:	089b      	lsrs	r3, r3, #2
2ffc4fd6:	62bb      	str	r3, [r7, #40]	@ 0x28
2ffc4fd8:	6a7b      	ldr	r3, [r7, #36]	@ 0x24
2ffc4fda:	3302      	adds	r3, #2
2ffc4fdc:	627b      	str	r3, [r7, #36]	@ 0x24
2ffc4fde:	6abb      	ldr	r3, [r7, #40]	@ 0x28
2ffc4fe0:	085b      	lsrs	r3, r3, #1
2ffc4fe2:	6a7a      	ldr	r2, [r7, #36]	@ 0x24
2ffc4fe4:	4413      	add	r3, r2
2ffc4fe6:	627b      	str	r3, [r7, #36]	@ 0x24
2ffc4fe8:	e047      	b.n	2ffc507a <_tx_thread_system_suspend+0x438>
2ffc4fea:	6abb      	ldr	r3, [r7, #40]	@ 0x28
2ffc4fec:	f5b3 3f80 	cmp.w	r3, #65536	@ 0x10000
2ffc4ff0:	d21d      	bcs.n	2ffc502e <_tx_thread_system_suspend+0x3ec>
2ffc4ff2:	6abb      	ldr	r3, [r7, #40]	@ 0x28
2ffc4ff4:	0a1b      	lsrs	r3, r3, #8
2ffc4ff6:	62bb      	str	r3, [r7, #40]	@ 0x28
2ffc4ff8:	6a7b      	ldr	r3, [r7, #36]	@ 0x24
2ffc4ffa:	3308      	adds	r3, #8
2ffc4ffc:	627b      	str	r3, [r7, #36]	@ 0x24
2ffc4ffe:	6abb      	ldr	r3, [r7, #40]	@ 0x28
2ffc5000:	2b0f      	cmp	r3, #15
2ffc5002:	d905      	bls.n	2ffc5010 <_tx_thread_system_suspend+0x3ce>
2ffc5004:	6abb      	ldr	r3, [r7, #40]	@ 0x28
2ffc5006:	091b      	lsrs	r3, r3, #4
2ffc5008:	62bb      	str	r3, [r7, #40]	@ 0x28
2ffc500a:	6a7b      	ldr	r3, [r7, #36]	@ 0x24
2ffc500c:	3304      	adds	r3, #4
2ffc500e:	627b      	str	r3, [r7, #36]	@ 0x24
2ffc5010:	6abb      	ldr	r3, [r7, #40]	@ 0x28
2ffc5012:	2b03      	cmp	r3, #3
2ffc5014:	d905      	bls.n	2ffc5022 <_tx_thread_system_suspend+0x3e0>
2ffc5016:	6abb      	ldr	r3, [r7, #40]	@ 0x28
2ffc5018:	089b      	lsrs	r3, r3, #2
2ffc501a:	62bb      	str	r3, [r7, #40]	@ 0x28
2ffc501c:	6a7b      	ldr	r3, [r7, #36]	@ 0x24
2ffc501e:	3302      	adds	r3, #2
2ffc5020:	627b      	str	r3, [r7, #36]	@ 0x24
2ffc5022:	6abb      	ldr	r3, [r7, #40]	@ 0x28
2ffc5024:	085b      	lsrs	r3, r3, #1
2ffc5026:	6a7a      	ldr	r2, [r7, #36]	@ 0x24
2ffc5028:	4413      	add	r3, r2
2ffc502a:	627b      	str	r3, [r7, #36]	@ 0x24
2ffc502c:	e025      	b.n	2ffc507a <_tx_thread_system_suspend+0x438>
2ffc502e:	6abb      	ldr	r3, [r7, #40]	@ 0x28
2ffc5030:	0c1b      	lsrs	r3, r3, #16
2ffc5032:	62bb      	str	r3, [r7, #40]	@ 0x28
2ffc5034:	6a7b      	ldr	r3, [r7, #36]	@ 0x24
2ffc5036:	3310      	adds	r3, #16
2ffc5038:	627b      	str	r3, [r7, #36]	@ 0x24
2ffc503a:	6abb      	ldr	r3, [r7, #40]	@ 0x28
2ffc503c:	2bff      	cmp	r3, #255	@ 0xff
2ffc503e:	d905      	bls.n	2ffc504c <_tx_thread_system_suspend+0x40a>
2ffc5040:	6abb      	ldr	r3, [r7, #40]	@ 0x28
2ffc5042:	0a1b      	lsrs	r3, r3, #8
2ffc5044:	62bb      	str	r3, [r7, #40]	@ 0x28
2ffc5046:	6a7b      	ldr	r3, [r7, #36]	@ 0x24
2ffc5048:	3308      	adds	r3, #8
2ffc504a:	627b      	str	r3, [r7, #36]	@ 0x24
2ffc504c:	6abb      	ldr	r3, [r7, #40]	@ 0x28
2ffc504e:	2b0f      	cmp	r3, #15
2ffc5050:	d905      	bls.n	2ffc505e <_tx_thread_system_suspend+0x41c>
2ffc5052:	6abb      	ldr	r3, [r7, #40]	@ 0x28
2ffc5054:	091b      	lsrs	r3, r3, #4
2ffc5056:	62bb      	str	r3, [r7, #40]	@ 0x28
2ffc5058:	6a7b      	ldr	r3, [r7, #36]	@ 0x24
2ffc505a:	3304      	adds	r3, #4
2ffc505c:	627b      	str	r3, [r7, #36]	@ 0x24
2ffc505e:	6abb      	ldr	r3, [r7, #40]	@ 0x28
2ffc5060:	2b03      	cmp	r3, #3
2ffc5062:	d905      	bls.n	2ffc5070 <_tx_thread_system_suspend+0x42e>
2ffc5064:	6abb      	ldr	r3, [r7, #40]	@ 0x28
2ffc5066:	089b      	lsrs	r3, r3, #2
2ffc5068:	62bb      	str	r3, [r7, #40]	@ 0x28
2ffc506a:	6a7b      	ldr	r3, [r7, #36]	@ 0x24
2ffc506c:	3302      	adds	r3, #2
2ffc506e:	627b      	str	r3, [r7, #36]	@ 0x24
2ffc5070:	6abb      	ldr	r3, [r7, #40]	@ 0x28
2ffc5072:	085b      	lsrs	r3, r3, #1
2ffc5074:	6a7a      	ldr	r2, [r7, #36]	@ 0x24
2ffc5076:	4413      	add	r3, r2
2ffc5078:	627b      	str	r3, [r7, #36]	@ 0x24
2ffc507a:	693a      	ldr	r2, [r7, #16]
2ffc507c:	6a7b      	ldr	r3, [r7, #36]	@ 0x24
2ffc507e:	4413      	add	r3, r2
2ffc5080:	61bb      	str	r3, [r7, #24]
2ffc5082:	f64a 7350 	movw	r3, #44880	@ 0xaf50
2ffc5086:	f6c2 73fc 	movt	r3, #12284	@ 0x2ffc
2ffc508a:	69ba      	ldr	r2, [r7, #24]
2ffc508c:	f853 3022 	ldr.w	r3, [r3, r2, lsl #2]
2ffc5090:	6bda      	ldr	r2, [r3, #60]	@ 0x3c
2ffc5092:	f64a 734c 	movw	r3, #44876	@ 0xaf4c
2ffc5096:	f6c2 73fc 	movt	r3, #12284	@ 0x2ffc
2ffc509a:	681b      	ldr	r3, [r3, #0]
2ffc509c:	429a      	cmp	r2, r3
2ffc509e:	d81d      	bhi.n	2ffc50dc <_tx_thread_system_suspend+0x49a>
2ffc50a0:	f64a 7350 	movw	r3, #44880	@ 0xaf50
2ffc50a4:	f6c2 73fc 	movt	r3, #12284	@ 0x2ffc
2ffc50a8:	69ba      	ldr	r2, [r7, #24]
2ffc50aa:	f853 2022 	ldr.w	r2, [r3, r2, lsl #2]
2ffc50ae:	f64a 7338 	movw	r3, #44856	@ 0xaf38
2ffc50b2:	f6c2 73fc 	movt	r3, #12284	@ 0x2ffc
2ffc50b6:	601a      	str	r2, [r3, #0]
2ffc50b8:	2201      	movs	r2, #1
2ffc50ba:	69bb      	ldr	r3, [r7, #24]
2ffc50bc:	fa02 f303 	lsl.w	r3, r2, r3
2ffc50c0:	627b      	str	r3, [r7, #36]	@ 0x24
2ffc50c2:	f64a 7348 	movw	r3, #44872	@ 0xaf48
2ffc50c6:	f6c2 73fc 	movt	r3, #12284	@ 0x2ffc
2ffc50ca:	681a      	ldr	r2, [r3, #0]
2ffc50cc:	6a7b      	ldr	r3, [r7, #36]	@ 0x24
2ffc50ce:	43db      	mvns	r3, r3
2ffc50d0:	401a      	ands	r2, r3
2ffc50d2:	f64a 7348 	movw	r3, #44872	@ 0xaf48
2ffc50d6:	f6c2 73fc 	movt	r3, #12284	@ 0x2ffc
2ffc50da:	601a      	str	r2, [r3, #0]
2ffc50dc:	6af8      	ldr	r0, [r7, #44]	@ 0x2c
2ffc50de:	f000 ec90 	blx	2ffc5a00 <_tx_thread_interrupt_restore>
2ffc50e2:	f64a 73d0 	movw	r3, #45008	@ 0xafd0
2ffc50e6:	f6c2 73fc 	movt	r3, #12284	@ 0x2ffc
2ffc50ea:	681b      	ldr	r3, [r3, #0]
2ffc50ec:	60fb      	str	r3, [r7, #12]
2ffc50ee:	f24a 33fc 	movw	r3, #41980	@ 0xa3fc
2ffc50f2:	f6c2 73fc 	movt	r3, #12284	@ 0x2ffc
2ffc50f6:	681b      	ldr	r3, [r3, #0]
2ffc50f8:	68fa      	ldr	r2, [r7, #12]
2ffc50fa:	4313      	orrs	r3, r2
2ffc50fc:	60fb      	str	r3, [r7, #12]
2ffc50fe:	68fb      	ldr	r3, [r7, #12]
2ffc5100:	2b00      	cmp	r3, #0
2ffc5102:	d123      	bne.n	2ffc514c <_tx_thread_system_suspend+0x50a>
2ffc5104:	f000 ecfa 	blx	2ffc5afc <_tx_thread_system_return>
2ffc5108:	e020      	b.n	2ffc514c <_tx_thread_system_suspend+0x50a>
2ffc510a:	6af8      	ldr	r0, [r7, #44]	@ 0x2c
2ffc510c:	f000 ec78 	blx	2ffc5a00 <_tx_thread_interrupt_restore>
2ffc5110:	f64a 7338 	movw	r3, #44856	@ 0xaf38
2ffc5114:	f6c2 73fc 	movt	r3, #12284	@ 0x2ffc
2ffc5118:	681b      	ldr	r3, [r3, #0]
2ffc511a:	6a3a      	ldr	r2, [r7, #32]
2ffc511c:	429a      	cmp	r2, r3
2ffc511e:	d017      	beq.n	2ffc5150 <_tx_thread_system_suspend+0x50e>
2ffc5120:	f64a 73d0 	movw	r3, #45008	@ 0xafd0
2ffc5124:	f6c2 73fc 	movt	r3, #12284	@ 0x2ffc
2ffc5128:	681b      	ldr	r3, [r3, #0]
2ffc512a:	60fb      	str	r3, [r7, #12]
2ffc512c:	f24a 33fc 	movw	r3, #41980	@ 0xa3fc
2ffc5130:	f6c2 73fc 	movt	r3, #12284	@ 0x2ffc
2ffc5134:	681b      	ldr	r3, [r3, #0]
2ffc5136:	68fa      	ldr	r2, [r7, #12]
2ffc5138:	4313      	orrs	r3, r2
2ffc513a:	60fb      	str	r3, [r7, #12]
2ffc513c:	68fb      	ldr	r3, [r7, #12]
2ffc513e:	2b00      	cmp	r3, #0
2ffc5140:	d106      	bne.n	2ffc5150 <_tx_thread_system_suspend+0x50e>
2ffc5142:	f000 ecdc 	blx	2ffc5afc <_tx_thread_system_return>
2ffc5146:	e003      	b.n	2ffc5150 <_tx_thread_system_suspend+0x50e>
2ffc5148:	bf00      	nop
2ffc514a:	e002      	b.n	2ffc5152 <_tx_thread_system_suspend+0x510>
2ffc514c:	bf00      	nop
2ffc514e:	e000      	b.n	2ffc5152 <_tx_thread_system_suspend+0x510>
2ffc5150:	bf00      	nop
2ffc5152:	3730      	adds	r7, #48	@ 0x30
2ffc5154:	46bd      	mov	sp, r7
2ffc5156:	bd80      	pop	{r7, pc}

2ffc5158 <_tx_thread_terminate>:
2ffc5158:	b580      	push	{r7, lr}
2ffc515a:	b088      	sub	sp, #32
2ffc515c:	af00      	add	r7, sp, #0
2ffc515e:	6078      	str	r0, [r7, #4]
2ffc5160:	2300      	movs	r3, #0
2ffc5162:	61bb      	str	r3, [r7, #24]
2ffc5164:	f000 ec46 	blx	2ffc59f4 <_tx_thread_interrupt_disable>
2ffc5168:	61f8      	str	r0, [r7, #28]
2ffc516a:	687b      	ldr	r3, [r7, #4]
2ffc516c:	334c      	adds	r3, #76	@ 0x4c
2ffc516e:	4618      	mov	r0, r3
2ffc5170:	f000 fa61 	bl	2ffc5636 <_tx_timer_system_deactivate>
2ffc5174:	687b      	ldr	r3, [r7, #4]
2ffc5176:	6b1b      	ldr	r3, [r3, #48]	@ 0x30
2ffc5178:	2b02      	cmp	r3, #2
2ffc517a:	d105      	bne.n	2ffc5188 <_tx_thread_terminate+0x30>
2ffc517c:	69f8      	ldr	r0, [r7, #28]
2ffc517e:	f000 ec40 	blx	2ffc5a00 <_tx_thread_interrupt_restore>
2ffc5182:	2300      	movs	r3, #0
2ffc5184:	61bb      	str	r3, [r7, #24]
2ffc5186:	e08c      	b.n	2ffc52a2 <_tx_thread_terminate+0x14a>
2ffc5188:	687b      	ldr	r3, [r7, #4]
2ffc518a:	6b1b      	ldr	r3, [r3, #48]	@ 0x30
2ffc518c:	2b01      	cmp	r3, #1
2ffc518e:	f000 8085 	beq.w	2ffc529c <_tx_thread_terminate+0x144>
2ffc5192:	f64a 73d0 	movw	r3, #45008	@ 0xafd0
2ffc5196:	f6c2 73fc 	movt	r3, #12284	@ 0x2ffc
2ffc519a:	681b      	ldr	r3, [r3, #0]
2ffc519c:	1c5a      	adds	r2, r3, #1
2ffc519e:	f64a 73d0 	movw	r3, #45008	@ 0xafd0
2ffc51a2:	f6c2 73fc 	movt	r3, #12284	@ 0x2ffc
2ffc51a6:	601a      	str	r2, [r3, #0]
2ffc51a8:	687b      	ldr	r3, [r7, #4]
2ffc51aa:	f8d3 30b0 	ldr.w	r3, [r3, #176]	@ 0xb0
2ffc51ae:	617b      	str	r3, [r7, #20]
2ffc51b0:	687b      	ldr	r3, [r7, #4]
2ffc51b2:	6b1b      	ldr	r3, [r3, #48]	@ 0x30
2ffc51b4:	2b00      	cmp	r3, #0
2ffc51b6:	d124      	bne.n	2ffc5202 <_tx_thread_terminate+0xaa>
2ffc51b8:	687b      	ldr	r3, [r7, #4]
2ffc51ba:	2202      	movs	r2, #2
2ffc51bc:	631a      	str	r2, [r3, #48]	@ 0x30
2ffc51be:	687b      	ldr	r3, [r7, #4]
2ffc51c0:	2201      	movs	r2, #1
2ffc51c2:	639a      	str	r2, [r3, #56]	@ 0x38
2ffc51c4:	687b      	ldr	r3, [r7, #4]
2ffc51c6:	2200      	movs	r2, #0
2ffc51c8:	64da      	str	r2, [r3, #76]	@ 0x4c
2ffc51ca:	f64a 73d0 	movw	r3, #45008	@ 0xafd0
2ffc51ce:	f6c2 73fc 	movt	r3, #12284	@ 0x2ffc
2ffc51d2:	681b      	ldr	r3, [r3, #0]
2ffc51d4:	1c5a      	adds	r2, r3, #1
2ffc51d6:	f64a 73d0 	movw	r3, #45008	@ 0xafd0
2ffc51da:	f6c2 73fc 	movt	r3, #12284	@ 0x2ffc
2ffc51de:	601a      	str	r2, [r3, #0]
2ffc51e0:	69f8      	ldr	r0, [r7, #28]
2ffc51e2:	f000 ec0e 	blx	2ffc5a00 <_tx_thread_interrupt_restore>
2ffc51e6:	697b      	ldr	r3, [r7, #20]
2ffc51e8:	2b00      	cmp	r3, #0
2ffc51ea:	d003      	beq.n	2ffc51f4 <_tx_thread_terminate+0x9c>
2ffc51ec:	697b      	ldr	r3, [r7, #20]
2ffc51ee:	2101      	movs	r1, #1
2ffc51f0:	6878      	ldr	r0, [r7, #4]
2ffc51f2:	4798      	blx	r3
2ffc51f4:	6878      	ldr	r0, [r7, #4]
2ffc51f6:	f7ff fd24 	bl	2ffc4c42 <_tx_thread_system_suspend>
2ffc51fa:	f000 ebfc 	blx	2ffc59f4 <_tx_thread_interrupt_disable>
2ffc51fe:	61f8      	str	r0, [r7, #28]
2ffc5200:	e029      	b.n	2ffc5256 <_tx_thread_terminate+0xfe>
2ffc5202:	687b      	ldr	r3, [r7, #4]
2ffc5204:	2202      	movs	r2, #2
2ffc5206:	631a      	str	r2, [r3, #48]	@ 0x30
2ffc5208:	687b      	ldr	r3, [r7, #4]
2ffc520a:	2201      	movs	r2, #1
2ffc520c:	639a      	str	r2, [r3, #56]	@ 0x38
2ffc520e:	687b      	ldr	r3, [r7, #4]
2ffc5210:	6e9b      	ldr	r3, [r3, #104]	@ 0x68
2ffc5212:	613b      	str	r3, [r7, #16]
2ffc5214:	687b      	ldr	r3, [r7, #4]
2ffc5216:	f8d3 30b4 	ldr.w	r3, [r3, #180]	@ 0xb4
2ffc521a:	60fb      	str	r3, [r7, #12]
2ffc521c:	69f8      	ldr	r0, [r7, #28]
2ffc521e:	f000 ebf0 	blx	2ffc5a00 <_tx_thread_interrupt_restore>
2ffc5222:	693b      	ldr	r3, [r7, #16]
2ffc5224:	2b00      	cmp	r3, #0
2ffc5226:	d003      	beq.n	2ffc5230 <_tx_thread_terminate+0xd8>
2ffc5228:	693b      	ldr	r3, [r7, #16]
2ffc522a:	68f9      	ldr	r1, [r7, #12]
2ffc522c:	6878      	ldr	r0, [r7, #4]
2ffc522e:	4798      	blx	r3
2ffc5230:	f000 ebe0 	blx	2ffc59f4 <_tx_thread_interrupt_disable>
2ffc5234:	61f8      	str	r0, [r7, #28]
2ffc5236:	687b      	ldr	r3, [r7, #4]
2ffc5238:	2200      	movs	r2, #0
2ffc523a:	639a      	str	r2, [r3, #56]	@ 0x38
2ffc523c:	69f8      	ldr	r0, [r7, #28]
2ffc523e:	f000 ebe0 	blx	2ffc5a00 <_tx_thread_interrupt_restore>
2ffc5242:	697b      	ldr	r3, [r7, #20]
2ffc5244:	2b00      	cmp	r3, #0
2ffc5246:	d003      	beq.n	2ffc5250 <_tx_thread_terminate+0xf8>
2ffc5248:	697b      	ldr	r3, [r7, #20]
2ffc524a:	2101      	movs	r1, #1
2ffc524c:	6878      	ldr	r0, [r7, #4]
2ffc524e:	4798      	blx	r3
2ffc5250:	f000 ebd0 	blx	2ffc59f4 <_tx_thread_interrupt_disable>
2ffc5254:	61f8      	str	r0, [r7, #28]
2ffc5256:	69f8      	ldr	r0, [r7, #28]
2ffc5258:	f000 ebd2 	blx	2ffc5a00 <_tx_thread_interrupt_restore>
2ffc525c:	f64a 73d4 	movw	r3, #45012	@ 0xafd4
2ffc5260:	f6c2 73fc 	movt	r3, #12284	@ 0x2ffc
2ffc5264:	681b      	ldr	r3, [r3, #0]
2ffc5266:	2b00      	cmp	r3, #0
2ffc5268:	d006      	beq.n	2ffc5278 <_tx_thread_terminate+0x120>
2ffc526a:	f64a 73d4 	movw	r3, #45012	@ 0xafd4
2ffc526e:	f6c2 73fc 	movt	r3, #12284	@ 0x2ffc
2ffc5272:	681b      	ldr	r3, [r3, #0]
2ffc5274:	6878      	ldr	r0, [r7, #4]
2ffc5276:	4798      	blx	r3
2ffc5278:	f000 ebbc 	blx	2ffc59f4 <_tx_thread_interrupt_disable>
2ffc527c:	61f8      	str	r0, [r7, #28]
2ffc527e:	f64a 73d0 	movw	r3, #45008	@ 0xafd0
2ffc5282:	f6c2 73fc 	movt	r3, #12284	@ 0x2ffc
2ffc5286:	681b      	ldr	r3, [r3, #0]
2ffc5288:	1e5a      	subs	r2, r3, #1
2ffc528a:	f64a 73d0 	movw	r3, #45008	@ 0xafd0
2ffc528e:	f6c2 73fc 	movt	r3, #12284	@ 0x2ffc
2ffc5292:	601a      	str	r2, [r3, #0]
2ffc5294:	69f8      	ldr	r0, [r7, #28]
2ffc5296:	f000 ebb4 	blx	2ffc5a00 <_tx_thread_interrupt_restore>
2ffc529a:	e002      	b.n	2ffc52a2 <_tx_thread_terminate+0x14a>
2ffc529c:	69f8      	ldr	r0, [r7, #28]
2ffc529e:	f000 ebb0 	blx	2ffc5a00 <_tx_thread_interrupt_restore>
2ffc52a2:	f7ff fb95 	bl	2ffc49d0 <_tx_thread_system_preempt_check>
2ffc52a6:	69bb      	ldr	r3, [r7, #24]
2ffc52a8:	4618      	mov	r0, r3
2ffc52aa:	3720      	adds	r7, #32
2ffc52ac:	46bd      	mov	sp, r7
2ffc52ae:	bd80      	pop	{r7, pc}

2ffc52b0 <_tx_thread_timeout>:
2ffc52b0:	b580      	push	{r7, lr}
2ffc52b2:	b086      	sub	sp, #24
2ffc52b4:	af00      	add	r7, sp, #0
2ffc52b6:	6078      	str	r0, [r7, #4]
2ffc52b8:	687b      	ldr	r3, [r7, #4]
2ffc52ba:	617b      	str	r3, [r7, #20]
2ffc52bc:	f000 eb9a 	blx	2ffc59f4 <_tx_thread_interrupt_disable>
2ffc52c0:	6138      	str	r0, [r7, #16]
2ffc52c2:	697b      	ldr	r3, [r7, #20]
2ffc52c4:	6b1b      	ldr	r3, [r3, #48]	@ 0x30
2ffc52c6:	2b04      	cmp	r3, #4
2ffc52c8:	d111      	bne.n	2ffc52ee <_tx_thread_timeout+0x3e>
2ffc52ca:	f64a 73d0 	movw	r3, #45008	@ 0xafd0
2ffc52ce:	f6c2 73fc 	movt	r3, #12284	@ 0x2ffc
2ffc52d2:	681b      	ldr	r3, [r3, #0]
2ffc52d4:	1c5a      	adds	r2, r3, #1
2ffc52d6:	f64a 73d0 	movw	r3, #45008	@ 0xafd0
2ffc52da:	f6c2 73fc 	movt	r3, #12284	@ 0x2ffc
2ffc52de:	601a      	str	r2, [r3, #0]
2ffc52e0:	6938      	ldr	r0, [r7, #16]
2ffc52e2:	f000 eb8e 	blx	2ffc5a00 <_tx_thread_interrupt_restore>
2ffc52e6:	6978      	ldr	r0, [r7, #20]
2ffc52e8:	f7ff fb9c 	bl	2ffc4a24 <_tx_thread_system_resume>
2ffc52ec:	e010      	b.n	2ffc5310 <_tx_thread_timeout+0x60>
2ffc52ee:	697b      	ldr	r3, [r7, #20]
2ffc52f0:	6e9b      	ldr	r3, [r3, #104]	@ 0x68
2ffc52f2:	60fb      	str	r3, [r7, #12]
2ffc52f4:	697b      	ldr	r3, [r7, #20]
2ffc52f6:	f8d3 30b4 	ldr.w	r3, [r3, #180]	@ 0xb4
2ffc52fa:	60bb      	str	r3, [r7, #8]
2ffc52fc:	6938      	ldr	r0, [r7, #16]
2ffc52fe:	f000 eb80 	blx	2ffc5a00 <_tx_thread_interrupt_restore>
2ffc5302:	68fb      	ldr	r3, [r7, #12]
2ffc5304:	2b00      	cmp	r3, #0
2ffc5306:	d003      	beq.n	2ffc5310 <_tx_thread_timeout+0x60>
2ffc5308:	68fb      	ldr	r3, [r7, #12]
2ffc530a:	68b9      	ldr	r1, [r7, #8]
2ffc530c:	6978      	ldr	r0, [r7, #20]
2ffc530e:	4798      	blx	r3
2ffc5310:	bf00      	nop
2ffc5312:	3718      	adds	r7, #24
2ffc5314:	46bd      	mov	sp, r7
2ffc5316:	bd80      	pop	{r7, pc}

2ffc5318 <_tx_thread_time_slice>:
2ffc5318:	b580      	push	{r7, lr}
2ffc531a:	b082      	sub	sp, #8
2ffc531c:	af00      	add	r7, sp, #0
2ffc531e:	f64a 7334 	movw	r3, #44852	@ 0xaf34
2ffc5322:	f6c2 73fc 	movt	r3, #12284	@ 0x2ffc
2ffc5326:	681b      	ldr	r3, [r3, #0]
2ffc5328:	607b      	str	r3, [r7, #4]
2ffc532a:	f000 eb64 	blx	2ffc59f4 <_tx_thread_interrupt_disable>
2ffc532e:	6038      	str	r0, [r7, #0]
2ffc5330:	f64a 73e0 	movw	r3, #45024	@ 0xafe0
2ffc5334:	f6c2 73fc 	movt	r3, #12284	@ 0x2ffc
2ffc5338:	2200      	movs	r2, #0
2ffc533a:	601a      	str	r2, [r3, #0]
2ffc533c:	687b      	ldr	r3, [r7, #4]
2ffc533e:	2b00      	cmp	r3, #0
2ffc5340:	d033      	beq.n	2ffc53aa <_tx_thread_time_slice+0x92>
2ffc5342:	687b      	ldr	r3, [r7, #4]
2ffc5344:	6b1b      	ldr	r3, [r3, #48]	@ 0x30
2ffc5346:	2b00      	cmp	r3, #0
2ffc5348:	d12f      	bne.n	2ffc53aa <_tx_thread_time_slice+0x92>
2ffc534a:	687b      	ldr	r3, [r7, #4]
2ffc534c:	69da      	ldr	r2, [r3, #28]
2ffc534e:	687b      	ldr	r3, [r7, #4]
2ffc5350:	619a      	str	r2, [r3, #24]
2ffc5352:	687b      	ldr	r3, [r7, #4]
2ffc5354:	699a      	ldr	r2, [r3, #24]
2ffc5356:	f24b 5344 	movw	r3, #46404	@ 0xb544
2ffc535a:	f6c2 73fc 	movt	r3, #12284	@ 0x2ffc
2ffc535e:	601a      	str	r2, [r3, #0]
2ffc5360:	687b      	ldr	r3, [r7, #4]
2ffc5362:	6a1b      	ldr	r3, [r3, #32]
2ffc5364:	687a      	ldr	r2, [r7, #4]
2ffc5366:	429a      	cmp	r2, r3
2ffc5368:	d01f      	beq.n	2ffc53aa <_tx_thread_time_slice+0x92>
2ffc536a:	687b      	ldr	r3, [r7, #4]
2ffc536c:	6ada      	ldr	r2, [r3, #44]	@ 0x2c
2ffc536e:	687b      	ldr	r3, [r7, #4]
2ffc5370:	6bdb      	ldr	r3, [r3, #60]	@ 0x3c
2ffc5372:	429a      	cmp	r2, r3
2ffc5374:	d119      	bne.n	2ffc53aa <_tx_thread_time_slice+0x92>
2ffc5376:	687b      	ldr	r3, [r7, #4]
2ffc5378:	6ada      	ldr	r2, [r3, #44]	@ 0x2c
2ffc537a:	687b      	ldr	r3, [r7, #4]
2ffc537c:	6a19      	ldr	r1, [r3, #32]
2ffc537e:	f64a 7350 	movw	r3, #44880	@ 0xaf50
2ffc5382:	f6c2 73fc 	movt	r3, #12284	@ 0x2ffc
2ffc5386:	f843 1022 	str.w	r1, [r3, r2, lsl #2]
2ffc538a:	f64a 734c 	movw	r3, #44876	@ 0xaf4c
2ffc538e:	f6c2 73fc 	movt	r3, #12284	@ 0x2ffc
2ffc5392:	681a      	ldr	r2, [r3, #0]
2ffc5394:	f64a 7350 	movw	r3, #44880	@ 0xaf50
2ffc5398:	f6c2 73fc 	movt	r3, #12284	@ 0x2ffc
2ffc539c:	f853 2022 	ldr.w	r2, [r3, r2, lsl #2]
2ffc53a0:	f64a 7338 	movw	r3, #44856	@ 0xaf38
2ffc53a4:	f6c2 73fc 	movt	r3, #12284	@ 0x2ffc
2ffc53a8:	601a      	str	r2, [r3, #0]
2ffc53aa:	6838      	ldr	r0, [r7, #0]
2ffc53ac:	f000 eb28 	blx	2ffc5a00 <_tx_thread_interrupt_restore>
2ffc53b0:	bf00      	nop
2ffc53b2:	3708      	adds	r7, #8
2ffc53b4:	46bd      	mov	sp, r7
2ffc53b6:	bd80      	pop	{r7, pc}

2ffc53b8 <_tx_time_get>:
2ffc53b8:	b580      	push	{r7, lr}
2ffc53ba:	b082      	sub	sp, #8
2ffc53bc:	af00      	add	r7, sp, #0
2ffc53be:	f000 eb1a 	blx	2ffc59f4 <_tx_thread_interrupt_disable>
2ffc53c2:	6078      	str	r0, [r7, #4]
2ffc53c4:	f64a 73dc 	movw	r3, #45020	@ 0xafdc
2ffc53c8:	f6c2 73fc 	movt	r3, #12284	@ 0x2ffc
2ffc53cc:	681b      	ldr	r3, [r3, #0]
2ffc53ce:	603b      	str	r3, [r7, #0]
2ffc53d0:	6878      	ldr	r0, [r7, #4]
2ffc53d2:	f000 eb16 	blx	2ffc5a00 <_tx_thread_interrupt_restore>
2ffc53d6:	683b      	ldr	r3, [r7, #0]
2ffc53d8:	4618      	mov	r0, r3
2ffc53da:	3708      	adds	r7, #8
2ffc53dc:	46bd      	mov	sp, r7
2ffc53de:	bd80      	pop	{r7, pc}

2ffc53e0 <_tx_timer_expiration_process>:
2ffc53e0:	b580      	push	{r7, lr}
2ffc53e2:	b082      	sub	sp, #8
2ffc53e4:	af00      	add	r7, sp, #0
2ffc53e6:	f000 eb06 	blx	2ffc59f4 <_tx_thread_interrupt_disable>
2ffc53ea:	6078      	str	r0, [r7, #4]
2ffc53ec:	f64a 73d0 	movw	r3, #45008	@ 0xafd0
2ffc53f0:	f6c2 73fc 	movt	r3, #12284	@ 0x2ffc
2ffc53f4:	681b      	ldr	r3, [r3, #0]
2ffc53f6:	1c5a      	adds	r2, r3, #1
2ffc53f8:	f64a 73d0 	movw	r3, #45008	@ 0xafd0
2ffc53fc:	f6c2 73fc 	movt	r3, #12284	@ 0x2ffc
2ffc5400:	601a      	str	r2, [r3, #0]
2ffc5402:	6878      	ldr	r0, [r7, #4]
2ffc5404:	f000 eafc 	blx	2ffc5a00 <_tx_thread_interrupt_restore>
2ffc5408:	f24b 0080 	movw	r0, #45184	@ 0xb080
2ffc540c:	f6c2 70fc 	movt	r0, #12284	@ 0x2ffc
2ffc5410:	f7ff fb08 	bl	2ffc4a24 <_tx_thread_system_resume>
2ffc5414:	bf00      	nop
2ffc5416:	3708      	adds	r7, #8
2ffc5418:	46bd      	mov	sp, r7
2ffc541a:	bd80      	pop	{r7, pc}

2ffc541c <_tx_timer_initialize>:
2ffc541c:	b590      	push	{r4, r7, lr}
2ffc541e:	b089      	sub	sp, #36	@ 0x24
2ffc5420:	af06      	add	r7, sp, #24
2ffc5422:	f64a 73dc 	movw	r3, #45020	@ 0xafdc
2ffc5426:	f6c2 73fc 	movt	r3, #12284	@ 0x2ffc
2ffc542a:	2200      	movs	r2, #0
2ffc542c:	601a      	str	r2, [r3, #0]
2ffc542e:	f24b 5344 	movw	r3, #46404	@ 0xb544
2ffc5432:	f6c2 73fc 	movt	r3, #12284	@ 0x2ffc
2ffc5436:	2200      	movs	r2, #0
2ffc5438:	601a      	str	r2, [r3, #0]
2ffc543a:	f64a 73e0 	movw	r3, #45024	@ 0xafe0
2ffc543e:	f6c2 73fc 	movt	r3, #12284	@ 0x2ffc
2ffc5442:	2200      	movs	r2, #0
2ffc5444:	601a      	str	r2, [r3, #0]
2ffc5446:	f24b 0370 	movw	r3, #45168	@ 0xb070
2ffc544a:	f6c2 73fc 	movt	r3, #12284	@ 0x2ffc
2ffc544e:	2200      	movs	r2, #0
2ffc5450:	601a      	str	r2, [r3, #0]
2ffc5452:	f24b 037c 	movw	r3, #45180	@ 0xb07c
2ffc5456:	f6c2 73fc 	movt	r3, #12284	@ 0x2ffc
2ffc545a:	2200      	movs	r2, #0
2ffc545c:	601a      	str	r2, [r3, #0]
2ffc545e:	2280      	movs	r2, #128	@ 0x80
2ffc5460:	2100      	movs	r1, #0
2ffc5462:	f64a 70e4 	movw	r0, #45028	@ 0xafe4
2ffc5466:	f6c2 70fc 	movt	r0, #12284	@ 0x2ffc
2ffc546a:	f003 fa2c 	bl	2ffc88c6 <memset>
2ffc546e:	f24b 0364 	movw	r3, #45156	@ 0xb064
2ffc5472:	f6c2 73fc 	movt	r3, #12284	@ 0x2ffc
2ffc5476:	f64a 72e4 	movw	r2, #45028	@ 0xafe4
2ffc547a:	f6c2 72fc 	movt	r2, #12284	@ 0x2ffc
2ffc547e:	601a      	str	r2, [r3, #0]
2ffc5480:	f24b 036c 	movw	r3, #45164	@ 0xb06c
2ffc5484:	f6c2 73fc 	movt	r3, #12284	@ 0x2ffc
2ffc5488:	f64a 72e4 	movw	r2, #45028	@ 0xafe4
2ffc548c:	f6c2 72fc 	movt	r2, #12284	@ 0x2ffc
2ffc5490:	601a      	str	r2, [r3, #0]
2ffc5492:	f24b 0368 	movw	r3, #45160	@ 0xb068
2ffc5496:	f6c2 73fc 	movt	r3, #12284	@ 0x2ffc
2ffc549a:	4a32      	ldr	r2, [pc, #200]	@ (2ffc5564 <_tx_timer_initialize+0x148>)
2ffc549c:	601a      	str	r2, [r3, #0]
2ffc549e:	f24b 0368 	movw	r3, #45160	@ 0xb068
2ffc54a2:	f6c2 73fc 	movt	r3, #12284	@ 0x2ffc
2ffc54a6:	681b      	ldr	r3, [r3, #0]
2ffc54a8:	1d1a      	adds	r2, r3, #4
2ffc54aa:	f24b 0368 	movw	r3, #45160	@ 0xb068
2ffc54ae:	f6c2 73fc 	movt	r3, #12284	@ 0x2ffc
2ffc54b2:	601a      	str	r2, [r3, #0]
2ffc54b4:	f24b 1338 	movw	r3, #45368	@ 0xb138
2ffc54b8:	f6c2 73fc 	movt	r3, #12284	@ 0x2ffc
2ffc54bc:	f24b 1244 	movw	r2, #45380	@ 0xb144
2ffc54c0:	f6c2 72fc 	movt	r2, #12284	@ 0x2ffc
2ffc54c4:	601a      	str	r2, [r3, #0]
2ffc54c6:	f24b 133c 	movw	r3, #45372	@ 0xb13c
2ffc54ca:	f6c2 73fc 	movt	r3, #12284	@ 0x2ffc
2ffc54ce:	f44f 6280 	mov.w	r2, #1024	@ 0x400
2ffc54d2:	601a      	str	r2, [r3, #0]
2ffc54d4:	f24b 1340 	movw	r3, #45376	@ 0xb140
2ffc54d8:	f6c2 73fc 	movt	r3, #12284	@ 0x2ffc
2ffc54dc:	2200      	movs	r2, #0
2ffc54de:	601a      	str	r2, [r3, #0]
2ffc54e0:	f24b 1338 	movw	r3, #45368	@ 0xb138
2ffc54e4:	f6c2 73fc 	movt	r3, #12284	@ 0x2ffc
2ffc54e8:	681a      	ldr	r2, [r3, #0]
2ffc54ea:	f24b 133c 	movw	r3, #45372	@ 0xb13c
2ffc54ee:	f6c2 73fc 	movt	r3, #12284	@ 0x2ffc
2ffc54f2:	6819      	ldr	r1, [r3, #0]
2ffc54f4:	f24b 1340 	movw	r3, #45376	@ 0xb140
2ffc54f8:	f6c2 73fc 	movt	r3, #12284	@ 0x2ffc
2ffc54fc:	6818      	ldr	r0, [r3, #0]
2ffc54fe:	f24b 1340 	movw	r3, #45376	@ 0xb140
2ffc5502:	f6c2 73fc 	movt	r3, #12284	@ 0x2ffc
2ffc5506:	681b      	ldr	r3, [r3, #0]
2ffc5508:	2400      	movs	r4, #0
2ffc550a:	9405      	str	r4, [sp, #20]
2ffc550c:	2400      	movs	r4, #0
2ffc550e:	9404      	str	r4, [sp, #16]
2ffc5510:	9303      	str	r3, [sp, #12]
2ffc5512:	9002      	str	r0, [sp, #8]
2ffc5514:	9101      	str	r1, [sp, #4]
2ffc5516:	9200      	str	r2, [sp, #0]
2ffc5518:	f644 134d 	movw	r3, #18765	@ 0x494d
2ffc551c:	f2c4 1354 	movt	r3, #16724	@ 0x4154
2ffc5520:	f245 62a5 	movw	r2, #22181	@ 0x56a5
2ffc5524:	f6c2 72fc 	movt	r2, #12284	@ 0x2ffc
2ffc5528:	f249 1190 	movw	r1, #37264	@ 0x9190
2ffc552c:	f6c2 71fc 	movt	r1, #12284	@ 0x2ffc
2ffc5530:	f24b 0080 	movw	r0, #45184	@ 0xb080
2ffc5534:	f6c2 70fc 	movt	r0, #12284	@ 0x2ffc
2ffc5538:	f7fe fee7 	bl	2ffc430a <_tx_thread_create>
2ffc553c:	6078      	str	r0, [r7, #4]
2ffc553e:	687b      	ldr	r3, [r7, #4]
2ffc5540:	2b00      	cmp	r3, #0
2ffc5542:	d1cd      	bne.n	2ffc54e0 <_tx_timer_initialize+0xc4>
2ffc5544:	f24b 0374 	movw	r3, #45172	@ 0xb074
2ffc5548:	f6c2 73fc 	movt	r3, #12284	@ 0x2ffc
2ffc554c:	2200      	movs	r2, #0
2ffc554e:	601a      	str	r2, [r3, #0]
2ffc5550:	f24b 0378 	movw	r3, #45176	@ 0xb078
2ffc5554:	f6c2 73fc 	movt	r3, #12284	@ 0x2ffc
2ffc5558:	2200      	movs	r2, #0
2ffc555a:	601a      	str	r2, [r3, #0]
2ffc555c:	bf00      	nop
2ffc555e:	370c      	adds	r7, #12
2ffc5560:	46bd      	mov	sp, r7
2ffc5562:	bd90      	pop	{r4, r7, pc}
2ffc5564:	2ffcb060 	.word	0x2ffcb060

2ffc5568 <_tx_timer_system_activate>:
2ffc5568:	b480      	push	{r7}
2ffc556a:	b089      	sub	sp, #36	@ 0x24
2ffc556c:	af00      	add	r7, sp, #0
2ffc556e:	6078      	str	r0, [r7, #4]
2ffc5570:	687b      	ldr	r3, [r7, #4]
2ffc5572:	681b      	ldr	r3, [r3, #0]
2ffc5574:	617b      	str	r3, [r7, #20]
2ffc5576:	697b      	ldr	r3, [r7, #20]
2ffc5578:	2b00      	cmp	r3, #0
2ffc557a:	d056      	beq.n	2ffc562a <_tx_timer_system_activate+0xc2>
2ffc557c:	697b      	ldr	r3, [r7, #20]
2ffc557e:	f1b3 3fff 	cmp.w	r3, #4294967295	@ 0xffffffff
2ffc5582:	d052      	beq.n	2ffc562a <_tx_timer_system_activate+0xc2>
2ffc5584:	687b      	ldr	r3, [r7, #4]
2ffc5586:	699b      	ldr	r3, [r3, #24]
2ffc5588:	2b00      	cmp	r3, #0
2ffc558a:	d14e      	bne.n	2ffc562a <_tx_timer_system_activate+0xc2>
2ffc558c:	697b      	ldr	r3, [r7, #20]
2ffc558e:	2b20      	cmp	r3, #32
2ffc5590:	d902      	bls.n	2ffc5598 <_tx_timer_system_activate+0x30>
2ffc5592:	231f      	movs	r3, #31
2ffc5594:	61bb      	str	r3, [r7, #24]
2ffc5596:	e002      	b.n	2ffc559e <_tx_timer_system_activate+0x36>
2ffc5598:	697b      	ldr	r3, [r7, #20]
2ffc559a:	3b01      	subs	r3, #1
2ffc559c:	61bb      	str	r3, [r7, #24]
2ffc559e:	f24b 036c 	movw	r3, #45164	@ 0xb06c
2ffc55a2:	f6c2 73fc 	movt	r3, #12284	@ 0x2ffc
2ffc55a6:	681a      	ldr	r2, [r3, #0]
2ffc55a8:	69bb      	ldr	r3, [r7, #24]
2ffc55aa:	009b      	lsls	r3, r3, #2
2ffc55ac:	4413      	add	r3, r2
2ffc55ae:	61fb      	str	r3, [r7, #28]
2ffc55b0:	f24b 0368 	movw	r3, #45160	@ 0xb068
2ffc55b4:	f6c2 73fc 	movt	r3, #12284	@ 0x2ffc
2ffc55b8:	681b      	ldr	r3, [r3, #0]
2ffc55ba:	69fa      	ldr	r2, [r7, #28]
2ffc55bc:	429a      	cmp	r2, r3
2ffc55be:	d311      	bcc.n	2ffc55e4 <_tx_timer_system_activate+0x7c>
2ffc55c0:	f24b 0368 	movw	r3, #45160	@ 0xb068
2ffc55c4:	f6c2 73fc 	movt	r3, #12284	@ 0x2ffc
2ffc55c8:	681b      	ldr	r3, [r3, #0]
2ffc55ca:	69fa      	ldr	r2, [r7, #28]
2ffc55cc:	1ad3      	subs	r3, r2, r3
2ffc55ce:	109b      	asrs	r3, r3, #2
2ffc55d0:	613b      	str	r3, [r7, #16]
2ffc55d2:	f24b 0364 	movw	r3, #45156	@ 0xb064
2ffc55d6:	f6c2 73fc 	movt	r3, #12284	@ 0x2ffc
2ffc55da:	681a      	ldr	r2, [r3, #0]
2ffc55dc:	693b      	ldr	r3, [r7, #16]
2ffc55de:	009b      	lsls	r3, r3, #2
2ffc55e0:	4413      	add	r3, r2
2ffc55e2:	61fb      	str	r3, [r7, #28]
2ffc55e4:	69fb      	ldr	r3, [r7, #28]
2ffc55e6:	681b      	ldr	r3, [r3, #0]
2ffc55e8:	2b00      	cmp	r3, #0
2ffc55ea:	d109      	bne.n	2ffc5600 <_tx_timer_system_activate+0x98>
2ffc55ec:	687b      	ldr	r3, [r7, #4]
2ffc55ee:	687a      	ldr	r2, [r7, #4]
2ffc55f0:	611a      	str	r2, [r3, #16]
2ffc55f2:	687b      	ldr	r3, [r7, #4]
2ffc55f4:	687a      	ldr	r2, [r7, #4]
2ffc55f6:	615a      	str	r2, [r3, #20]
2ffc55f8:	69fb      	ldr	r3, [r7, #28]
2ffc55fa:	687a      	ldr	r2, [r7, #4]
2ffc55fc:	601a      	str	r2, [r3, #0]
2ffc55fe:	e011      	b.n	2ffc5624 <_tx_timer_system_activate+0xbc>
2ffc5600:	69fb      	ldr	r3, [r7, #28]
2ffc5602:	681b      	ldr	r3, [r3, #0]
2ffc5604:	60fb      	str	r3, [r7, #12]
2ffc5606:	68fb      	ldr	r3, [r7, #12]
2ffc5608:	695b      	ldr	r3, [r3, #20]
2ffc560a:	60bb      	str	r3, [r7, #8]
2ffc560c:	68bb      	ldr	r3, [r7, #8]
2ffc560e:	687a      	ldr	r2, [r7, #4]
2ffc5610:	611a      	str	r2, [r3, #16]
2ffc5612:	68fb      	ldr	r3, [r7, #12]
2ffc5614:	687a      	ldr	r2, [r7, #4]
2ffc5616:	615a      	str	r2, [r3, #20]
2ffc5618:	687b      	ldr	r3, [r7, #4]
2ffc561a:	68fa      	ldr	r2, [r7, #12]
2ffc561c:	611a      	str	r2, [r3, #16]
2ffc561e:	687b      	ldr	r3, [r7, #4]
2ffc5620:	68ba      	ldr	r2, [r7, #8]
2ffc5622:	615a      	str	r2, [r3, #20]
2ffc5624:	687b      	ldr	r3, [r7, #4]
2ffc5626:	69fa      	ldr	r2, [r7, #28]
2ffc5628:	619a      	str	r2, [r3, #24]
2ffc562a:	bf00      	nop
2ffc562c:	3724      	adds	r7, #36	@ 0x24
2ffc562e:	46bd      	mov	sp, r7
2ffc5630:	f85d 7b04 	ldr.w	r7, [sp], #4
2ffc5634:	4770      	bx	lr

2ffc5636 <_tx_timer_system_deactivate>:
2ffc5636:	b480      	push	{r7}
2ffc5638:	b087      	sub	sp, #28
2ffc563a:	af00      	add	r7, sp, #0
2ffc563c:	6078      	str	r0, [r7, #4]
2ffc563e:	687b      	ldr	r3, [r7, #4]
2ffc5640:	699b      	ldr	r3, [r3, #24]
2ffc5642:	617b      	str	r3, [r7, #20]
2ffc5644:	697b      	ldr	r3, [r7, #20]
2ffc5646:	2b00      	cmp	r3, #0
2ffc5648:	d026      	beq.n	2ffc5698 <_tx_timer_system_deactivate+0x62>
2ffc564a:	687b      	ldr	r3, [r7, #4]
2ffc564c:	691b      	ldr	r3, [r3, #16]
2ffc564e:	613b      	str	r3, [r7, #16]
2ffc5650:	687a      	ldr	r2, [r7, #4]
2ffc5652:	693b      	ldr	r3, [r7, #16]
2ffc5654:	429a      	cmp	r2, r3
2ffc5656:	d108      	bne.n	2ffc566a <_tx_timer_system_deactivate+0x34>
2ffc5658:	697b      	ldr	r3, [r7, #20]
2ffc565a:	681b      	ldr	r3, [r3, #0]
2ffc565c:	687a      	ldr	r2, [r7, #4]
2ffc565e:	429a      	cmp	r2, r3
2ffc5660:	d117      	bne.n	2ffc5692 <_tx_timer_system_deactivate+0x5c>
2ffc5662:	697b      	ldr	r3, [r7, #20]
2ffc5664:	2200      	movs	r2, #0
2ffc5666:	601a      	str	r2, [r3, #0]
2ffc5668:	e013      	b.n	2ffc5692 <_tx_timer_system_deactivate+0x5c>
2ffc566a:	687b      	ldr	r3, [r7, #4]
2ffc566c:	695b      	ldr	r3, [r3, #20]
2ffc566e:	60fb      	str	r3, [r7, #12]
2ffc5670:	693b      	ldr	r3, [r7, #16]
2ffc5672:	68fa      	ldr	r2, [r7, #12]
2ffc5674:	615a      	str	r2, [r3, #20]
2ffc5676:	68fb      	ldr	r3, [r7, #12]
2ffc5678:	693a      	ldr	r2, [r7, #16]
2ffc567a:	611a      	str	r2, [r3, #16]
2ffc567c:	697b      	ldr	r3, [r7, #20]
2ffc567e:	681b      	ldr	r3, [r3, #0]
2ffc5680:	687a      	ldr	r2, [r7, #4]
2ffc5682:	429a      	cmp	r2, r3
2ffc5684:	d105      	bne.n	2ffc5692 <_tx_timer_system_deactivate+0x5c>
2ffc5686:	693b      	ldr	r3, [r7, #16]
2ffc5688:	697a      	ldr	r2, [r7, #20]
2ffc568a:	619a      	str	r2, [r3, #24]
2ffc568c:	697b      	ldr	r3, [r7, #20]
2ffc568e:	693a      	ldr	r2, [r7, #16]
2ffc5690:	601a      	str	r2, [r3, #0]
2ffc5692:	687b      	ldr	r3, [r7, #4]
2ffc5694:	2200      	movs	r2, #0
2ffc5696:	619a      	str	r2, [r3, #24]
2ffc5698:	bf00      	nop
2ffc569a:	371c      	adds	r7, #28
2ffc569c:	46bd      	mov	sp, r7
2ffc569e:	f85d 7b04 	ldr.w	r7, [sp], #4
2ffc56a2:	4770      	bx	lr

2ffc56a4 <_tx_timer_thread_entry>:
2ffc56a4:	b580      	push	{r7, lr}
2ffc56a6:	b08c      	sub	sp, #48	@ 0x30
2ffc56a8:	af00      	add	r7, sp, #0
2ffc56aa:	6078      	str	r0, [r7, #4]
2ffc56ac:	2300      	movs	r3, #0
2ffc56ae:	627b      	str	r3, [r7, #36]	@ 0x24
2ffc56b0:	687a      	ldr	r2, [r7, #4]
2ffc56b2:	f644 134d 	movw	r3, #18765	@ 0x494d
2ffc56b6:	f2c4 1354 	movt	r3, #16724	@ 0x4154
2ffc56ba:	429a      	cmp	r2, r3
2ffc56bc:	f040 80e7 	bne.w	2ffc588e <_tx_timer_thread_entry+0x1ea>
2ffc56c0:	f000 e998 	blx	2ffc59f4 <_tx_thread_interrupt_disable>
2ffc56c4:	62f8      	str	r0, [r7, #44]	@ 0x2c
2ffc56c6:	f24b 036c 	movw	r3, #45164	@ 0xb06c
2ffc56ca:	f6c2 73fc 	movt	r3, #12284	@ 0x2ffc
2ffc56ce:	681b      	ldr	r3, [r3, #0]
2ffc56d0:	681b      	ldr	r3, [r3, #0]
2ffc56d2:	613b      	str	r3, [r7, #16]
2ffc56d4:	693b      	ldr	r3, [r7, #16]
2ffc56d6:	2b00      	cmp	r3, #0
2ffc56d8:	d003      	beq.n	2ffc56e2 <_tx_timer_thread_entry+0x3e>
2ffc56da:	693b      	ldr	r3, [r7, #16]
2ffc56dc:	f107 0210 	add.w	r2, r7, #16
2ffc56e0:	619a      	str	r2, [r3, #24]
2ffc56e2:	f24b 036c 	movw	r3, #45164	@ 0xb06c
2ffc56e6:	f6c2 73fc 	movt	r3, #12284	@ 0x2ffc
2ffc56ea:	681b      	ldr	r3, [r3, #0]
2ffc56ec:	2200      	movs	r2, #0
2ffc56ee:	601a      	str	r2, [r3, #0]
2ffc56f0:	f24b 036c 	movw	r3, #45164	@ 0xb06c
2ffc56f4:	f6c2 73fc 	movt	r3, #12284	@ 0x2ffc
2ffc56f8:	681b      	ldr	r3, [r3, #0]
2ffc56fa:	1d1a      	adds	r2, r3, #4
2ffc56fc:	f24b 036c 	movw	r3, #45164	@ 0xb06c
2ffc5700:	f6c2 73fc 	movt	r3, #12284	@ 0x2ffc
2ffc5704:	601a      	str	r2, [r3, #0]
2ffc5706:	f24b 036c 	movw	r3, #45164	@ 0xb06c
2ffc570a:	f6c2 73fc 	movt	r3, #12284	@ 0x2ffc
2ffc570e:	681a      	ldr	r2, [r3, #0]
2ffc5710:	f24b 0368 	movw	r3, #45160	@ 0xb068
2ffc5714:	f6c2 73fc 	movt	r3, #12284	@ 0x2ffc
2ffc5718:	681b      	ldr	r3, [r3, #0]
2ffc571a:	429a      	cmp	r2, r3
2ffc571c:	d109      	bne.n	2ffc5732 <_tx_timer_thread_entry+0x8e>
2ffc571e:	f24b 0364 	movw	r3, #45156	@ 0xb064
2ffc5722:	f6c2 73fc 	movt	r3, #12284	@ 0x2ffc
2ffc5726:	681a      	ldr	r2, [r3, #0]
2ffc5728:	f24b 036c 	movw	r3, #45164	@ 0xb06c
2ffc572c:	f6c2 73fc 	movt	r3, #12284	@ 0x2ffc
2ffc5730:	601a      	str	r2, [r3, #0]
2ffc5732:	f24b 0370 	movw	r3, #45168	@ 0xb070
2ffc5736:	f6c2 73fc 	movt	r3, #12284	@ 0x2ffc
2ffc573a:	2200      	movs	r2, #0
2ffc573c:	601a      	str	r2, [r3, #0]
2ffc573e:	6af8      	ldr	r0, [r7, #44]	@ 0x2c
2ffc5740:	f000 e95e 	blx	2ffc5a00 <_tx_thread_interrupt_restore>
2ffc5744:	f000 e956 	blx	2ffc59f4 <_tx_thread_interrupt_disable>
2ffc5748:	62f8      	str	r0, [r7, #44]	@ 0x2c
2ffc574a:	e075      	b.n	2ffc5838 <_tx_timer_thread_entry+0x194>
2ffc574c:	693b      	ldr	r3, [r7, #16]
2ffc574e:	61fb      	str	r3, [r7, #28]
2ffc5750:	693b      	ldr	r3, [r7, #16]
2ffc5752:	691b      	ldr	r3, [r3, #16]
2ffc5754:	61bb      	str	r3, [r7, #24]
2ffc5756:	2300      	movs	r3, #0
2ffc5758:	60fb      	str	r3, [r7, #12]
2ffc575a:	69fa      	ldr	r2, [r7, #28]
2ffc575c:	69bb      	ldr	r3, [r7, #24]
2ffc575e:	429a      	cmp	r2, r3
2ffc5760:	d102      	bne.n	2ffc5768 <_tx_timer_thread_entry+0xc4>
2ffc5762:	2300      	movs	r3, #0
2ffc5764:	613b      	str	r3, [r7, #16]
2ffc5766:	e00e      	b.n	2ffc5786 <_tx_timer_thread_entry+0xe2>
2ffc5768:	69fb      	ldr	r3, [r7, #28]
2ffc576a:	695b      	ldr	r3, [r3, #20]
2ffc576c:	617b      	str	r3, [r7, #20]
2ffc576e:	69bb      	ldr	r3, [r7, #24]
2ffc5770:	697a      	ldr	r2, [r7, #20]
2ffc5772:	615a      	str	r2, [r3, #20]
2ffc5774:	697b      	ldr	r3, [r7, #20]
2ffc5776:	69ba      	ldr	r2, [r7, #24]
2ffc5778:	611a      	str	r2, [r3, #16]
2ffc577a:	69bb      	ldr	r3, [r7, #24]
2ffc577c:	f107 0210 	add.w	r2, r7, #16
2ffc5780:	619a      	str	r2, [r3, #24]
2ffc5782:	69bb      	ldr	r3, [r7, #24]
2ffc5784:	613b      	str	r3, [r7, #16]
2ffc5786:	69fb      	ldr	r3, [r7, #28]
2ffc5788:	681b      	ldr	r3, [r3, #0]
2ffc578a:	2b20      	cmp	r3, #32
2ffc578c:	d911      	bls.n	2ffc57b2 <_tx_timer_thread_entry+0x10e>
2ffc578e:	69fb      	ldr	r3, [r7, #28]
2ffc5790:	681b      	ldr	r3, [r3, #0]
2ffc5792:	f1a3 0220 	sub.w	r2, r3, #32
2ffc5796:	69fb      	ldr	r3, [r7, #28]
2ffc5798:	601a      	str	r2, [r3, #0]
2ffc579a:	2300      	movs	r3, #0
2ffc579c:	62bb      	str	r3, [r7, #40]	@ 0x28
2ffc579e:	69fb      	ldr	r3, [r7, #28]
2ffc57a0:	f107 020c 	add.w	r2, r7, #12
2ffc57a4:	619a      	str	r2, [r3, #24]
2ffc57a6:	69fb      	ldr	r3, [r7, #28]
2ffc57a8:	69fa      	ldr	r2, [r7, #28]
2ffc57aa:	611a      	str	r2, [r3, #16]
2ffc57ac:	69fb      	ldr	r3, [r7, #28]
2ffc57ae:	60fb      	str	r3, [r7, #12]
2ffc57b0:	e01a      	b.n	2ffc57e8 <_tx_timer_thread_entry+0x144>
2ffc57b2:	69fb      	ldr	r3, [r7, #28]
2ffc57b4:	689b      	ldr	r3, [r3, #8]
2ffc57b6:	62bb      	str	r3, [r7, #40]	@ 0x28
2ffc57b8:	69fb      	ldr	r3, [r7, #28]
2ffc57ba:	68db      	ldr	r3, [r3, #12]
2ffc57bc:	627b      	str	r3, [r7, #36]	@ 0x24
2ffc57be:	69fb      	ldr	r3, [r7, #28]
2ffc57c0:	685a      	ldr	r2, [r3, #4]
2ffc57c2:	69fb      	ldr	r3, [r7, #28]
2ffc57c4:	601a      	str	r2, [r3, #0]
2ffc57c6:	69fb      	ldr	r3, [r7, #28]
2ffc57c8:	681b      	ldr	r3, [r3, #0]
2ffc57ca:	2b00      	cmp	r3, #0
2ffc57cc:	d009      	beq.n	2ffc57e2 <_tx_timer_thread_entry+0x13e>
2ffc57ce:	69fb      	ldr	r3, [r7, #28]
2ffc57d0:	f107 020c 	add.w	r2, r7, #12
2ffc57d4:	619a      	str	r2, [r3, #24]
2ffc57d6:	69fb      	ldr	r3, [r7, #28]
2ffc57d8:	69fa      	ldr	r2, [r7, #28]
2ffc57da:	611a      	str	r2, [r3, #16]
2ffc57dc:	69fb      	ldr	r3, [r7, #28]
2ffc57de:	60fb      	str	r3, [r7, #12]
2ffc57e0:	e002      	b.n	2ffc57e8 <_tx_timer_thread_entry+0x144>
2ffc57e2:	69fb      	ldr	r3, [r7, #28]
2ffc57e4:	2200      	movs	r2, #0
2ffc57e6:	619a      	str	r2, [r3, #24]
2ffc57e8:	f24b 037c 	movw	r3, #45180	@ 0xb07c
2ffc57ec:	f6c2 73fc 	movt	r3, #12284	@ 0x2ffc
2ffc57f0:	69fa      	ldr	r2, [r7, #28]
2ffc57f2:	601a      	str	r2, [r3, #0]
2ffc57f4:	6af8      	ldr	r0, [r7, #44]	@ 0x2c
2ffc57f6:	f000 e904 	blx	2ffc5a00 <_tx_thread_interrupt_restore>
2ffc57fa:	6abb      	ldr	r3, [r7, #40]	@ 0x28
2ffc57fc:	2b00      	cmp	r3, #0
2ffc57fe:	d002      	beq.n	2ffc5806 <_tx_timer_thread_entry+0x162>
2ffc5800:	6abb      	ldr	r3, [r7, #40]	@ 0x28
2ffc5802:	6a78      	ldr	r0, [r7, #36]	@ 0x24
2ffc5804:	4798      	blx	r3
2ffc5806:	f000 e8f6 	blx	2ffc59f4 <_tx_thread_interrupt_disable>
2ffc580a:	62f8      	str	r0, [r7, #44]	@ 0x2c
2ffc580c:	f24b 037c 	movw	r3, #45180	@ 0xb07c
2ffc5810:	f6c2 73fc 	movt	r3, #12284	@ 0x2ffc
2ffc5814:	2200      	movs	r2, #0
2ffc5816:	601a      	str	r2, [r3, #0]
2ffc5818:	68fb      	ldr	r3, [r7, #12]
2ffc581a:	69fa      	ldr	r2, [r7, #28]
2ffc581c:	429a      	cmp	r2, r3
2ffc581e:	d105      	bne.n	2ffc582c <_tx_timer_thread_entry+0x188>
2ffc5820:	69fb      	ldr	r3, [r7, #28]
2ffc5822:	2200      	movs	r2, #0
2ffc5824:	619a      	str	r2, [r3, #24]
2ffc5826:	69f8      	ldr	r0, [r7, #28]
2ffc5828:	f7ff fe9e 	bl	2ffc5568 <_tx_timer_system_activate>
2ffc582c:	6af8      	ldr	r0, [r7, #44]	@ 0x2c
2ffc582e:	f000 e8e8 	blx	2ffc5a00 <_tx_thread_interrupt_restore>
2ffc5832:	f000 e8e0 	blx	2ffc59f4 <_tx_thread_interrupt_disable>
2ffc5836:	62f8      	str	r0, [r7, #44]	@ 0x2c
2ffc5838:	693b      	ldr	r3, [r7, #16]
2ffc583a:	2b00      	cmp	r3, #0
2ffc583c:	d186      	bne.n	2ffc574c <_tx_timer_thread_entry+0xa8>
2ffc583e:	f24b 0370 	movw	r3, #45168	@ 0xb070
2ffc5842:	f6c2 73fc 	movt	r3, #12284	@ 0x2ffc
2ffc5846:	681b      	ldr	r3, [r3, #0]
2ffc5848:	2b00      	cmp	r3, #0
2ffc584a:	d11c      	bne.n	2ffc5886 <_tx_timer_thread_entry+0x1e2>
2ffc584c:	f24b 0380 	movw	r3, #45184	@ 0xb080
2ffc5850:	f6c2 73fc 	movt	r3, #12284	@ 0x2ffc
2ffc5854:	623b      	str	r3, [r7, #32]
2ffc5856:	6a3b      	ldr	r3, [r7, #32]
2ffc5858:	2203      	movs	r2, #3
2ffc585a:	631a      	str	r2, [r3, #48]	@ 0x30
2ffc585c:	6a3b      	ldr	r3, [r7, #32]
2ffc585e:	2201      	movs	r2, #1
2ffc5860:	639a      	str	r2, [r3, #56]	@ 0x38
2ffc5862:	f64a 73d0 	movw	r3, #45008	@ 0xafd0
2ffc5866:	f6c2 73fc 	movt	r3, #12284	@ 0x2ffc
2ffc586a:	681b      	ldr	r3, [r3, #0]
2ffc586c:	1c5a      	adds	r2, r3, #1
2ffc586e:	f64a 73d0 	movw	r3, #45008	@ 0xafd0
2ffc5872:	f6c2 73fc 	movt	r3, #12284	@ 0x2ffc
2ffc5876:	601a      	str	r2, [r3, #0]
2ffc5878:	6af8      	ldr	r0, [r7, #44]	@ 0x2c
2ffc587a:	f000 e8c2 	blx	2ffc5a00 <_tx_thread_interrupt_restore>
2ffc587e:	6a38      	ldr	r0, [r7, #32]
2ffc5880:	f7ff f9df 	bl	2ffc4c42 <_tx_thread_system_suspend>
2ffc5884:	e71c      	b.n	2ffc56c0 <_tx_timer_thread_entry+0x1c>
2ffc5886:	6af8      	ldr	r0, [r7, #44]	@ 0x2c
2ffc5888:	f000 e8ba 	blx	2ffc5a00 <_tx_thread_interrupt_restore>
2ffc588c:	e718      	b.n	2ffc56c0 <_tx_timer_thread_entry+0x1c>
2ffc588e:	bf00      	nop
2ffc5890:	3730      	adds	r7, #48	@ 0x30
2ffc5892:	46bd      	mov	sp, r7
2ffc5894:	bd80      	pop	{r7, pc}
	...

2ffc5898 <_tx_thread_context_restore>:
2ffc5898:	f10c0080 	cpsid	i
2ffc589c:	e59f30cc 	ldr	r3, [pc, #204]	@ 2ffc5970 <__tx_thread_idle_system_restore+0x8>
2ffc58a0:	e5932000 	ldr	r2, [r3]
2ffc58a4:	e2422001 	sub	r2, r2, #1
2ffc58a8:	e5832000 	str	r2, [r3]
2ffc58ac:	e3520000 	cmp	r2, #0
2ffc58b0:	0a000003 	beq	2ffc58c4 <__tx_thread_not_nested_restore>
2ffc58b4:	e8bd5401 	pop	{r0, sl, ip, lr}
2ffc58b8:	e16ff000 	msr	SPSR_fsxc, r0
2ffc58bc:	e8bd000f 	pop	{r0, r1, r2, r3}
2ffc58c0:	e1b0f00e 	movs	pc, lr

2ffc58c4 <__tx_thread_not_nested_restore>:
2ffc58c4:	e59f10a8 	ldr	r1, [pc, #168]	@ 2ffc5974 <__tx_thread_idle_system_restore+0xc>
2ffc58c8:	e5910000 	ldr	r0, [r1]
2ffc58cc:	e3500000 	cmp	r0, #0
2ffc58d0:	0a000024 	beq	2ffc5968 <__tx_thread_idle_system_restore>
2ffc58d4:	e59f309c 	ldr	r3, [pc, #156]	@ 2ffc5978 <__tx_thread_idle_system_restore+0x10>
2ffc58d8:	e5932000 	ldr	r2, [r3]
2ffc58dc:	e3520000 	cmp	r2, #0
2ffc58e0:	1a000003 	bne	2ffc58f4 <__tx_thread_no_preempt_restore>
2ffc58e4:	e59f3090 	ldr	r3, [pc, #144]	@ 2ffc597c <__tx_thread_idle_system_restore+0x14>
2ffc58e8:	e5932000 	ldr	r2, [r3]
2ffc58ec:	e1500002 	cmp	r0, r2
2ffc58f0:	1a000003 	bne	2ffc5904 <__tx_thread_preempt_restore>

2ffc58f4 <__tx_thread_no_preempt_restore>:
2ffc58f4:	e8bd5401 	pop	{r0, sl, ip, lr}
2ffc58f8:	e16ff000 	msr	SPSR_fsxc, r0
2ffc58fc:	e8bd000f 	pop	{r0, r1, r2, r3}
2ffc5900:	e1b0f00e 	movs	pc, lr

2ffc5904 <__tx_thread_preempt_restore>:
2ffc5904:	e8bd5408 	pop	{r3, sl, ip, lr}
2ffc5908:	e1a0100e 	mov	r1, lr
2ffc590c:	f1020013 	cps	#19
2ffc5910:	e52d1004 	push	{r1}		@ (str r1, [sp, #-4]!)
2ffc5914:	e92d5ff0 	push	{r4, r5, r6, r7, r8, r9, sl, fp, ip, lr}
2ffc5918:	e1a04003 	mov	r4, r3
2ffc591c:	f1020012 	cps	#18
2ffc5920:	e8bd000f 	pop	{r0, r1, r2, r3}
2ffc5924:	f1020013 	cps	#19
2ffc5928:	e92d000f 	push	{r0, r1, r2, r3}
2ffc592c:	e59f1040 	ldr	r1, [pc, #64]	@ 2ffc5974 <__tx_thread_idle_system_restore+0xc>
2ffc5930:	e5910000 	ldr	r0, [r1]
2ffc5934:	e3a03001 	mov	r3, #1
2ffc5938:	e92d0018 	push	{r3, r4}
2ffc593c:	e580d008 	str	sp, [r0, #8]
2ffc5940:	e59f3038 	ldr	r3, [pc, #56]	@ 2ffc5980 <__tx_thread_idle_system_restore+0x18>
2ffc5944:	e5932000 	ldr	r2, [r3]
2ffc5948:	e3520000 	cmp	r2, #0
2ffc594c:	0a000002 	beq	2ffc595c <__tx_thread_dont_save_ts>
2ffc5950:	e5802018 	str	r2, [r0, #24]
2ffc5954:	e3a02000 	mov	r2, #0
2ffc5958:	e5832000 	str	r2, [r3]

2ffc595c <__tx_thread_dont_save_ts>:
2ffc595c:	e3a00000 	mov	r0, #0
2ffc5960:	e5810000 	str	r0, [r1]
2ffc5964:	ea000029 	b	2ffc5a10 <_tx_thread_schedule>

2ffc5968 <__tx_thread_idle_system_restore>:
2ffc5968:	f1020013 	cps	#19
2ffc596c:	ea000027 	b	2ffc5a10 <_tx_thread_schedule>
2ffc5970:	2ffca3fc 	.word	0x2ffca3fc
2ffc5974:	2ffcaf34 	.word	0x2ffcaf34
2ffc5978:	2ffcafd0 	.word	0x2ffcafd0
2ffc597c:	2ffcaf38 	.word	0x2ffcaf38
2ffc5980:	2ffcb544 	.word	0x2ffcb544

2ffc5984 <_tx_thread_context_save>:
2ffc5984:	e92d000f 	push	{r0, r1, r2, r3}
2ffc5988:	e59f305c 	ldr	r3, [pc, #92]	@ 2ffc59ec <__tx_thread_idle_system_save+0xc>
2ffc598c:	e5932000 	ldr	r2, [r3]
2ffc5990:	e3520000 	cmp	r2, #0
2ffc5994:	0a000006 	beq	2ffc59b4 <__tx_thread_not_nested_save>
2ffc5998:	e2822001 	add	r2, r2, #1
2ffc599c:	e5832000 	str	r2, [r3]
2ffc59a0:	e14f0000 	mrs	r0, SPSR
2ffc59a4:	e24ee004 	sub	lr, lr, #4
2ffc59a8:	e92d5401 	push	{r0, sl, ip, lr}
2ffc59ac:	e3a0a000 	mov	sl, #0
2ffc59b0:	eafff526 	b	2ffc2e50 <__tx_irq_processing_return>

2ffc59b4 <__tx_thread_not_nested_save>:
2ffc59b4:	e2822001 	add	r2, r2, #1
2ffc59b8:	e5832000 	str	r2, [r3]
2ffc59bc:	e59f102c 	ldr	r1, [pc, #44]	@ 2ffc59f0 <__tx_thread_idle_system_save+0x10>
2ffc59c0:	e5910000 	ldr	r0, [r1]
2ffc59c4:	e3500000 	cmp	r0, #0
2ffc59c8:	0a000004 	beq	2ffc59e0 <__tx_thread_idle_system_save>
2ffc59cc:	e14f2000 	mrs	r2, SPSR
2ffc59d0:	e24ee004 	sub	lr, lr, #4
2ffc59d4:	e92d5404 	push	{r2, sl, ip, lr}
2ffc59d8:	e3a0a000 	mov	sl, #0
2ffc59dc:	eafff51b 	b	2ffc2e50 <__tx_irq_processing_return>

2ffc59e0 <__tx_thread_idle_system_save>:
2ffc59e0:	e3a0a000 	mov	sl, #0
2ffc59e4:	e28dd010 	add	sp, sp, #16
2ffc59e8:	eafff518 	b	2ffc2e50 <__tx_irq_processing_return>
2ffc59ec:	2ffca3fc 	.word	0x2ffca3fc
2ffc59f0:	2ffcaf34 	.word	0x2ffcaf34

2ffc59f4 <_tx_thread_interrupt_disable>:
2ffc59f4:	e10f0000 	mrs	r0, CPSR
2ffc59f8:	f10c0080 	cpsid	i
2ffc59fc:	e12fff1e 	bx	lr

2ffc5a00 <_tx_thread_interrupt_restore>:
2ffc5a00:	e3100080 	tst	r0, #128	@ 0x80
2ffc5a04:	1a000000 	bne	2ffc5a0c <no_irq>
2ffc5a08:	f1080080 	cpsie	i

2ffc5a0c <no_irq>:
2ffc5a0c:	e12fff1e 	bx	lr

2ffc5a10 <_tx_thread_schedule>:
2ffc5a10:	f1080080 	cpsie	i
2ffc5a14:	e59f1050 	ldr	r1, [pc, #80]	@ 2ffc5a6c <_tx_solicited_return+0xc>

2ffc5a18 <__tx_thread_schedule_loop>:
2ffc5a18:	e5910000 	ldr	r0, [r1]
2ffc5a1c:	e3500000 	cmp	r0, #0
2ffc5a20:	0afffffc 	beq	2ffc5a18 <__tx_thread_schedule_loop>
2ffc5a24:	f10c0080 	cpsid	i
2ffc5a28:	e59f1040 	ldr	r1, [pc, #64]	@ 2ffc5a70 <_tx_solicited_return+0x10>
2ffc5a2c:	e5810000 	str	r0, [r1]
2ffc5a30:	e5902004 	ldr	r2, [r0, #4]
2ffc5a34:	e5903018 	ldr	r3, [r0, #24]
2ffc5a38:	e2822001 	add	r2, r2, #1
2ffc5a3c:	e5802004 	str	r2, [r0, #4]
2ffc5a40:	e59f202c 	ldr	r2, [pc, #44]	@ 2ffc5a74 <_tx_solicited_return+0x14>
2ffc5a44:	e5823000 	str	r3, [r2]
2ffc5a48:	e590d008 	ldr	sp, [r0, #8]
2ffc5a4c:	e8bd0030 	pop	{r4, r5}
2ffc5a50:	e3540000 	cmp	r4, #0
2ffc5a54:	0a000001 	beq	2ffc5a60 <_tx_solicited_return>
2ffc5a58:	e16ff005 	msr	SPSR_fsxc, r5
2ffc5a5c:	e8fddfff 	ldm	sp!, {r0, r1, r2, r3, r4, r5, r6, r7, r8, r9, sl, fp, ip, lr, pc}^

2ffc5a60 <_tx_solicited_return>:
2ffc5a60:	e12ff005 	msr	CPSR_fsxc, r5
2ffc5a64:	e8bd4ff0 	pop	{r4, r5, r6, r7, r8, r9, sl, fp, lr}
2ffc5a68:	e12fff1e 	bx	lr
2ffc5a6c:	2ffcaf38 	.word	0x2ffcaf38
2ffc5a70:	2ffcaf34 	.word	0x2ffcaf34
2ffc5a74:	2ffcb544 	.word	0x2ffcb544

2ffc5a78 <_tx_thread_stack_build>:
2ffc5a78:	e5902010 	ldr	r2, [r0, #16]
2ffc5a7c:	e3c22007 	bic	r2, r2, #7
2ffc5a80:	e242204c 	sub	r2, r2, #76	@ 0x4c
2ffc5a84:	e3a03001 	mov	r3, #1
2ffc5a88:	e5823000 	str	r3, [r2]
2ffc5a8c:	e10f3000 	mrs	r3, CPSR
2ffc5a90:	e3c330bf 	bic	r3, r3, #191	@ 0xbf
2ffc5a94:	e3833013 	orr	r3, r3, #19
2ffc5a98:	e3110001 	tst	r1, #1
2ffc5a9c:	13833020 	orrne	r3, r3, #32
2ffc5aa0:	e5823004 	str	r3, [r2, #4]
2ffc5aa4:	e3a03000 	mov	r3, #0
2ffc5aa8:	e5823008 	str	r3, [r2, #8]
2ffc5aac:	e582300c 	str	r3, [r2, #12]
2ffc5ab0:	e5823010 	str	r3, [r2, #16]
2ffc5ab4:	e5823014 	str	r3, [r2, #20]
2ffc5ab8:	e5823018 	str	r3, [r2, #24]
2ffc5abc:	e582301c 	str	r3, [r2, #28]
2ffc5ac0:	e5823020 	str	r3, [r2, #32]
2ffc5ac4:	e5823024 	str	r3, [r2, #36]	@ 0x24
2ffc5ac8:	e5823028 	str	r3, [r2, #40]	@ 0x28
2ffc5acc:	e582302c 	str	r3, [r2, #44]	@ 0x2c
2ffc5ad0:	e5823034 	str	r3, [r2, #52]	@ 0x34
2ffc5ad4:	e5823038 	str	r3, [r2, #56]	@ 0x38
2ffc5ad8:	e5823044 	str	r3, [r2, #68]	@ 0x44
2ffc5adc:	e590300c 	ldr	r3, [r0, #12]
2ffc5ae0:	e5823030 	str	r3, [r2, #48]	@ 0x30
2ffc5ae4:	e59f300c 	ldr	r3, [pc, #12]	@ 2ffc5af8 <_tx_thread_stack_build+0x80>
2ffc5ae8:	e582303c 	str	r3, [r2, #60]	@ 0x3c
2ffc5aec:	e5821040 	str	r1, [r2, #64]	@ 0x40
2ffc5af0:	e5802008 	str	r2, [r0, #8]
2ffc5af4:	e12fff1e 	bx	lr
2ffc5af8:	2ffc5a10 	.word	0x2ffc5a10

2ffc5afc <_tx_thread_system_return>:
2ffc5afc:	e92d4ff0 	push	{r4, r5, r6, r7, r8, r9, sl, fp, lr}
2ffc5b00:	e59f4048 	ldr	r4, [pc, #72]	@ 2ffc5b50 <__tx_thread_dont_save_ts+0x8>
2ffc5b04:	e5945000 	ldr	r5, [r4]
2ffc5b08:	e3a00000 	mov	r0, #0
2ffc5b0c:	e10f1000 	mrs	r1, CPSR
2ffc5b10:	e31e0001 	tst	lr, #1
2ffc5b14:	13811020 	orrne	r1, r1, #32
2ffc5b18:	e92d0003 	push	{r0, r1}
2ffc5b1c:	f10c0080 	cpsid	i
2ffc5b20:	e1a03004 	mov	r3, r4
2ffc5b24:	e1a00005 	mov	r0, r5
2ffc5b28:	e59f2024 	ldr	r2, [pc, #36]	@ 2ffc5b54 <__tx_thread_dont_save_ts+0xc>
2ffc5b2c:	e5921000 	ldr	r1, [r2]
2ffc5b30:	e580d008 	str	sp, [r0, #8]
2ffc5b34:	e3a04000 	mov	r4, #0
2ffc5b38:	e3510000 	cmp	r1, #0
2ffc5b3c:	0a000001 	beq	2ffc5b48 <__tx_thread_dont_save_ts>
2ffc5b40:	e5824000 	str	r4, [r2]
2ffc5b44:	e5801018 	str	r1, [r0, #24]

2ffc5b48 <__tx_thread_dont_save_ts>:
2ffc5b48:	e5834000 	str	r4, [r3]
2ffc5b4c:	eaffffaf 	b	2ffc5a10 <_tx_thread_schedule>
2ffc5b50:	2ffcaf34 	.word	0x2ffcaf34
2ffc5b54:	2ffcb544 	.word	0x2ffcb544

2ffc5b58 <_tx_timer_interrupt>:
2ffc5b58:	e59f10cc 	ldr	r1, [pc, #204]	@ 2ffc5c2c <__tx_timer_nothing_expired+0x4>
2ffc5b5c:	e5910000 	ldr	r0, [r1]
2ffc5b60:	e2800001 	add	r0, r0, #1
2ffc5b64:	e5810000 	str	r0, [r1]
2ffc5b68:	e59f30c0 	ldr	r3, [pc, #192]	@ 2ffc5c30 <__tx_timer_nothing_expired+0x8>
2ffc5b6c:	e5932000 	ldr	r2, [r3]
2ffc5b70:	e3520000 	cmp	r2, #0
2ffc5b74:	0a000006 	beq	2ffc5b94 <__tx_timer_no_time_slice>
2ffc5b78:	e2422001 	sub	r2, r2, #1
2ffc5b7c:	e5832000 	str	r2, [r3]
2ffc5b80:	e3520000 	cmp	r2, #0
2ffc5b84:	1a000002 	bne	2ffc5b94 <__tx_timer_no_time_slice>
2ffc5b88:	e59f30a4 	ldr	r3, [pc, #164]	@ 2ffc5c34 <__tx_timer_nothing_expired+0xc>
2ffc5b8c:	e3a00001 	mov	r0, #1
2ffc5b90:	e5830000 	str	r0, [r3]

2ffc5b94 <__tx_timer_no_time_slice>:
2ffc5b94:	e59f109c 	ldr	r1, [pc, #156]	@ 2ffc5c38 <__tx_timer_nothing_expired+0x10>
2ffc5b98:	e5910000 	ldr	r0, [r1]
2ffc5b9c:	e5902000 	ldr	r2, [r0]
2ffc5ba0:	e3520000 	cmp	r2, #0
2ffc5ba4:	0a000003 	beq	2ffc5bb8 <__tx_timer_no_timer>
2ffc5ba8:	e59f308c 	ldr	r3, [pc, #140]	@ 2ffc5c3c <__tx_timer_nothing_expired+0x14>
2ffc5bac:	e3a02001 	mov	r2, #1
2ffc5bb0:	e5832000 	str	r2, [r3]
2ffc5bb4:	ea000007 	b	2ffc5bd8 <__tx_timer_done>

2ffc5bb8 <__tx_timer_no_timer>:
2ffc5bb8:	e2800004 	add	r0, r0, #4
2ffc5bbc:	e59f307c 	ldr	r3, [pc, #124]	@ 2ffc5c40 <__tx_timer_nothing_expired+0x18>
2ffc5bc0:	e5932000 	ldr	r2, [r3]
2ffc5bc4:	e1500002 	cmp	r0, r2
2ffc5bc8:	1a000001 	bne	2ffc5bd4 <__tx_timer_skip_wrap>
2ffc5bcc:	e59f3070 	ldr	r3, [pc, #112]	@ 2ffc5c44 <__tx_timer_nothing_expired+0x1c>
2ffc5bd0:	e5930000 	ldr	r0, [r3]

2ffc5bd4 <__tx_timer_skip_wrap>:
2ffc5bd4:	e5810000 	str	r0, [r1]

2ffc5bd8 <__tx_timer_done>:
2ffc5bd8:	e59f3054 	ldr	r3, [pc, #84]	@ 2ffc5c34 <__tx_timer_nothing_expired+0xc>
2ffc5bdc:	e5932000 	ldr	r2, [r3]
2ffc5be0:	e3520000 	cmp	r2, #0
2ffc5be4:	1a000003 	bne	2ffc5bf8 <__tx_something_expired>
2ffc5be8:	e59f104c 	ldr	r1, [pc, #76]	@ 2ffc5c3c <__tx_timer_nothing_expired+0x14>
2ffc5bec:	e5910000 	ldr	r0, [r1]
2ffc5bf0:	e3500000 	cmp	r0, #0
2ffc5bf4:	0a00000b 	beq	2ffc5c28 <__tx_timer_nothing_expired>

2ffc5bf8 <__tx_something_expired>:
2ffc5bf8:	e92d4001 	push	{r0, lr}
2ffc5bfc:	e59f1038 	ldr	r1, [pc, #56]	@ 2ffc5c3c <__tx_timer_nothing_expired+0x14>
2ffc5c00:	e5910000 	ldr	r0, [r1]
2ffc5c04:	e3500000 	cmp	r0, #0
2ffc5c08:	0a000000 	beq	2ffc5c10 <__tx_timer_dont_activate>
2ffc5c0c:	fafffdf3 	blx	2ffc53e0 <_tx_timer_expiration_process>

2ffc5c10 <__tx_timer_dont_activate>:
2ffc5c10:	e59f301c 	ldr	r3, [pc, #28]	@ 2ffc5c34 <__tx_timer_nothing_expired+0xc>
2ffc5c14:	e5932000 	ldr	r2, [r3]
2ffc5c18:	e3520000 	cmp	r2, #0
2ffc5c1c:	0a000000 	beq	2ffc5c24 <__tx_timer_not_ts_expiration>
2ffc5c20:	fafffdbc 	blx	2ffc5318 <_tx_thread_time_slice>

2ffc5c24 <__tx_timer_not_ts_expiration>:
2ffc5c24:	e8bd4001 	pop	{r0, lr}

2ffc5c28 <__tx_timer_nothing_expired>:
2ffc5c28:	e12fff1e 	bx	lr
2ffc5c2c:	2ffcafdc 	.word	0x2ffcafdc
2ffc5c30:	2ffcb544 	.word	0x2ffcb544
2ffc5c34:	2ffcafe0 	.word	0x2ffcafe0
2ffc5c38:	2ffcb06c 	.word	0x2ffcb06c
2ffc5c3c:	2ffcb070 	.word	0x2ffcb070
2ffc5c40:	2ffcb068 	.word	0x2ffcb068
2ffc5c44:	2ffcb064 	.word	0x2ffcb064

2ffc5c48 <_Z8printonePKc>:
2ffc5c48:	b580      	push	{r7, lr}
2ffc5c4a:	b082      	sub	sp, #8
2ffc5c4c:	af00      	add	r7, sp, #0
2ffc5c4e:	6078      	str	r0, [r7, #4]
2ffc5c50:	e006      	b.n	2ffc5c60 <_Z8printonePKc+0x18>
2ffc5c52:	687b      	ldr	r3, [r7, #4]
2ffc5c54:	1c5a      	adds	r2, r3, #1
2ffc5c56:	607a      	str	r2, [r7, #4]
2ffc5c58:	781b      	ldrb	r3, [r3, #0]
2ffc5c5a:	4618      	mov	r0, r3
2ffc5c5c:	f7fc f9b3 	bl	2ffc1fc6 <_Z9putchar_sc>
2ffc5c60:	687b      	ldr	r3, [r7, #4]
2ffc5c62:	781b      	ldrb	r3, [r3, #0]
2ffc5c64:	2b00      	cmp	r3, #0
2ffc5c66:	d1f4      	bne.n	2ffc5c52 <_Z8printonePKc+0xa>
2ffc5c68:	bf00      	nop
2ffc5c6a:	bf00      	nop
2ffc5c6c:	3708      	adds	r7, #8
2ffc5c6e:	46bd      	mov	sp, r7
2ffc5c70:	bd80      	pop	{r7, pc}

2ffc5c72 <_Z8printonei>:
2ffc5c72:	b580      	push	{r7, lr}
2ffc5c74:	b08a      	sub	sp, #40	@ 0x28
2ffc5c76:	af00      	add	r7, sp, #0
2ffc5c78:	6078      	str	r0, [r7, #4]
2ffc5c7a:	687b      	ldr	r3, [r7, #4]
2ffc5c7c:	2b00      	cmp	r3, #0
2ffc5c7e:	d106      	bne.n	2ffc5c8e <_Z8printonei+0x1c>
2ffc5c80:	f249 10a4 	movw	r0, #37284	@ 0x91a4
2ffc5c84:	f6c2 70fc 	movt	r0, #12284	@ 0x2ffc
2ffc5c88:	f7ff ffde 	bl	2ffc5c48 <_Z8printonePKc>
2ffc5c8c:	e071      	b.n	2ffc5d72 <_Z8printonei+0x100>
2ffc5c8e:	687b      	ldr	r3, [r7, #4]
2ffc5c90:	2b00      	cmp	r3, #0
2ffc5c92:	da08      	bge.n	2ffc5ca6 <_Z8printonei+0x34>
2ffc5c94:	f249 10a8 	movw	r0, #37288	@ 0x91a8
2ffc5c98:	f6c2 70fc 	movt	r0, #12284	@ 0x2ffc
2ffc5c9c:	f7ff ffd4 	bl	2ffc5c48 <_Z8printonePKc>
2ffc5ca0:	687b      	ldr	r3, [r7, #4]
2ffc5ca2:	425b      	negs	r3, r3
2ffc5ca4:	607b      	str	r3, [r7, #4]
2ffc5ca6:	230a      	movs	r3, #10
2ffc5ca8:	61fb      	str	r3, [r7, #28]
2ffc5caa:	2300      	movs	r3, #0
2ffc5cac:	627b      	str	r3, [r7, #36]	@ 0x24
2ffc5cae:	687b      	ldr	r3, [r7, #4]
2ffc5cb0:	f246 6267 	movw	r2, #26215	@ 0x6667
2ffc5cb4:	f2c6 6266 	movt	r2, #26214	@ 0x6666
2ffc5cb8:	fb82 1203 	smull	r1, r2, r2, r3
2ffc5cbc:	1091      	asrs	r1, r2, #2
2ffc5cbe:	17da      	asrs	r2, r3, #31
2ffc5cc0:	1a8a      	subs	r2, r1, r2
2ffc5cc2:	210a      	movs	r1, #10
2ffc5cc4:	fb01 f202 	mul.w	r2, r1, r2
2ffc5cc8:	1a9a      	subs	r2, r3, r2
2ffc5cca:	4613      	mov	r3, r2
2ffc5ccc:	76fb      	strb	r3, [r7, #27]
2ffc5cce:	7efb      	ldrb	r3, [r7, #27]
2ffc5cd0:	3330      	adds	r3, #48	@ 0x30
2ffc5cd2:	b2d9      	uxtb	r1, r3
2ffc5cd4:	6a7b      	ldr	r3, [r7, #36]	@ 0x24
2ffc5cd6:	1c5a      	adds	r2, r3, #1
2ffc5cd8:	627a      	str	r2, [r7, #36]	@ 0x24
2ffc5cda:	3328      	adds	r3, #40	@ 0x28
2ffc5cdc:	443b      	add	r3, r7
2ffc5cde:	460a      	mov	r2, r1
2ffc5ce0:	f803 2c1c 	strb.w	r2, [r3, #-28]
2ffc5ce4:	687a      	ldr	r2, [r7, #4]
2ffc5ce6:	f246 6367 	movw	r3, #26215	@ 0x6667
2ffc5cea:	f2c6 6366 	movt	r3, #26214	@ 0x6666
2ffc5cee:	fb83 1302 	smull	r1, r3, r3, r2
2ffc5cf2:	1099      	asrs	r1, r3, #2
2ffc5cf4:	17d3      	asrs	r3, r2, #31
2ffc5cf6:	1acb      	subs	r3, r1, r3
2ffc5cf8:	607b      	str	r3, [r7, #4]
2ffc5cfa:	687b      	ldr	r3, [r7, #4]
2ffc5cfc:	2b00      	cmp	r3, #0
2ffc5cfe:	d002      	beq.n	2ffc5d06 <_Z8printonei+0x94>
2ffc5d00:	6a7b      	ldr	r3, [r7, #36]	@ 0x24
2ffc5d02:	2b09      	cmp	r3, #9
2ffc5d04:	ddd3      	ble.n	2ffc5cae <_Z8printonei+0x3c>
2ffc5d06:	f107 020c 	add.w	r2, r7, #12
2ffc5d0a:	6a7b      	ldr	r3, [r7, #36]	@ 0x24
2ffc5d0c:	4413      	add	r3, r2
2ffc5d0e:	2200      	movs	r2, #0
2ffc5d10:	701a      	strb	r2, [r3, #0]
2ffc5d12:	2300      	movs	r3, #0
2ffc5d14:	623b      	str	r3, [r7, #32]
2ffc5d16:	e01f      	b.n	2ffc5d58 <_Z8printonei+0xe6>
2ffc5d18:	f107 020c 	add.w	r2, r7, #12
2ffc5d1c:	6a3b      	ldr	r3, [r7, #32]
2ffc5d1e:	4413      	add	r3, r2
2ffc5d20:	781b      	ldrb	r3, [r3, #0]
2ffc5d22:	76bb      	strb	r3, [r7, #26]
2ffc5d24:	6a7a      	ldr	r2, [r7, #36]	@ 0x24
2ffc5d26:	6a3b      	ldr	r3, [r7, #32]
2ffc5d28:	1ad3      	subs	r3, r2, r3
2ffc5d2a:	3b01      	subs	r3, #1
2ffc5d2c:	3328      	adds	r3, #40	@ 0x28
2ffc5d2e:	443b      	add	r3, r7
2ffc5d30:	f813 1c1c 	ldrb.w	r1, [r3, #-28]
2ffc5d34:	f107 020c 	add.w	r2, r7, #12
2ffc5d38:	6a3b      	ldr	r3, [r7, #32]
2ffc5d3a:	4413      	add	r3, r2
2ffc5d3c:	460a      	mov	r2, r1
2ffc5d3e:	701a      	strb	r2, [r3, #0]
2ffc5d40:	6a7a      	ldr	r2, [r7, #36]	@ 0x24
2ffc5d42:	6a3b      	ldr	r3, [r7, #32]
2ffc5d44:	1ad3      	subs	r3, r2, r3
2ffc5d46:	3b01      	subs	r3, #1
2ffc5d48:	3328      	adds	r3, #40	@ 0x28
2ffc5d4a:	443b      	add	r3, r7
2ffc5d4c:	7eba      	ldrb	r2, [r7, #26]
2ffc5d4e:	f803 2c1c 	strb.w	r2, [r3, #-28]
2ffc5d52:	6a3b      	ldr	r3, [r7, #32]
2ffc5d54:	3301      	adds	r3, #1
2ffc5d56:	623b      	str	r3, [r7, #32]
2ffc5d58:	6a7b      	ldr	r3, [r7, #36]	@ 0x24
2ffc5d5a:	0fda      	lsrs	r2, r3, #31
2ffc5d5c:	4413      	add	r3, r2
2ffc5d5e:	105b      	asrs	r3, r3, #1
2ffc5d60:	461a      	mov	r2, r3
2ffc5d62:	6a3b      	ldr	r3, [r7, #32]
2ffc5d64:	4293      	cmp	r3, r2
2ffc5d66:	dbd7      	blt.n	2ffc5d18 <_Z8printonei+0xa6>
2ffc5d68:	f107 030c 	add.w	r3, r7, #12
2ffc5d6c:	4618      	mov	r0, r3
2ffc5d6e:	f7ff ff6b 	bl	2ffc5c48 <_Z8printonePKc>
2ffc5d72:	3728      	adds	r7, #40	@ 0x28
2ffc5d74:	46bd      	mov	sp, r7
2ffc5d76:	bd80      	pop	{r7, pc}

2ffc5d78 <LL_USART_IsEnabled>:
2ffc5d78:	b480      	push	{r7}
2ffc5d7a:	b083      	sub	sp, #12
2ffc5d7c:	af00      	add	r7, sp, #0
2ffc5d7e:	6078      	str	r0, [r7, #4]
2ffc5d80:	687b      	ldr	r3, [r7, #4]
2ffc5d82:	681b      	ldr	r3, [r3, #0]
2ffc5d84:	f003 0301 	and.w	r3, r3, #1
2ffc5d88:	2b01      	cmp	r3, #1
2ffc5d8a:	d101      	bne.n	2ffc5d90 <LL_USART_IsEnabled+0x18>
2ffc5d8c:	2301      	movs	r3, #1
2ffc5d8e:	e000      	b.n	2ffc5d92 <LL_USART_IsEnabled+0x1a>
2ffc5d90:	2300      	movs	r3, #0
2ffc5d92:	4618      	mov	r0, r3
2ffc5d94:	370c      	adds	r7, #12
2ffc5d96:	46bd      	mov	sp, r7
2ffc5d98:	f85d 7b04 	ldr.w	r7, [sp], #4
2ffc5d9c:	4770      	bx	lr

2ffc5d9e <LL_USART_SetPrescaler>:
2ffc5d9e:	b480      	push	{r7}
2ffc5da0:	b083      	sub	sp, #12
2ffc5da2:	af00      	add	r7, sp, #0
2ffc5da4:	6078      	str	r0, [r7, #4]
2ffc5da6:	6039      	str	r1, [r7, #0]
2ffc5da8:	687b      	ldr	r3, [r7, #4]
2ffc5daa:	6adb      	ldr	r3, [r3, #44]	@ 0x2c
2ffc5dac:	f023 030f 	bic.w	r3, r3, #15
2ffc5db0:	683a      	ldr	r2, [r7, #0]
2ffc5db2:	b292      	uxth	r2, r2
2ffc5db4:	431a      	orrs	r2, r3
2ffc5db6:	687b      	ldr	r3, [r7, #4]
2ffc5db8:	62da      	str	r2, [r3, #44]	@ 0x2c
2ffc5dba:	bf00      	nop
2ffc5dbc:	370c      	adds	r7, #12
2ffc5dbe:	46bd      	mov	sp, r7
2ffc5dc0:	f85d 7b04 	ldr.w	r7, [sp], #4
2ffc5dc4:	4770      	bx	lr

2ffc5dc6 <LL_USART_SetStopBitsLength>:
2ffc5dc6:	b480      	push	{r7}
2ffc5dc8:	b083      	sub	sp, #12
2ffc5dca:	af00      	add	r7, sp, #0
2ffc5dcc:	6078      	str	r0, [r7, #4]
2ffc5dce:	6039      	str	r1, [r7, #0]
2ffc5dd0:	687b      	ldr	r3, [r7, #4]
2ffc5dd2:	685b      	ldr	r3, [r3, #4]
2ffc5dd4:	f423 5240 	bic.w	r2, r3, #12288	@ 0x3000
2ffc5dd8:	683b      	ldr	r3, [r7, #0]
2ffc5dda:	431a      	orrs	r2, r3
2ffc5ddc:	687b      	ldr	r3, [r7, #4]
2ffc5dde:	605a      	str	r2, [r3, #4]
2ffc5de0:	bf00      	nop
2ffc5de2:	370c      	adds	r7, #12
2ffc5de4:	46bd      	mov	sp, r7
2ffc5de6:	f85d 7b04 	ldr.w	r7, [sp], #4
2ffc5dea:	4770      	bx	lr

2ffc5dec <LL_USART_SetHWFlowCtrl>:
2ffc5dec:	b480      	push	{r7}
2ffc5dee:	b083      	sub	sp, #12
2ffc5df0:	af00      	add	r7, sp, #0
2ffc5df2:	6078      	str	r0, [r7, #4]
2ffc5df4:	6039      	str	r1, [r7, #0]
2ffc5df6:	687b      	ldr	r3, [r7, #4]
2ffc5df8:	689b      	ldr	r3, [r3, #8]
2ffc5dfa:	f423 7240 	bic.w	r2, r3, #768	@ 0x300
2ffc5dfe:	683b      	ldr	r3, [r7, #0]
2ffc5e00:	431a      	orrs	r2, r3
2ffc5e02:	687b      	ldr	r3, [r7, #4]
2ffc5e04:	609a      	str	r2, [r3, #8]
2ffc5e06:	bf00      	nop
2ffc5e08:	370c      	adds	r7, #12
2ffc5e0a:	46bd      	mov	sp, r7
2ffc5e0c:	f85d 7b04 	ldr.w	r7, [sp], #4
2ffc5e10:	4770      	bx	lr

2ffc5e12 <LL_USART_SetBaudRate>:
2ffc5e12:	b480      	push	{r7}
2ffc5e14:	b087      	sub	sp, #28
2ffc5e16:	af00      	add	r7, sp, #0
2ffc5e18:	60f8      	str	r0, [r7, #12]
2ffc5e1a:	60b9      	str	r1, [r7, #8]
2ffc5e1c:	607a      	str	r2, [r7, #4]
2ffc5e1e:	603b      	str	r3, [r7, #0]
2ffc5e20:	687b      	ldr	r3, [r7, #4]
2ffc5e22:	2b0b      	cmp	r3, #11
2ffc5e24:	d842      	bhi.n	2ffc5eac <LL_USART_SetBaudRate+0x9a>
2ffc5e26:	6a3b      	ldr	r3, [r7, #32]
2ffc5e28:	2b00      	cmp	r3, #0
2ffc5e2a:	d03f      	beq.n	2ffc5eac <LL_USART_SetBaudRate+0x9a>
2ffc5e2c:	683b      	ldr	r3, [r7, #0]
2ffc5e2e:	f5b3 4f00 	cmp.w	r3, #32768	@ 0x8000
2ffc5e32:	d125      	bne.n	2ffc5e80 <LL_USART_SetBaudRate+0x6e>
2ffc5e34:	687b      	ldr	r3, [r7, #4]
2ffc5e36:	b2db      	uxtb	r3, r3
2ffc5e38:	461a      	mov	r2, r3
2ffc5e3a:	f249 13ac 	movw	r3, #37292	@ 0x91ac
2ffc5e3e:	f6c2 73fc 	movt	r3, #12284	@ 0x2ffc
2ffc5e42:	f853 3022 	ldr.w	r3, [r3, r2, lsl #2]
2ffc5e46:	68ba      	ldr	r2, [r7, #8]
2ffc5e48:	fbb2 f3f3 	udiv	r3, r2, r3
2ffc5e4c:	005a      	lsls	r2, r3, #1
2ffc5e4e:	6a3b      	ldr	r3, [r7, #32]
2ffc5e50:	085b      	lsrs	r3, r3, #1
2ffc5e52:	441a      	add	r2, r3
2ffc5e54:	6a3b      	ldr	r3, [r7, #32]
2ffc5e56:	fbb2 f3f3 	udiv	r3, r2, r3
2ffc5e5a:	b29b      	uxth	r3, r3
2ffc5e5c:	617b      	str	r3, [r7, #20]
2ffc5e5e:	697a      	ldr	r2, [r7, #20]
2ffc5e60:	f64f 73f0 	movw	r3, #65520	@ 0xfff0
2ffc5e64:	4013      	ands	r3, r2
2ffc5e66:	613b      	str	r3, [r7, #16]
2ffc5e68:	697b      	ldr	r3, [r7, #20]
2ffc5e6a:	085b      	lsrs	r3, r3, #1
2ffc5e6c:	b29b      	uxth	r3, r3
2ffc5e6e:	f003 0307 	and.w	r3, r3, #7
2ffc5e72:	693a      	ldr	r2, [r7, #16]
2ffc5e74:	4313      	orrs	r3, r2
2ffc5e76:	613b      	str	r3, [r7, #16]
2ffc5e78:	68fb      	ldr	r3, [r7, #12]
2ffc5e7a:	693a      	ldr	r2, [r7, #16]
2ffc5e7c:	60da      	str	r2, [r3, #12]
2ffc5e7e:	e015      	b.n	2ffc5eac <LL_USART_SetBaudRate+0x9a>
2ffc5e80:	687b      	ldr	r3, [r7, #4]
2ffc5e82:	b2db      	uxtb	r3, r3
2ffc5e84:	461a      	mov	r2, r3
2ffc5e86:	f249 13ac 	movw	r3, #37292	@ 0x91ac
2ffc5e8a:	f6c2 73fc 	movt	r3, #12284	@ 0x2ffc
2ffc5e8e:	f853 3022 	ldr.w	r3, [r3, r2, lsl #2]
2ffc5e92:	68ba      	ldr	r2, [r7, #8]
2ffc5e94:	fbb2 f2f3 	udiv	r2, r2, r3
2ffc5e98:	6a3b      	ldr	r3, [r7, #32]
2ffc5e9a:	085b      	lsrs	r3, r3, #1
2ffc5e9c:	441a      	add	r2, r3
2ffc5e9e:	6a3b      	ldr	r3, [r7, #32]
2ffc5ea0:	fbb2 f3f3 	udiv	r3, r2, r3
2ffc5ea4:	b29b      	uxth	r3, r3
2ffc5ea6:	461a      	mov	r2, r3
2ffc5ea8:	68fb      	ldr	r3, [r7, #12]
2ffc5eaa:	60da      	str	r2, [r3, #12]
2ffc5eac:	bf00      	nop
2ffc5eae:	371c      	adds	r7, #28
2ffc5eb0:	46bd      	mov	sp, r7
2ffc5eb2:	f85d 7b04 	ldr.w	r7, [sp], #4
2ffc5eb6:	4770      	bx	lr

2ffc5eb8 <LL_USART_Init>:
2ffc5eb8:	b580      	push	{r7, lr}
2ffc5eba:	b086      	sub	sp, #24
2ffc5ebc:	af02      	add	r7, sp, #8
2ffc5ebe:	6078      	str	r0, [r7, #4]
2ffc5ec0:	6039      	str	r1, [r7, #0]
2ffc5ec2:	2300      	movs	r3, #0
2ffc5ec4:	73fb      	strb	r3, [r7, #15]
2ffc5ec6:	2300      	movs	r3, #0
2ffc5ec8:	60bb      	str	r3, [r7, #8]
2ffc5eca:	6878      	ldr	r0, [r7, #4]
2ffc5ecc:	f7ff ff54 	bl	2ffc5d78 <LL_USART_IsEnabled>
2ffc5ed0:	4603      	mov	r3, r0
2ffc5ed2:	2b00      	cmp	r3, #0
2ffc5ed4:	f040 80af 	bne.w	2ffc6036 <LL_USART_Init+0x17e>
2ffc5ed8:	687b      	ldr	r3, [r7, #4]
2ffc5eda:	681a      	ldr	r2, [r3, #0]
2ffc5edc:	f646 13f3 	movw	r3, #27123	@ 0x69f3
2ffc5ee0:	f6ce 73ff 	movt	r3, #61439	@ 0xefff
2ffc5ee4:	4013      	ands	r3, r2
2ffc5ee6:	683a      	ldr	r2, [r7, #0]
2ffc5ee8:	6891      	ldr	r1, [r2, #8]
2ffc5eea:	683a      	ldr	r2, [r7, #0]
2ffc5eec:	6912      	ldr	r2, [r2, #16]
2ffc5eee:	4311      	orrs	r1, r2
2ffc5ef0:	683a      	ldr	r2, [r7, #0]
2ffc5ef2:	6952      	ldr	r2, [r2, #20]
2ffc5ef4:	4311      	orrs	r1, r2
2ffc5ef6:	683a      	ldr	r2, [r7, #0]
2ffc5ef8:	69d2      	ldr	r2, [r2, #28]
2ffc5efa:	430a      	orrs	r2, r1
2ffc5efc:	431a      	orrs	r2, r3
2ffc5efe:	687b      	ldr	r3, [r7, #4]
2ffc5f00:	601a      	str	r2, [r3, #0]
2ffc5f02:	683b      	ldr	r3, [r7, #0]
2ffc5f04:	68db      	ldr	r3, [r3, #12]
2ffc5f06:	4619      	mov	r1, r3
2ffc5f08:	6878      	ldr	r0, [r7, #4]
2ffc5f0a:	f7ff ff5c 	bl	2ffc5dc6 <LL_USART_SetStopBitsLength>
2ffc5f0e:	683b      	ldr	r3, [r7, #0]
2ffc5f10:	699b      	ldr	r3, [r3, #24]
2ffc5f12:	4619      	mov	r1, r3
2ffc5f14:	6878      	ldr	r0, [r7, #4]
2ffc5f16:	f7ff ff69 	bl	2ffc5dec <LL_USART_SetHWFlowCtrl>
2ffc5f1a:	687b      	ldr	r3, [r7, #4]
2ffc5f1c:	f1b3 4fb8 	cmp.w	r3, #1543503872	@ 0x5c000000
2ffc5f20:	d107      	bne.n	2ffc5f32 <LL_USART_Init+0x7a>
2ffc5f22:	f44f 60e0 	mov.w	r0, #1792	@ 0x700
2ffc5f26:	f2c0 0008 	movt	r0, #8
2ffc5f2a:	f000 fd6d 	bl	2ffc6a08 <LL_RCC_GetUARTClockFreq>
2ffc5f2e:	60b8      	str	r0, [r7, #8]
2ffc5f30:	e066      	b.n	2ffc6000 <LL_USART_Init+0x148>
2ffc5f32:	687a      	ldr	r2, [r7, #4]
2ffc5f34:	f44f 4360 	mov.w	r3, #57344	@ 0xe000
2ffc5f38:	f2c4 0300 	movt	r3, #16384	@ 0x4000
2ffc5f3c:	429a      	cmp	r2, r3
2ffc5f3e:	d107      	bne.n	2ffc5f50 <LL_USART_Init+0x98>
2ffc5f40:	f44f 60e0 	mov.w	r0, #1792	@ 0x700
2ffc5f44:	f6c0 0028 	movt	r0, #2088	@ 0x828
2ffc5f48:	f000 fd5e 	bl	2ffc6a08 <LL_RCC_GetUARTClockFreq>
2ffc5f4c:	60b8      	str	r0, [r7, #8]
2ffc5f4e:	e057      	b.n	2ffc6000 <LL_USART_Init+0x148>
2ffc5f50:	687a      	ldr	r2, [r7, #4]
2ffc5f52:	f44f 4370 	mov.w	r3, #61440	@ 0xf000
2ffc5f56:	f2c4 0300 	movt	r3, #16384	@ 0x4000
2ffc5f5a:	429a      	cmp	r2, r3
2ffc5f5c:	d107      	bne.n	2ffc5f6e <LL_USART_Init+0xb6>
2ffc5f5e:	f44f 60e0 	mov.w	r0, #1792	@ 0x700
2ffc5f62:	f6c0 002c 	movt	r0, #2092	@ 0x82c
2ffc5f66:	f000 fd4f 	bl	2ffc6a08 <LL_RCC_GetUARTClockFreq>
2ffc5f6a:	60b8      	str	r0, [r7, #8]
2ffc5f6c:	e048      	b.n	2ffc6000 <LL_USART_Init+0x148>
2ffc5f6e:	687a      	ldr	r2, [r7, #4]
2ffc5f70:	2300      	movs	r3, #0
2ffc5f72:	f2c4 0301 	movt	r3, #16385	@ 0x4001
2ffc5f76:	429a      	cmp	r2, r3
2ffc5f78:	d107      	bne.n	2ffc5f8a <LL_USART_Init+0xd2>
2ffc5f7a:	f44f 60e0 	mov.w	r0, #1792	@ 0x700
2ffc5f7e:	f6c0 0028 	movt	r0, #2088	@ 0x828
2ffc5f82:	f000 fd41 	bl	2ffc6a08 <LL_RCC_GetUARTClockFreq>
2ffc5f86:	60b8      	str	r0, [r7, #8]
2ffc5f88:	e03a      	b.n	2ffc6000 <LL_USART_Init+0x148>
2ffc5f8a:	687a      	ldr	r2, [r7, #4]
2ffc5f8c:	f44f 5380 	mov.w	r3, #4096	@ 0x1000
2ffc5f90:	f2c4 0301 	movt	r3, #16385	@ 0x4001
2ffc5f94:	429a      	cmp	r2, r3
2ffc5f96:	d107      	bne.n	2ffc5fa8 <LL_USART_Init+0xf0>
2ffc5f98:	f44f 60e0 	mov.w	r0, #1792	@ 0x700
2ffc5f9c:	f6c0 002c 	movt	r0, #2092	@ 0x82c
2ffc5fa0:	f000 fd32 	bl	2ffc6a08 <LL_RCC_GetUARTClockFreq>
2ffc5fa4:	60b8      	str	r0, [r7, #8]
2ffc5fa6:	e02b      	b.n	2ffc6000 <LL_USART_Init+0x148>
2ffc5fa8:	687a      	ldr	r2, [r7, #4]
2ffc5faa:	f44f 5340 	mov.w	r3, #12288	@ 0x3000
2ffc5fae:	f2c4 4300 	movt	r3, #17408	@ 0x4400
2ffc5fb2:	429a      	cmp	r2, r3
2ffc5fb4:	d107      	bne.n	2ffc5fc6 <LL_USART_Init+0x10e>
2ffc5fb6:	f44f 60e0 	mov.w	r0, #1792	@ 0x700
2ffc5fba:	f6c0 0024 	movt	r0, #2084	@ 0x824
2ffc5fbe:	f000 fd23 	bl	2ffc6a08 <LL_RCC_GetUARTClockFreq>
2ffc5fc2:	60b8      	str	r0, [r7, #8]
2ffc5fc4:	e01c      	b.n	2ffc6000 <LL_USART_Init+0x148>
2ffc5fc6:	687a      	ldr	r2, [r7, #4]
2ffc5fc8:	f44f 4300 	mov.w	r3, #32768	@ 0x8000
2ffc5fcc:	f2c4 0301 	movt	r3, #16385	@ 0x4001
2ffc5fd0:	429a      	cmp	r2, r3
2ffc5fd2:	d107      	bne.n	2ffc5fe4 <LL_USART_Init+0x12c>
2ffc5fd4:	f44f 60e0 	mov.w	r0, #1792	@ 0x700
2ffc5fd8:	f6c0 0030 	movt	r0, #2096	@ 0x830
2ffc5fdc:	f000 fd14 	bl	2ffc6a08 <LL_RCC_GetUARTClockFreq>
2ffc5fe0:	60b8      	str	r0, [r7, #8]
2ffc5fe2:	e00d      	b.n	2ffc6000 <LL_USART_Init+0x148>
2ffc5fe4:	687a      	ldr	r2, [r7, #4]
2ffc5fe6:	f44f 4310 	mov.w	r3, #36864	@ 0x9000
2ffc5fea:	f2c4 0301 	movt	r3, #16385	@ 0x4001
2ffc5fee:	429a      	cmp	r2, r3
2ffc5ff0:	d106      	bne.n	2ffc6000 <LL_USART_Init+0x148>
2ffc5ff2:	f44f 60e0 	mov.w	r0, #1792	@ 0x700
2ffc5ff6:	f6c0 0030 	movt	r0, #2096	@ 0x830
2ffc5ffa:	f000 fd05 	bl	2ffc6a08 <LL_RCC_GetUARTClockFreq>
2ffc5ffe:	60b8      	str	r0, [r7, #8]
2ffc6000:	68bb      	ldr	r3, [r7, #8]
2ffc6002:	2b00      	cmp	r3, #0
2ffc6004:	d011      	beq.n	2ffc602a <LL_USART_Init+0x172>
2ffc6006:	683b      	ldr	r3, [r7, #0]
2ffc6008:	685b      	ldr	r3, [r3, #4]
2ffc600a:	2b00      	cmp	r3, #0
2ffc600c:	d00d      	beq.n	2ffc602a <LL_USART_Init+0x172>
2ffc600e:	2301      	movs	r3, #1
2ffc6010:	73fb      	strb	r3, [r7, #15]
2ffc6012:	683b      	ldr	r3, [r7, #0]
2ffc6014:	681a      	ldr	r2, [r3, #0]
2ffc6016:	683b      	ldr	r3, [r7, #0]
2ffc6018:	69d9      	ldr	r1, [r3, #28]
2ffc601a:	683b      	ldr	r3, [r7, #0]
2ffc601c:	685b      	ldr	r3, [r3, #4]
2ffc601e:	9300      	str	r3, [sp, #0]
2ffc6020:	460b      	mov	r3, r1
2ffc6022:	68b9      	ldr	r1, [r7, #8]
2ffc6024:	6878      	ldr	r0, [r7, #4]
2ffc6026:	f7ff fef4 	bl	2ffc5e12 <LL_USART_SetBaudRate>
2ffc602a:	683b      	ldr	r3, [r7, #0]
2ffc602c:	681b      	ldr	r3, [r3, #0]
2ffc602e:	4619      	mov	r1, r3
2ffc6030:	6878      	ldr	r0, [r7, #4]
2ffc6032:	f7ff feb4 	bl	2ffc5d9e <LL_USART_SetPrescaler>
2ffc6036:	7bfb      	ldrb	r3, [r7, #15]
2ffc6038:	4618      	mov	r0, r3
2ffc603a:	3710      	adds	r7, #16
2ffc603c:	46bd      	mov	sp, r7
2ffc603e:	bd80      	pop	{r7, pc}

2ffc6040 <LL_RCC_HSE_IsReady>:
2ffc6040:	b480      	push	{r7}
2ffc6042:	af00      	add	r7, sp, #0
2ffc6044:	f04f 43a0 	mov.w	r3, #1342177280	@ 0x50000000
2ffc6048:	f8d3 3808 	ldr.w	r3, [r3, #2056]	@ 0x808
2ffc604c:	f403 7380 	and.w	r3, r3, #256	@ 0x100
2ffc6050:	f5b3 7f80 	cmp.w	r3, #256	@ 0x100
2ffc6054:	d101      	bne.n	2ffc605a <LL_RCC_HSE_IsReady+0x1a>
2ffc6056:	2301      	movs	r3, #1
2ffc6058:	e000      	b.n	2ffc605c <LL_RCC_HSE_IsReady+0x1c>
2ffc605a:	2300      	movs	r3, #0
2ffc605c:	4618      	mov	r0, r3
2ffc605e:	46bd      	mov	sp, r7
2ffc6060:	f85d 7b04 	ldr.w	r7, [sp], #4
2ffc6064:	4770      	bx	lr

2ffc6066 <LL_RCC_HSI_IsReady>:
2ffc6066:	b480      	push	{r7}
2ffc6068:	af00      	add	r7, sp, #0
2ffc606a:	f04f 43a0 	mov.w	r3, #1342177280	@ 0x50000000
2ffc606e:	f8d3 3808 	ldr.w	r3, [r3, #2056]	@ 0x808
2ffc6072:	f003 0301 	and.w	r3, r3, #1
2ffc6076:	2b01      	cmp	r3, #1
2ffc6078:	d101      	bne.n	2ffc607e <LL_RCC_HSI_IsReady+0x18>
2ffc607a:	2301      	movs	r3, #1
2ffc607c:	e000      	b.n	2ffc6080 <LL_RCC_HSI_IsReady+0x1a>
2ffc607e:	2300      	movs	r3, #0
2ffc6080:	4618      	mov	r0, r3
2ffc6082:	46bd      	mov	sp, r7
2ffc6084:	f85d 7b04 	ldr.w	r7, [sp], #4
2ffc6088:	4770      	bx	lr

2ffc608a <LL_RCC_HSI_GetDivider>:
2ffc608a:	b480      	push	{r7}
2ffc608c:	af00      	add	r7, sp, #0
2ffc608e:	f04f 43a0 	mov.w	r3, #1342177280	@ 0x50000000
2ffc6092:	699b      	ldr	r3, [r3, #24]
2ffc6094:	f003 0303 	and.w	r3, r3, #3
2ffc6098:	4618      	mov	r0, r3
2ffc609a:	46bd      	mov	sp, r7
2ffc609c:	f85d 7b04 	ldr.w	r7, [sp], #4
2ffc60a0:	4770      	bx	lr

2ffc60a2 <LL_RCC_CSI_IsReady>:
2ffc60a2:	b480      	push	{r7}
2ffc60a4:	af00      	add	r7, sp, #0
2ffc60a6:	f04f 43a0 	mov.w	r3, #1342177280	@ 0x50000000
2ffc60aa:	f8d3 3808 	ldr.w	r3, [r3, #2056]	@ 0x808
2ffc60ae:	f003 0310 	and.w	r3, r3, #16
2ffc60b2:	2b10      	cmp	r3, #16
2ffc60b4:	d101      	bne.n	2ffc60ba <LL_RCC_CSI_IsReady+0x18>
2ffc60b6:	2301      	movs	r3, #1
2ffc60b8:	e000      	b.n	2ffc60bc <LL_RCC_CSI_IsReady+0x1a>
2ffc60ba:	2300      	movs	r3, #0
2ffc60bc:	4618      	mov	r0, r3
2ffc60be:	46bd      	mov	sp, r7
2ffc60c0:	f85d 7b04 	ldr.w	r7, [sp], #4
2ffc60c4:	4770      	bx	lr

2ffc60c6 <LL_RCC_GetAXISSClkSource>:
2ffc60c6:	b480      	push	{r7}
2ffc60c8:	af00      	add	r7, sp, #0
2ffc60ca:	f04f 43a0 	mov.w	r3, #1342177280	@ 0x50000000
2ffc60ce:	6a5b      	ldr	r3, [r3, #36]	@ 0x24
2ffc60d0:	f003 0307 	and.w	r3, r3, #7
2ffc60d4:	4618      	mov	r0, r3
2ffc60d6:	46bd      	mov	sp, r7
2ffc60d8:	f85d 7b04 	ldr.w	r7, [sp], #4
2ffc60dc:	4770      	bx	lr

2ffc60de <LL_RCC_GetMCUSSClkSource>:
2ffc60de:	b480      	push	{r7}
2ffc60e0:	af00      	add	r7, sp, #0
2ffc60e2:	f04f 43a0 	mov.w	r3, #1342177280	@ 0x50000000
2ffc60e6:	6c9b      	ldr	r3, [r3, #72]	@ 0x48
2ffc60e8:	f003 0303 	and.w	r3, r3, #3
2ffc60ec:	4618      	mov	r0, r3
2ffc60ee:	46bd      	mov	sp, r7
2ffc60f0:	f85d 7b04 	ldr.w	r7, [sp], #4
2ffc60f4:	4770      	bx	lr

2ffc60f6 <LL_RCC_GetACLKPrescaler>:
2ffc60f6:	b480      	push	{r7}
2ffc60f8:	af00      	add	r7, sp, #0
2ffc60fa:	f04f 43a0 	mov.w	r3, #1342177280	@ 0x50000000
2ffc60fe:	6b1b      	ldr	r3, [r3, #48]	@ 0x30
2ffc6100:	f003 0307 	and.w	r3, r3, #7
2ffc6104:	4618      	mov	r0, r3
2ffc6106:	46bd      	mov	sp, r7
2ffc6108:	f85d 7b04 	ldr.w	r7, [sp], #4
2ffc610c:	4770      	bx	lr

2ffc610e <LL_RCC_GetAPB5Prescaler>:
2ffc610e:	b480      	push	{r7}
2ffc6110:	af00      	add	r7, sp, #0
2ffc6112:	f04f 43a0 	mov.w	r3, #1342177280	@ 0x50000000
2ffc6116:	6c1b      	ldr	r3, [r3, #64]	@ 0x40
2ffc6118:	f003 0307 	and.w	r3, r3, #7
2ffc611c:	4618      	mov	r0, r3
2ffc611e:	46bd      	mov	sp, r7
2ffc6120:	f85d 7b04 	ldr.w	r7, [sp], #4
2ffc6124:	4770      	bx	lr

2ffc6126 <LL_RCC_GetMLHCLKPrescaler>:
2ffc6126:	b480      	push	{r7}
2ffc6128:	af00      	add	r7, sp, #0
2ffc612a:	f04f 43a0 	mov.w	r3, #1342177280	@ 0x50000000
2ffc612e:	f8d3 3830 	ldr.w	r3, [r3, #2096]	@ 0x830
2ffc6132:	f003 030f 	and.w	r3, r3, #15
2ffc6136:	4618      	mov	r0, r3
2ffc6138:	46bd      	mov	sp, r7
2ffc613a:	f85d 7b04 	ldr.w	r7, [sp], #4
2ffc613e:	4770      	bx	lr

2ffc6140 <LL_RCC_GetAPB1Prescaler>:
2ffc6140:	b480      	push	{r7}
2ffc6142:	af00      	add	r7, sp, #0
2ffc6144:	f04f 43a0 	mov.w	r3, #1342177280	@ 0x50000000
2ffc6148:	f8d3 3834 	ldr.w	r3, [r3, #2100]	@ 0x834
2ffc614c:	f003 0307 	and.w	r3, r3, #7
2ffc6150:	4618      	mov	r0, r3
2ffc6152:	46bd      	mov	sp, r7
2ffc6154:	f85d 7b04 	ldr.w	r7, [sp], #4
2ffc6158:	4770      	bx	lr

2ffc615a <LL_RCC_GetAPB2Prescaler>:
2ffc615a:	b480      	push	{r7}
2ffc615c:	af00      	add	r7, sp, #0
2ffc615e:	f04f 43a0 	mov.w	r3, #1342177280	@ 0x50000000
2ffc6162:	f8d3 3838 	ldr.w	r3, [r3, #2104]	@ 0x838
2ffc6166:	f003 0307 	and.w	r3, r3, #7
2ffc616a:	4618      	mov	r0, r3
2ffc616c:	46bd      	mov	sp, r7
2ffc616e:	f85d 7b04 	ldr.w	r7, [sp], #4
2ffc6172:	4770      	bx	lr

2ffc6174 <LL_RCC_GetClockSource>:
2ffc6174:	b480      	push	{r7}
2ffc6176:	b085      	sub	sp, #20
2ffc6178:	af00      	add	r7, sp, #0
2ffc617a:	6078      	str	r0, [r7, #4]
2ffc617c:	687b      	ldr	r3, [r7, #4]
2ffc617e:	0c1b      	lsrs	r3, r3, #16
2ffc6180:	f3c3 030b 	ubfx	r3, r3, #0, #12
2ffc6184:	f103 43a0 	add.w	r3, r3, #1342177280	@ 0x50000000
2ffc6188:	33c0      	adds	r3, #192	@ 0xc0
2ffc618a:	60fb      	str	r3, [r7, #12]
2ffc618c:	68fb      	ldr	r3, [r7, #12]
2ffc618e:	681a      	ldr	r2, [r3, #0]
2ffc6190:	687b      	ldr	r3, [r7, #4]
2ffc6192:	0a1b      	lsrs	r3, r3, #8
2ffc6194:	4013      	ands	r3, r2
2ffc6196:	b2da      	uxtb	r2, r3
2ffc6198:	687b      	ldr	r3, [r7, #4]
2ffc619a:	4313      	orrs	r3, r2
2ffc619c:	4618      	mov	r0, r3
2ffc619e:	3714      	adds	r7, #20
2ffc61a0:	46bd      	mov	sp, r7
2ffc61a2:	f85d 7b04 	ldr.w	r7, [sp], #4
2ffc61a6:	4770      	bx	lr

2ffc61a8 <LL_RCC_GetUARTClockSource>:
2ffc61a8:	b580      	push	{r7, lr}
2ffc61aa:	b082      	sub	sp, #8
2ffc61ac:	af00      	add	r7, sp, #0
2ffc61ae:	6078      	str	r0, [r7, #4]
2ffc61b0:	6878      	ldr	r0, [r7, #4]
2ffc61b2:	f7ff ffdf 	bl	2ffc6174 <LL_RCC_GetClockSource>
2ffc61b6:	4603      	mov	r3, r0
2ffc61b8:	4618      	mov	r0, r3
2ffc61ba:	3708      	adds	r7, #8
2ffc61bc:	46bd      	mov	sp, r7
2ffc61be:	bd80      	pop	{r7, pc}

2ffc61c0 <LL_RCC_PLL12_GetSource>:
2ffc61c0:	b480      	push	{r7}
2ffc61c2:	af00      	add	r7, sp, #0
2ffc61c4:	f04f 43a0 	mov.w	r3, #1342177280	@ 0x50000000
2ffc61c8:	6a9b      	ldr	r3, [r3, #40]	@ 0x28
2ffc61ca:	f003 0303 	and.w	r3, r3, #3
2ffc61ce:	4618      	mov	r0, r3
2ffc61d0:	46bd      	mov	sp, r7
2ffc61d2:	f85d 7b04 	ldr.w	r7, [sp], #4
2ffc61d6:	4770      	bx	lr

2ffc61d8 <LL_RCC_PLL2P_IsEnabled>:
2ffc61d8:	b480      	push	{r7}
2ffc61da:	af00      	add	r7, sp, #0
2ffc61dc:	f04f 43a0 	mov.w	r3, #1342177280	@ 0x50000000
2ffc61e0:	f8d3 3094 	ldr.w	r3, [r3, #148]	@ 0x94
2ffc61e4:	f003 0310 	and.w	r3, r3, #16
2ffc61e8:	2b10      	cmp	r3, #16
2ffc61ea:	d101      	bne.n	2ffc61f0 <LL_RCC_PLL2P_IsEnabled+0x18>
2ffc61ec:	2301      	movs	r3, #1
2ffc61ee:	e000      	b.n	2ffc61f2 <LL_RCC_PLL2P_IsEnabled+0x1a>
2ffc61f0:	2300      	movs	r3, #0
2ffc61f2:	4618      	mov	r0, r3
2ffc61f4:	46bd      	mov	sp, r7
2ffc61f6:	f85d 7b04 	ldr.w	r7, [sp], #4
2ffc61fa:	4770      	bx	lr

2ffc61fc <LL_RCC_PLL2Q_IsEnabled>:
2ffc61fc:	b480      	push	{r7}
2ffc61fe:	af00      	add	r7, sp, #0
2ffc6200:	f04f 43a0 	mov.w	r3, #1342177280	@ 0x50000000
2ffc6204:	f8d3 3094 	ldr.w	r3, [r3, #148]	@ 0x94
2ffc6208:	f003 0320 	and.w	r3, r3, #32
2ffc620c:	2b20      	cmp	r3, #32
2ffc620e:	d101      	bne.n	2ffc6214 <LL_RCC_PLL2Q_IsEnabled+0x18>
2ffc6210:	2301      	movs	r3, #1
2ffc6212:	e000      	b.n	2ffc6216 <LL_RCC_PLL2Q_IsEnabled+0x1a>
2ffc6214:	2300      	movs	r3, #0
2ffc6216:	4618      	mov	r0, r3
2ffc6218:	46bd      	mov	sp, r7
2ffc621a:	f85d 7b04 	ldr.w	r7, [sp], #4
2ffc621e:	4770      	bx	lr

2ffc6220 <LL_RCC_PLL2R_IsEnabled>:
2ffc6220:	b480      	push	{r7}
2ffc6222:	af00      	add	r7, sp, #0
2ffc6224:	f04f 43a0 	mov.w	r3, #1342177280	@ 0x50000000
2ffc6228:	f8d3 3094 	ldr.w	r3, [r3, #148]	@ 0x94
2ffc622c:	f003 0340 	and.w	r3, r3, #64	@ 0x40
2ffc6230:	2b40      	cmp	r3, #64	@ 0x40
2ffc6232:	d101      	bne.n	2ffc6238 <LL_RCC_PLL2R_IsEnabled+0x18>
2ffc6234:	2301      	movs	r3, #1
2ffc6236:	e000      	b.n	2ffc623a <LL_RCC_PLL2R_IsEnabled+0x1a>
2ffc6238:	2300      	movs	r3, #0
2ffc623a:	4618      	mov	r0, r3
2ffc623c:	46bd      	mov	sp, r7
2ffc623e:	f85d 7b04 	ldr.w	r7, [sp], #4
2ffc6242:	4770      	bx	lr

2ffc6244 <LL_RCC_PLL2FRACV_IsEnabled>:
2ffc6244:	b480      	push	{r7}
2ffc6246:	af00      	add	r7, sp, #0
2ffc6248:	f04f 43a0 	mov.w	r3, #1342177280	@ 0x50000000
2ffc624c:	f8d3 30a0 	ldr.w	r3, [r3, #160]	@ 0xa0
2ffc6250:	f403 3380 	and.w	r3, r3, #65536	@ 0x10000
2ffc6254:	f5b3 3f80 	cmp.w	r3, #65536	@ 0x10000
2ffc6258:	d101      	bne.n	2ffc625e <LL_RCC_PLL2FRACV_IsEnabled+0x1a>
2ffc625a:	2301      	movs	r3, #1
2ffc625c:	e000      	b.n	2ffc6260 <LL_RCC_PLL2FRACV_IsEnabled+0x1c>
2ffc625e:	2300      	movs	r3, #0
2ffc6260:	4618      	mov	r0, r3
2ffc6262:	46bd      	mov	sp, r7
2ffc6264:	f85d 7b04 	ldr.w	r7, [sp], #4
2ffc6268:	4770      	bx	lr

2ffc626a <LL_RCC_PLL2_GetN>:
2ffc626a:	b480      	push	{r7}
2ffc626c:	af00      	add	r7, sp, #0
2ffc626e:	f04f 43a0 	mov.w	r3, #1342177280	@ 0x50000000
2ffc6272:	f8d3 3098 	ldr.w	r3, [r3, #152]	@ 0x98
2ffc6276:	f3c3 0308 	ubfx	r3, r3, #0, #9
2ffc627a:	3301      	adds	r3, #1
2ffc627c:	4618      	mov	r0, r3
2ffc627e:	46bd      	mov	sp, r7
2ffc6280:	f85d 7b04 	ldr.w	r7, [sp], #4
2ffc6284:	4770      	bx	lr

2ffc6286 <LL_RCC_PLL2_GetM>:
2ffc6286:	b480      	push	{r7}
2ffc6288:	af00      	add	r7, sp, #0
2ffc628a:	f04f 43a0 	mov.w	r3, #1342177280	@ 0x50000000
2ffc628e:	f8d3 3098 	ldr.w	r3, [r3, #152]	@ 0x98
2ffc6292:	0c1b      	lsrs	r3, r3, #16
2ffc6294:	f003 033f 	and.w	r3, r3, #63	@ 0x3f
2ffc6298:	3301      	adds	r3, #1
2ffc629a:	4618      	mov	r0, r3
2ffc629c:	46bd      	mov	sp, r7
2ffc629e:	f85d 7b04 	ldr.w	r7, [sp], #4
2ffc62a2:	4770      	bx	lr

2ffc62a4 <LL_RCC_PLL2_GetP>:
2ffc62a4:	b480      	push	{r7}
2ffc62a6:	af00      	add	r7, sp, #0
2ffc62a8:	f04f 43a0 	mov.w	r3, #1342177280	@ 0x50000000
2ffc62ac:	f8d3 309c 	ldr.w	r3, [r3, #156]	@ 0x9c
2ffc62b0:	f003 037f 	and.w	r3, r3, #127	@ 0x7f
2ffc62b4:	3301      	adds	r3, #1
2ffc62b6:	4618      	mov	r0, r3
2ffc62b8:	46bd      	mov	sp, r7
2ffc62ba:	f85d 7b04 	ldr.w	r7, [sp], #4
2ffc62be:	4770      	bx	lr

2ffc62c0 <LL_RCC_PLL2_GetQ>:
2ffc62c0:	b480      	push	{r7}
2ffc62c2:	af00      	add	r7, sp, #0
2ffc62c4:	f04f 43a0 	mov.w	r3, #1342177280	@ 0x50000000
2ffc62c8:	f8d3 309c 	ldr.w	r3, [r3, #156]	@ 0x9c
2ffc62cc:	0a1b      	lsrs	r3, r3, #8
2ffc62ce:	f003 037f 	and.w	r3, r3, #127	@ 0x7f
2ffc62d2:	3301      	adds	r3, #1
2ffc62d4:	4618      	mov	r0, r3
2ffc62d6:	46bd      	mov	sp, r7
2ffc62d8:	f85d 7b04 	ldr.w	r7, [sp], #4
2ffc62dc:	4770      	bx	lr

2ffc62de <LL_RCC_PLL2_GetR>:
2ffc62de:	b480      	push	{r7}
2ffc62e0:	af00      	add	r7, sp, #0
2ffc62e2:	f04f 43a0 	mov.w	r3, #1342177280	@ 0x50000000
2ffc62e6:	f8d3 309c 	ldr.w	r3, [r3, #156]	@ 0x9c
2ffc62ea:	0c1b      	lsrs	r3, r3, #16
2ffc62ec:	f003 037f 	and.w	r3, r3, #127	@ 0x7f
2ffc62f0:	3301      	adds	r3, #1
2ffc62f2:	4618      	mov	r0, r3
2ffc62f4:	46bd      	mov	sp, r7
2ffc62f6:	f85d 7b04 	ldr.w	r7, [sp], #4
2ffc62fa:	4770      	bx	lr

2ffc62fc <LL_RCC_PLL2_GetFRACV>:
2ffc62fc:	b480      	push	{r7}
2ffc62fe:	af00      	add	r7, sp, #0
2ffc6300:	f04f 43a0 	mov.w	r3, #1342177280	@ 0x50000000
2ffc6304:	f8d3 30a0 	ldr.w	r3, [r3, #160]	@ 0xa0
2ffc6308:	08db      	lsrs	r3, r3, #3
2ffc630a:	f3c3 030c 	ubfx	r3, r3, #0, #13
2ffc630e:	4618      	mov	r0, r3
2ffc6310:	46bd      	mov	sp, r7
2ffc6312:	f85d 7b04 	ldr.w	r7, [sp], #4
2ffc6316:	4770      	bx	lr

2ffc6318 <LL_RCC_PLL3_GetSource>:
2ffc6318:	b480      	push	{r7}
2ffc631a:	af00      	add	r7, sp, #0
2ffc631c:	f04f 43a0 	mov.w	r3, #1342177280	@ 0x50000000
2ffc6320:	f8d3 3820 	ldr.w	r3, [r3, #2080]	@ 0x820
2ffc6324:	f003 0303 	and.w	r3, r3, #3
2ffc6328:	4618      	mov	r0, r3
2ffc632a:	46bd      	mov	sp, r7
2ffc632c:	f85d 7b04 	ldr.w	r7, [sp], #4
2ffc6330:	4770      	bx	lr

2ffc6332 <LL_RCC_PLL3_IsReady>:
2ffc6332:	b480      	push	{r7}
2ffc6334:	af00      	add	r7, sp, #0
2ffc6336:	f04f 43a0 	mov.w	r3, #1342177280	@ 0x50000000
2ffc633a:	f8d3 3880 	ldr.w	r3, [r3, #2176]	@ 0x880
2ffc633e:	f003 0302 	and.w	r3, r3, #2
2ffc6342:	2b02      	cmp	r3, #2
2ffc6344:	d101      	bne.n	2ffc634a <LL_RCC_PLL3_IsReady+0x18>
2ffc6346:	2301      	movs	r3, #1
2ffc6348:	e000      	b.n	2ffc634c <LL_RCC_PLL3_IsReady+0x1a>
2ffc634a:	2300      	movs	r3, #0
2ffc634c:	4618      	mov	r0, r3
2ffc634e:	46bd      	mov	sp, r7
2ffc6350:	f85d 7b04 	ldr.w	r7, [sp], #4
2ffc6354:	4770      	bx	lr

2ffc6356 <LL_RCC_PLL3P_IsEnabled>:
2ffc6356:	b480      	push	{r7}
2ffc6358:	af00      	add	r7, sp, #0
2ffc635a:	f04f 43a0 	mov.w	r3, #1342177280	@ 0x50000000
2ffc635e:	f8d3 3880 	ldr.w	r3, [r3, #2176]	@ 0x880
2ffc6362:	f003 0310 	and.w	r3, r3, #16
2ffc6366:	2b10      	cmp	r3, #16
2ffc6368:	d101      	bne.n	2ffc636e <LL_RCC_PLL3P_IsEnabled+0x18>
2ffc636a:	2301      	movs	r3, #1
2ffc636c:	e000      	b.n	2ffc6370 <LL_RCC_PLL3P_IsEnabled+0x1a>
2ffc636e:	2300      	movs	r3, #0
2ffc6370:	4618      	mov	r0, r3
2ffc6372:	46bd      	mov	sp, r7
2ffc6374:	f85d 7b04 	ldr.w	r7, [sp], #4
2ffc6378:	4770      	bx	lr

2ffc637a <LL_RCC_PLL3Q_IsEnabled>:
2ffc637a:	b480      	push	{r7}
2ffc637c:	af00      	add	r7, sp, #0
2ffc637e:	f04f 43a0 	mov.w	r3, #1342177280	@ 0x50000000
2ffc6382:	f8d3 3880 	ldr.w	r3, [r3, #2176]	@ 0x880
2ffc6386:	f003 0320 	and.w	r3, r3, #32
2ffc638a:	2b20      	cmp	r3, #32
2ffc638c:	d101      	bne.n	2ffc6392 <LL_RCC_PLL3Q_IsEnabled+0x18>
2ffc638e:	2301      	movs	r3, #1
2ffc6390:	e000      	b.n	2ffc6394 <LL_RCC_PLL3Q_IsEnabled+0x1a>
2ffc6392:	2300      	movs	r3, #0
2ffc6394:	4618      	mov	r0, r3
2ffc6396:	46bd      	mov	sp, r7
2ffc6398:	f85d 7b04 	ldr.w	r7, [sp], #4
2ffc639c:	4770      	bx	lr

2ffc639e <LL_RCC_PLL3R_IsEnabled>:
2ffc639e:	b480      	push	{r7}
2ffc63a0:	af00      	add	r7, sp, #0
2ffc63a2:	f04f 43a0 	mov.w	r3, #1342177280	@ 0x50000000
2ffc63a6:	f8d3 3880 	ldr.w	r3, [r3, #2176]	@ 0x880
2ffc63aa:	f003 0340 	and.w	r3, r3, #64	@ 0x40
2ffc63ae:	2b40      	cmp	r3, #64	@ 0x40
2ffc63b0:	d101      	bne.n	2ffc63b6 <LL_RCC_PLL3R_IsEnabled+0x18>
2ffc63b2:	2301      	movs	r3, #1
2ffc63b4:	e000      	b.n	2ffc63b8 <LL_RCC_PLL3R_IsEnabled+0x1a>
2ffc63b6:	2300      	movs	r3, #0
2ffc63b8:	4618      	mov	r0, r3
2ffc63ba:	46bd      	mov	sp, r7
2ffc63bc:	f85d 7b04 	ldr.w	r7, [sp], #4
2ffc63c0:	4770      	bx	lr

2ffc63c2 <LL_RCC_PLL3FRACV_IsEnabled>:
2ffc63c2:	b480      	push	{r7}
2ffc63c4:	af00      	add	r7, sp, #0
2ffc63c6:	f04f 43a0 	mov.w	r3, #1342177280	@ 0x50000000
2ffc63ca:	f8d3 388c 	ldr.w	r3, [r3, #2188]	@ 0x88c
2ffc63ce:	f403 3380 	and.w	r3, r3, #65536	@ 0x10000
2ffc63d2:	f5b3 3f80 	cmp.w	r3, #65536	@ 0x10000
2ffc63d6:	d101      	bne.n	2ffc63dc <LL_RCC_PLL3FRACV_IsEnabled+0x1a>
2ffc63d8:	2301      	movs	r3, #1
2ffc63da:	e000      	b.n	2ffc63de <LL_RCC_PLL3FRACV_IsEnabled+0x1c>
2ffc63dc:	2300      	movs	r3, #0
2ffc63de:	4618      	mov	r0, r3
2ffc63e0:	46bd      	mov	sp, r7
2ffc63e2:	f85d 7b04 	ldr.w	r7, [sp], #4
2ffc63e6:	4770      	bx	lr

2ffc63e8 <LL_RCC_PLL3_GetN>:
2ffc63e8:	b480      	push	{r7}
2ffc63ea:	af00      	add	r7, sp, #0
2ffc63ec:	f04f 43a0 	mov.w	r3, #1342177280	@ 0x50000000
2ffc63f0:	f8d3 3884 	ldr.w	r3, [r3, #2180]	@ 0x884
2ffc63f4:	f3c3 0308 	ubfx	r3, r3, #0, #9
2ffc63f8:	3301      	adds	r3, #1
2ffc63fa:	4618      	mov	r0, r3
2ffc63fc:	46bd      	mov	sp, r7
2ffc63fe:	f85d 7b04 	ldr.w	r7, [sp], #4
2ffc6402:	4770      	bx	lr

2ffc6404 <LL_RCC_PLL3_GetM>:
2ffc6404:	b480      	push	{r7}
2ffc6406:	af00      	add	r7, sp, #0
2ffc6408:	f04f 43a0 	mov.w	r3, #1342177280	@ 0x50000000
2ffc640c:	f8d3 3884 	ldr.w	r3, [r3, #2180]	@ 0x884
2ffc6410:	0c1b      	lsrs	r3, r3, #16
2ffc6412:	f003 033f 	and.w	r3, r3, #63	@ 0x3f
2ffc6416:	3301      	adds	r3, #1
2ffc6418:	4618      	mov	r0, r3
2ffc641a:	46bd      	mov	sp, r7
2ffc641c:	f85d 7b04 	ldr.w	r7, [sp], #4
2ffc6420:	4770      	bx	lr

2ffc6422 <LL_RCC_PLL3_GetP>:
2ffc6422:	b480      	push	{r7}
2ffc6424:	af00      	add	r7, sp, #0
2ffc6426:	f04f 43a0 	mov.w	r3, #1342177280	@ 0x50000000
2ffc642a:	f8d3 3888 	ldr.w	r3, [r3, #2184]	@ 0x888
2ffc642e:	f003 037f 	and.w	r3, r3, #127	@ 0x7f
2ffc6432:	3301      	adds	r3, #1
2ffc6434:	4618      	mov	r0, r3
2ffc6436:	46bd      	mov	sp, r7
2ffc6438:	f85d 7b04 	ldr.w	r7, [sp], #4
2ffc643c:	4770      	bx	lr

2ffc643e <LL_RCC_PLL3_GetQ>:
2ffc643e:	b480      	push	{r7}
2ffc6440:	af00      	add	r7, sp, #0
2ffc6442:	f04f 43a0 	mov.w	r3, #1342177280	@ 0x50000000
2ffc6446:	f8d3 3888 	ldr.w	r3, [r3, #2184]	@ 0x888
2ffc644a:	0a1b      	lsrs	r3, r3, #8
2ffc644c:	f003 037f 	and.w	r3, r3, #127	@ 0x7f
2ffc6450:	3301      	adds	r3, #1
2ffc6452:	4618      	mov	r0, r3
2ffc6454:	46bd      	mov	sp, r7
2ffc6456:	f85d 7b04 	ldr.w	r7, [sp], #4
2ffc645a:	4770      	bx	lr

2ffc645c <LL_RCC_PLL3_GetR>:
2ffc645c:	b480      	push	{r7}
2ffc645e:	af00      	add	r7, sp, #0
2ffc6460:	f04f 43a0 	mov.w	r3, #1342177280	@ 0x50000000
2ffc6464:	f8d3 3888 	ldr.w	r3, [r3, #2184]	@ 0x888
2ffc6468:	0c1b      	lsrs	r3, r3, #16
2ffc646a:	f003 037f 	and.w	r3, r3, #127	@ 0x7f
2ffc646e:	3301      	adds	r3, #1
2ffc6470:	4618      	mov	r0, r3
2ffc6472:	46bd      	mov	sp, r7
2ffc6474:	f85d 7b04 	ldr.w	r7, [sp], #4
2ffc6478:	4770      	bx	lr

2ffc647a <LL_RCC_PLL3_GetFRACV>:
2ffc647a:	b480      	push	{r7}
2ffc647c:	af00      	add	r7, sp, #0
2ffc647e:	f04f 43a0 	mov.w	r3, #1342177280	@ 0x50000000
2ffc6482:	f8d3 388c 	ldr.w	r3, [r3, #2188]	@ 0x88c
2ffc6486:	08db      	lsrs	r3, r3, #3
2ffc6488:	f3c3 030c 	ubfx	r3, r3, #0, #13
2ffc648c:	4618      	mov	r0, r3
2ffc648e:	46bd      	mov	sp, r7
2ffc6490:	f85d 7b04 	ldr.w	r7, [sp], #4
2ffc6494:	4770      	bx	lr

2ffc6496 <LL_RCC_PLL4_GetSource>:
2ffc6496:	b480      	push	{r7}
2ffc6498:	af00      	add	r7, sp, #0
2ffc649a:	f04f 43a0 	mov.w	r3, #1342177280	@ 0x50000000
2ffc649e:	f8d3 3824 	ldr.w	r3, [r3, #2084]	@ 0x824
2ffc64a2:	f003 0303 	and.w	r3, r3, #3
2ffc64a6:	4618      	mov	r0, r3
2ffc64a8:	46bd      	mov	sp, r7
2ffc64aa:	f85d 7b04 	ldr.w	r7, [sp], #4
2ffc64ae:	4770      	bx	lr

2ffc64b0 <LL_RCC_PLL4_IsReady>:
2ffc64b0:	b480      	push	{r7}
2ffc64b2:	af00      	add	r7, sp, #0
2ffc64b4:	f04f 43a0 	mov.w	r3, #1342177280	@ 0x50000000
2ffc64b8:	f8d3 3894 	ldr.w	r3, [r3, #2196]	@ 0x894
2ffc64bc:	f003 0302 	and.w	r3, r3, #2
2ffc64c0:	2b02      	cmp	r3, #2
2ffc64c2:	d101      	bne.n	2ffc64c8 <LL_RCC_PLL4_IsReady+0x18>
2ffc64c4:	2301      	movs	r3, #1
2ffc64c6:	e000      	b.n	2ffc64ca <LL_RCC_PLL4_IsReady+0x1a>
2ffc64c8:	2300      	movs	r3, #0
2ffc64ca:	4618      	mov	r0, r3
2ffc64cc:	46bd      	mov	sp, r7
2ffc64ce:	f85d 7b04 	ldr.w	r7, [sp], #4
2ffc64d2:	4770      	bx	lr

2ffc64d4 <LL_RCC_PLL4P_IsEnabled>:
2ffc64d4:	b480      	push	{r7}
2ffc64d6:	af00      	add	r7, sp, #0
2ffc64d8:	f04f 43a0 	mov.w	r3, #1342177280	@ 0x50000000
2ffc64dc:	f8d3 3894 	ldr.w	r3, [r3, #2196]	@ 0x894
2ffc64e0:	f003 0310 	and.w	r3, r3, #16
2ffc64e4:	2b10      	cmp	r3, #16
2ffc64e6:	d101      	bne.n	2ffc64ec <LL_RCC_PLL4P_IsEnabled+0x18>
2ffc64e8:	2301      	movs	r3, #1
2ffc64ea:	e000      	b.n	2ffc64ee <LL_RCC_PLL4P_IsEnabled+0x1a>
2ffc64ec:	2300      	movs	r3, #0
2ffc64ee:	4618      	mov	r0, r3
2ffc64f0:	46bd      	mov	sp, r7
2ffc64f2:	f85d 7b04 	ldr.w	r7, [sp], #4
2ffc64f6:	4770      	bx	lr

2ffc64f8 <LL_RCC_PLL4Q_IsEnabled>:
2ffc64f8:	b480      	push	{r7}
2ffc64fa:	af00      	add	r7, sp, #0
2ffc64fc:	f04f 43a0 	mov.w	r3, #1342177280	@ 0x50000000
2ffc6500:	f8d3 3894 	ldr.w	r3, [r3, #2196]	@ 0x894
2ffc6504:	f003 0320 	and.w	r3, r3, #32
2ffc6508:	2b20      	cmp	r3, #32
2ffc650a:	d101      	bne.n	2ffc6510 <LL_RCC_PLL4Q_IsEnabled+0x18>
2ffc650c:	2301      	movs	r3, #1
2ffc650e:	e000      	b.n	2ffc6512 <LL_RCC_PLL4Q_IsEnabled+0x1a>
2ffc6510:	2300      	movs	r3, #0
2ffc6512:	4618      	mov	r0, r3
2ffc6514:	46bd      	mov	sp, r7
2ffc6516:	f85d 7b04 	ldr.w	r7, [sp], #4
2ffc651a:	4770      	bx	lr

2ffc651c <LL_RCC_PLL4R_IsEnabled>:
2ffc651c:	b480      	push	{r7}
2ffc651e:	af00      	add	r7, sp, #0
2ffc6520:	f04f 43a0 	mov.w	r3, #1342177280	@ 0x50000000
2ffc6524:	f8d3 3894 	ldr.w	r3, [r3, #2196]	@ 0x894
2ffc6528:	f003 0340 	and.w	r3, r3, #64	@ 0x40
2ffc652c:	2b40      	cmp	r3, #64	@ 0x40
2ffc652e:	d101      	bne.n	2ffc6534 <LL_RCC_PLL4R_IsEnabled+0x18>
2ffc6530:	2301      	movs	r3, #1
2ffc6532:	e000      	b.n	2ffc6536 <LL_RCC_PLL4R_IsEnabled+0x1a>
2ffc6534:	2300      	movs	r3, #0
2ffc6536:	4618      	mov	r0, r3
2ffc6538:	46bd      	mov	sp, r7
2ffc653a:	f85d 7b04 	ldr.w	r7, [sp], #4
2ffc653e:	4770      	bx	lr

2ffc6540 <LL_RCC_PLL4FRACV_IsEnabled>:
2ffc6540:	b480      	push	{r7}
2ffc6542:	af00      	add	r7, sp, #0
2ffc6544:	f04f 43a0 	mov.w	r3, #1342177280	@ 0x50000000
2ffc6548:	f8d3 38a0 	ldr.w	r3, [r3, #2208]	@ 0x8a0
2ffc654c:	f403 3380 	and.w	r3, r3, #65536	@ 0x10000
2ffc6550:	f5b3 3f80 	cmp.w	r3, #65536	@ 0x10000
2ffc6554:	d101      	bne.n	2ffc655a <LL_RCC_PLL4FRACV_IsEnabled+0x1a>
2ffc6556:	2301      	movs	r3, #1
2ffc6558:	e000      	b.n	2ffc655c <LL_RCC_PLL4FRACV_IsEnabled+0x1c>
2ffc655a:	2300      	movs	r3, #0
2ffc655c:	4618      	mov	r0, r3
2ffc655e:	46bd      	mov	sp, r7
2ffc6560:	f85d 7b04 	ldr.w	r7, [sp], #4
2ffc6564:	4770      	bx	lr

2ffc6566 <LL_RCC_PLL4_GetN>:
2ffc6566:	b480      	push	{r7}
2ffc6568:	af00      	add	r7, sp, #0
2ffc656a:	f04f 43a0 	mov.w	r3, #1342177280	@ 0x50000000
2ffc656e:	f8d3 3898 	ldr.w	r3, [r3, #2200]	@ 0x898
2ffc6572:	f3c3 0308 	ubfx	r3, r3, #0, #9
2ffc6576:	3301      	adds	r3, #1
2ffc6578:	4618      	mov	r0, r3
2ffc657a:	46bd      	mov	sp, r7
2ffc657c:	f85d 7b04 	ldr.w	r7, [sp], #4
2ffc6580:	4770      	bx	lr

2ffc6582 <LL_RCC_PLL4_GetM>:
2ffc6582:	b480      	push	{r7}
2ffc6584:	af00      	add	r7, sp, #0
2ffc6586:	f04f 43a0 	mov.w	r3, #1342177280	@ 0x50000000
2ffc658a:	f8d3 3898 	ldr.w	r3, [r3, #2200]	@ 0x898
2ffc658e:	0c1b      	lsrs	r3, r3, #16
2ffc6590:	f003 033f 	and.w	r3, r3, #63	@ 0x3f
2ffc6594:	3301      	adds	r3, #1
2ffc6596:	4618      	mov	r0, r3
2ffc6598:	46bd      	mov	sp, r7
2ffc659a:	f85d 7b04 	ldr.w	r7, [sp], #4
2ffc659e:	4770      	bx	lr

2ffc65a0 <LL_RCC_PLL4_GetP>:
2ffc65a0:	b480      	push	{r7}
2ffc65a2:	af00      	add	r7, sp, #0
2ffc65a4:	f04f 43a0 	mov.w	r3, #1342177280	@ 0x50000000
2ffc65a8:	f8d3 389c 	ldr.w	r3, [r3, #2204]	@ 0x89c
2ffc65ac:	f003 037f 	and.w	r3, r3, #127	@ 0x7f
2ffc65b0:	3301      	adds	r3, #1
2ffc65b2:	4618      	mov	r0, r3
2ffc65b4:	46bd      	mov	sp, r7
2ffc65b6:	f85d 7b04 	ldr.w	r7, [sp], #4
2ffc65ba:	4770      	bx	lr

2ffc65bc <LL_RCC_PLL4_GetQ>:
2ffc65bc:	b480      	push	{r7}
2ffc65be:	af00      	add	r7, sp, #0
2ffc65c0:	f04f 43a0 	mov.w	r3, #1342177280	@ 0x50000000
2ffc65c4:	f8d3 389c 	ldr.w	r3, [r3, #2204]	@ 0x89c
2ffc65c8:	0a1b      	lsrs	r3, r3, #8
2ffc65ca:	f003 037f 	and.w	r3, r3, #127	@ 0x7f
2ffc65ce:	3301      	adds	r3, #1
2ffc65d0:	4618      	mov	r0, r3
2ffc65d2:	46bd      	mov	sp, r7
2ffc65d4:	f85d 7b04 	ldr.w	r7, [sp], #4
2ffc65d8:	4770      	bx	lr

2ffc65da <LL_RCC_PLL4_GetR>:
2ffc65da:	b480      	push	{r7}
2ffc65dc:	af00      	add	r7, sp, #0
2ffc65de:	f04f 43a0 	mov.w	r3, #1342177280	@ 0x50000000
2ffc65e2:	f8d3 389c 	ldr.w	r3, [r3, #2204]	@ 0x89c
2ffc65e6:	0c1b      	lsrs	r3, r3, #16
2ffc65e8:	f003 037f 	and.w	r3, r3, #127	@ 0x7f
2ffc65ec:	3301      	adds	r3, #1
2ffc65ee:	4618      	mov	r0, r3
2ffc65f0:	46bd      	mov	sp, r7
2ffc65f2:	f85d 7b04 	ldr.w	r7, [sp], #4
2ffc65f6:	4770      	bx	lr

2ffc65f8 <LL_RCC_PLL4_GetFRACV>:
2ffc65f8:	b480      	push	{r7}
2ffc65fa:	af00      	add	r7, sp, #0
2ffc65fc:	f04f 43a0 	mov.w	r3, #1342177280	@ 0x50000000
2ffc6600:	f8d3 38a0 	ldr.w	r3, [r3, #2208]	@ 0x8a0
2ffc6604:	08db      	lsrs	r3, r3, #3
2ffc6606:	f3c3 030c 	ubfx	r3, r3, #0, #13
2ffc660a:	4618      	mov	r0, r3
2ffc660c:	46bd      	mov	sp, r7
2ffc660e:	f85d 7b04 	ldr.w	r7, [sp], #4
2ffc6612:	4770      	bx	lr

2ffc6614 <LL_RCC_GetPLL2ClockFreq>:
2ffc6614:	b580      	push	{r7, lr}
2ffc6616:	b08a      	sub	sp, #40	@ 0x28
2ffc6618:	af02      	add	r7, sp, #8
2ffc661a:	6078      	str	r0, [r7, #4]
2ffc661c:	2300      	movs	r3, #0
2ffc661e:	61fb      	str	r3, [r7, #28]
2ffc6620:	2300      	movs	r3, #0
2ffc6622:	61bb      	str	r3, [r7, #24]
2ffc6624:	f7ff fdcc 	bl	2ffc61c0 <LL_RCC_PLL12_GetSource>
2ffc6628:	6178      	str	r0, [r7, #20]
2ffc662a:	697b      	ldr	r3, [r7, #20]
2ffc662c:	2b00      	cmp	r3, #0
2ffc662e:	d003      	beq.n	2ffc6638 <LL_RCC_GetPLL2ClockFreq+0x24>
2ffc6630:	697b      	ldr	r3, [r7, #20]
2ffc6632:	2b01      	cmp	r3, #1
2ffc6634:	d00f      	beq.n	2ffc6656 <LL_RCC_GetPLL2ClockFreq+0x42>
2ffc6636:	e01c      	b.n	2ffc6672 <LL_RCC_GetPLL2ClockFreq+0x5e>
2ffc6638:	f7ff fd15 	bl	2ffc6066 <LL_RCC_HSI_IsReady>
2ffc663c:	4603      	mov	r3, r0
2ffc663e:	2b00      	cmp	r3, #0
2ffc6640:	d014      	beq.n	2ffc666c <LL_RCC_GetPLL2ClockFreq+0x58>
2ffc6642:	f7ff fd22 	bl	2ffc608a <LL_RCC_HSI_GetDivider>
2ffc6646:	4602      	mov	r2, r0
2ffc6648:	f44f 4310 	mov.w	r3, #36864	@ 0x9000
2ffc664c:	f2c0 33d0 	movt	r3, #976	@ 0x3d0
2ffc6650:	40d3      	lsrs	r3, r2
2ffc6652:	61fb      	str	r3, [r7, #28]
2ffc6654:	e00a      	b.n	2ffc666c <LL_RCC_GetPLL2ClockFreq+0x58>
2ffc6656:	f7ff fcf3 	bl	2ffc6040 <LL_RCC_HSE_IsReady>
2ffc665a:	4603      	mov	r3, r0
2ffc665c:	2b00      	cmp	r3, #0
2ffc665e:	d007      	beq.n	2ffc6670 <LL_RCC_GetPLL2ClockFreq+0x5c>
2ffc6660:	f44f 5358 	mov.w	r3, #13824	@ 0x3600
2ffc6664:	f2c0 136e 	movt	r3, #366	@ 0x16e
2ffc6668:	61fb      	str	r3, [r7, #28]
2ffc666a:	e001      	b.n	2ffc6670 <LL_RCC_GetPLL2ClockFreq+0x5c>
2ffc666c:	bf00      	nop
2ffc666e:	e000      	b.n	2ffc6672 <LL_RCC_GetPLL2ClockFreq+0x5e>
2ffc6670:	bf00      	nop
2ffc6672:	687b      	ldr	r3, [r7, #4]
2ffc6674:	2200      	movs	r2, #0
2ffc6676:	601a      	str	r2, [r3, #0]
2ffc6678:	687b      	ldr	r3, [r7, #4]
2ffc667a:	2200      	movs	r2, #0
2ffc667c:	605a      	str	r2, [r3, #4]
2ffc667e:	687b      	ldr	r3, [r7, #4]
2ffc6680:	2200      	movs	r2, #0
2ffc6682:	609a      	str	r2, [r3, #8]
2ffc6684:	f7ff fdff 	bl	2ffc6286 <LL_RCC_PLL2_GetM>
2ffc6688:	6138      	str	r0, [r7, #16]
2ffc668a:	f7ff fdee 	bl	2ffc626a <LL_RCC_PLL2_GetN>
2ffc668e:	60f8      	str	r0, [r7, #12]
2ffc6690:	f7ff fdd8 	bl	2ffc6244 <LL_RCC_PLL2FRACV_IsEnabled>
2ffc6694:	4603      	mov	r3, r0
2ffc6696:	2b00      	cmp	r3, #0
2ffc6698:	d002      	beq.n	2ffc66a0 <LL_RCC_GetPLL2ClockFreq+0x8c>
2ffc669a:	f7ff fe2f 	bl	2ffc62fc <LL_RCC_PLL2_GetFRACV>
2ffc669e:	61b8      	str	r0, [r7, #24]
2ffc66a0:	693b      	ldr	r3, [r7, #16]
2ffc66a2:	2b00      	cmp	r3, #0
2ffc66a4:	d035      	beq.n	2ffc6712 <LL_RCC_GetPLL2ClockFreq+0xfe>
2ffc66a6:	f7ff fd97 	bl	2ffc61d8 <LL_RCC_PLL2P_IsEnabled>
2ffc66aa:	4603      	mov	r3, r0
2ffc66ac:	2b00      	cmp	r3, #0
2ffc66ae:	d00c      	beq.n	2ffc66ca <LL_RCC_GetPLL2ClockFreq+0xb6>
2ffc66b0:	f7ff fdf8 	bl	2ffc62a4 <LL_RCC_PLL2_GetP>
2ffc66b4:	4603      	mov	r3, r0
2ffc66b6:	9300      	str	r3, [sp, #0]
2ffc66b8:	69bb      	ldr	r3, [r7, #24]
2ffc66ba:	68fa      	ldr	r2, [r7, #12]
2ffc66bc:	6939      	ldr	r1, [r7, #16]
2ffc66be:	69f8      	ldr	r0, [r7, #28]
2ffc66c0:	f000 f962 	bl	2ffc6988 <LL_RCC_CalcPLLClockFreq>
2ffc66c4:	4602      	mov	r2, r0
2ffc66c6:	687b      	ldr	r3, [r7, #4]
2ffc66c8:	601a      	str	r2, [r3, #0]
2ffc66ca:	f7ff fd97 	bl	2ffc61fc <LL_RCC_PLL2Q_IsEnabled>
2ffc66ce:	4603      	mov	r3, r0
2ffc66d0:	2b00      	cmp	r3, #0
2ffc66d2:	d00c      	beq.n	2ffc66ee <LL_RCC_GetPLL2ClockFreq+0xda>
2ffc66d4:	f7ff fdf4 	bl	2ffc62c0 <LL_RCC_PLL2_GetQ>
2ffc66d8:	4603      	mov	r3, r0
2ffc66da:	9300      	str	r3, [sp, #0]
2ffc66dc:	69bb      	ldr	r3, [r7, #24]
2ffc66de:	68fa      	ldr	r2, [r7, #12]
2ffc66e0:	6939      	ldr	r1, [r7, #16]
2ffc66e2:	69f8      	ldr	r0, [r7, #28]
2ffc66e4:	f000 f950 	bl	2ffc6988 <LL_RCC_CalcPLLClockFreq>
2ffc66e8:	4602      	mov	r2, r0
2ffc66ea:	687b      	ldr	r3, [r7, #4]
2ffc66ec:	605a      	str	r2, [r3, #4]
2ffc66ee:	f7ff fd97 	bl	2ffc6220 <LL_RCC_PLL2R_IsEnabled>
2ffc66f2:	4603      	mov	r3, r0
2ffc66f4:	2b00      	cmp	r3, #0
2ffc66f6:	d00c      	beq.n	2ffc6712 <LL_RCC_GetPLL2ClockFreq+0xfe>
2ffc66f8:	f7ff fdf1 	bl	2ffc62de <LL_RCC_PLL2_GetR>
2ffc66fc:	4603      	mov	r3, r0
2ffc66fe:	9300      	str	r3, [sp, #0]
2ffc6700:	69bb      	ldr	r3, [r7, #24]
2ffc6702:	68fa      	ldr	r2, [r7, #12]
2ffc6704:	6939      	ldr	r1, [r7, #16]
2ffc6706:	69f8      	ldr	r0, [r7, #28]
2ffc6708:	f000 f93e 	bl	2ffc6988 <LL_RCC_CalcPLLClockFreq>
2ffc670c:	4602      	mov	r2, r0
2ffc670e:	687b      	ldr	r3, [r7, #4]
2ffc6710:	609a      	str	r2, [r3, #8]
2ffc6712:	bf00      	nop
2ffc6714:	3720      	adds	r7, #32
2ffc6716:	46bd      	mov	sp, r7
2ffc6718:	bd80      	pop	{r7, pc}

2ffc671a <LL_RCC_GetPLL3ClockFreq>:
2ffc671a:	b580      	push	{r7, lr}
2ffc671c:	b08a      	sub	sp, #40	@ 0x28
2ffc671e:	af02      	add	r7, sp, #8
2ffc6720:	6078      	str	r0, [r7, #4]
2ffc6722:	2300      	movs	r3, #0
2ffc6724:	61fb      	str	r3, [r7, #28]
2ffc6726:	2300      	movs	r3, #0
2ffc6728:	61bb      	str	r3, [r7, #24]
2ffc672a:	f7ff fdf5 	bl	2ffc6318 <LL_RCC_PLL3_GetSource>
2ffc672e:	6178      	str	r0, [r7, #20]
2ffc6730:	697b      	ldr	r3, [r7, #20]
2ffc6732:	2b02      	cmp	r3, #2
2ffc6734:	d023      	beq.n	2ffc677e <LL_RCC_GetPLL3ClockFreq+0x64>
2ffc6736:	697b      	ldr	r3, [r7, #20]
2ffc6738:	2b02      	cmp	r3, #2
2ffc673a:	d82b      	bhi.n	2ffc6794 <LL_RCC_GetPLL3ClockFreq+0x7a>
2ffc673c:	697b      	ldr	r3, [r7, #20]
2ffc673e:	2b00      	cmp	r3, #0
2ffc6740:	d003      	beq.n	2ffc674a <LL_RCC_GetPLL3ClockFreq+0x30>
2ffc6742:	697b      	ldr	r3, [r7, #20]
2ffc6744:	2b01      	cmp	r3, #1
2ffc6746:	d00f      	beq.n	2ffc6768 <LL_RCC_GetPLL3ClockFreq+0x4e>
2ffc6748:	e024      	b.n	2ffc6794 <LL_RCC_GetPLL3ClockFreq+0x7a>
2ffc674a:	f7ff fc8c 	bl	2ffc6066 <LL_RCC_HSI_IsReady>
2ffc674e:	4603      	mov	r3, r0
2ffc6750:	2b00      	cmp	r3, #0
2ffc6752:	d021      	beq.n	2ffc6798 <LL_RCC_GetPLL3ClockFreq+0x7e>
2ffc6754:	f7ff fc99 	bl	2ffc608a <LL_RCC_HSI_GetDivider>
2ffc6758:	4602      	mov	r2, r0
2ffc675a:	f44f 4310 	mov.w	r3, #36864	@ 0x9000
2ffc675e:	f2c0 33d0 	movt	r3, #976	@ 0x3d0
2ffc6762:	40d3      	lsrs	r3, r2
2ffc6764:	61fb      	str	r3, [r7, #28]
2ffc6766:	e017      	b.n	2ffc6798 <LL_RCC_GetPLL3ClockFreq+0x7e>
2ffc6768:	f7ff fc6a 	bl	2ffc6040 <LL_RCC_HSE_IsReady>
2ffc676c:	4603      	mov	r3, r0
2ffc676e:	2b00      	cmp	r3, #0
2ffc6770:	d014      	beq.n	2ffc679c <LL_RCC_GetPLL3ClockFreq+0x82>
2ffc6772:	f44f 5358 	mov.w	r3, #13824	@ 0x3600
2ffc6776:	f2c0 136e 	movt	r3, #366	@ 0x16e
2ffc677a:	61fb      	str	r3, [r7, #28]
2ffc677c:	e00e      	b.n	2ffc679c <LL_RCC_GetPLL3ClockFreq+0x82>
2ffc677e:	f7ff fc90 	bl	2ffc60a2 <LL_RCC_CSI_IsReady>
2ffc6782:	4603      	mov	r3, r0
2ffc6784:	2b00      	cmp	r3, #0
2ffc6786:	d00b      	beq.n	2ffc67a0 <LL_RCC_GetPLL3ClockFreq+0x86>
2ffc6788:	f44f 6310 	mov.w	r3, #2304	@ 0x900
2ffc678c:	f2c0 033d 	movt	r3, #61	@ 0x3d
2ffc6790:	61fb      	str	r3, [r7, #28]
2ffc6792:	e005      	b.n	2ffc67a0 <LL_RCC_GetPLL3ClockFreq+0x86>
2ffc6794:	bf00      	nop
2ffc6796:	e004      	b.n	2ffc67a2 <LL_RCC_GetPLL3ClockFreq+0x88>
2ffc6798:	bf00      	nop
2ffc679a:	e002      	b.n	2ffc67a2 <LL_RCC_GetPLL3ClockFreq+0x88>
2ffc679c:	bf00      	nop
2ffc679e:	e000      	b.n	2ffc67a2 <LL_RCC_GetPLL3ClockFreq+0x88>
2ffc67a0:	bf00      	nop
2ffc67a2:	687b      	ldr	r3, [r7, #4]
2ffc67a4:	2200      	movs	r2, #0
2ffc67a6:	601a      	str	r2, [r3, #0]
2ffc67a8:	687b      	ldr	r3, [r7, #4]
2ffc67aa:	2200      	movs	r2, #0
2ffc67ac:	605a      	str	r2, [r3, #4]
2ffc67ae:	687b      	ldr	r3, [r7, #4]
2ffc67b0:	2200      	movs	r2, #0
2ffc67b2:	609a      	str	r2, [r3, #8]
2ffc67b4:	f7ff fe26 	bl	2ffc6404 <LL_RCC_PLL3_GetM>
2ffc67b8:	6138      	str	r0, [r7, #16]
2ffc67ba:	f7ff fe15 	bl	2ffc63e8 <LL_RCC_PLL3_GetN>
2ffc67be:	60f8      	str	r0, [r7, #12]
2ffc67c0:	f7ff fdff 	bl	2ffc63c2 <LL_RCC_PLL3FRACV_IsEnabled>
2ffc67c4:	4603      	mov	r3, r0
2ffc67c6:	2b00      	cmp	r3, #0
2ffc67c8:	d002      	beq.n	2ffc67d0 <LL_RCC_GetPLL3ClockFreq+0xb6>
2ffc67ca:	f7ff fe56 	bl	2ffc647a <LL_RCC_PLL3_GetFRACV>
2ffc67ce:	61b8      	str	r0, [r7, #24]
2ffc67d0:	693b      	ldr	r3, [r7, #16]
2ffc67d2:	2b00      	cmp	r3, #0
2ffc67d4:	d035      	beq.n	2ffc6842 <LL_RCC_GetPLL3ClockFreq+0x128>
2ffc67d6:	f7ff fdbe 	bl	2ffc6356 <LL_RCC_PLL3P_IsEnabled>
2ffc67da:	4603      	mov	r3, r0
2ffc67dc:	2b00      	cmp	r3, #0
2ffc67de:	d00c      	beq.n	2ffc67fa <LL_RCC_GetPLL3ClockFreq+0xe0>
2ffc67e0:	f7ff fe1f 	bl	2ffc6422 <LL_RCC_PLL3_GetP>
2ffc67e4:	4603      	mov	r3, r0
2ffc67e6:	9300      	str	r3, [sp, #0]
2ffc67e8:	69bb      	ldr	r3, [r7, #24]
2ffc67ea:	68fa      	ldr	r2, [r7, #12]
2ffc67ec:	6939      	ldr	r1, [r7, #16]
2ffc67ee:	69f8      	ldr	r0, [r7, #28]
2ffc67f0:	f000 f8ca 	bl	2ffc6988 <LL_RCC_CalcPLLClockFreq>
2ffc67f4:	4602      	mov	r2, r0
2ffc67f6:	687b      	ldr	r3, [r7, #4]
2ffc67f8:	601a      	str	r2, [r3, #0]
2ffc67fa:	f7ff fdbe 	bl	2ffc637a <LL_RCC_PLL3Q_IsEnabled>
2ffc67fe:	4603      	mov	r3, r0
2ffc6800:	2b00      	cmp	r3, #0
2ffc6802:	d00c      	beq.n	2ffc681e <LL_RCC_GetPLL3ClockFreq+0x104>
2ffc6804:	f7ff fe1b 	bl	2ffc643e <LL_RCC_PLL3_GetQ>
2ffc6808:	4603      	mov	r3, r0
2ffc680a:	9300      	str	r3, [sp, #0]
2ffc680c:	69bb      	ldr	r3, [r7, #24]
2ffc680e:	68fa      	ldr	r2, [r7, #12]
2ffc6810:	6939      	ldr	r1, [r7, #16]
2ffc6812:	69f8      	ldr	r0, [r7, #28]
2ffc6814:	f000 f8b8 	bl	2ffc6988 <LL_RCC_CalcPLLClockFreq>
2ffc6818:	4602      	mov	r2, r0
2ffc681a:	687b      	ldr	r3, [r7, #4]
2ffc681c:	605a      	str	r2, [r3, #4]
2ffc681e:	f7ff fdbe 	bl	2ffc639e <LL_RCC_PLL3R_IsEnabled>
2ffc6822:	4603      	mov	r3, r0
2ffc6824:	2b00      	cmp	r3, #0
2ffc6826:	d00c      	beq.n	2ffc6842 <LL_RCC_GetPLL3ClockFreq+0x128>
2ffc6828:	f7ff fe18 	bl	2ffc645c <LL_RCC_PLL3_GetR>
2ffc682c:	4603      	mov	r3, r0
2ffc682e:	9300      	str	r3, [sp, #0]
2ffc6830:	69bb      	ldr	r3, [r7, #24]
2ffc6832:	68fa      	ldr	r2, [r7, #12]
2ffc6834:	6939      	ldr	r1, [r7, #16]
2ffc6836:	69f8      	ldr	r0, [r7, #28]
2ffc6838:	f000 f8a6 	bl	2ffc6988 <LL_RCC_CalcPLLClockFreq>
2ffc683c:	4602      	mov	r2, r0
2ffc683e:	687b      	ldr	r3, [r7, #4]
2ffc6840:	609a      	str	r2, [r3, #8]
2ffc6842:	bf00      	nop
2ffc6844:	3720      	adds	r7, #32
2ffc6846:	46bd      	mov	sp, r7
2ffc6848:	bd80      	pop	{r7, pc}
	...

2ffc684c <LL_RCC_GetPLL4ClockFreq>:
2ffc684c:	b580      	push	{r7, lr}
2ffc684e:	b08a      	sub	sp, #40	@ 0x28
2ffc6850:	af02      	add	r7, sp, #8
2ffc6852:	6078      	str	r0, [r7, #4]
2ffc6854:	2300      	movs	r3, #0
2ffc6856:	61fb      	str	r3, [r7, #28]
2ffc6858:	2300      	movs	r3, #0
2ffc685a:	61bb      	str	r3, [r7, #24]
2ffc685c:	f7ff fe1b 	bl	2ffc6496 <LL_RCC_PLL4_GetSource>
2ffc6860:	6178      	str	r0, [r7, #20]
2ffc6862:	697b      	ldr	r3, [r7, #20]
2ffc6864:	2b03      	cmp	r3, #3
2ffc6866:	d83b      	bhi.n	2ffc68e0 <LL_RCC_GetPLL4ClockFreq+0x94>
2ffc6868:	a201      	add	r2, pc, #4	@ (adr r2, 2ffc6870 <LL_RCC_GetPLL4ClockFreq+0x24>)
2ffc686a:	f852 f023 	ldr.w	pc, [r2, r3, lsl #2]
2ffc686e:	bf00      	nop
2ffc6870:	2ffc6881 	.word	0x2ffc6881
2ffc6874:	2ffc689f 	.word	0x2ffc689f
2ffc6878:	2ffc68b5 	.word	0x2ffc68b5
2ffc687c:	2ffc68cb 	.word	0x2ffc68cb
2ffc6880:	f7ff fbf1 	bl	2ffc6066 <LL_RCC_HSI_IsReady>
2ffc6884:	4603      	mov	r3, r0
2ffc6886:	2b00      	cmp	r3, #0
2ffc6888:	d025      	beq.n	2ffc68d6 <LL_RCC_GetPLL4ClockFreq+0x8a>
2ffc688a:	f7ff fbfe 	bl	2ffc608a <LL_RCC_HSI_GetDivider>
2ffc688e:	4602      	mov	r2, r0
2ffc6890:	f44f 4310 	mov.w	r3, #36864	@ 0x9000
2ffc6894:	f2c0 33d0 	movt	r3, #976	@ 0x3d0
2ffc6898:	40d3      	lsrs	r3, r2
2ffc689a:	61fb      	str	r3, [r7, #28]
2ffc689c:	e01b      	b.n	2ffc68d6 <LL_RCC_GetPLL4ClockFreq+0x8a>
2ffc689e:	f7ff fbcf 	bl	2ffc6040 <LL_RCC_HSE_IsReady>
2ffc68a2:	4603      	mov	r3, r0
2ffc68a4:	2b00      	cmp	r3, #0
2ffc68a6:	d018      	beq.n	2ffc68da <LL_RCC_GetPLL4ClockFreq+0x8e>
2ffc68a8:	f44f 5358 	mov.w	r3, #13824	@ 0x3600
2ffc68ac:	f2c0 136e 	movt	r3, #366	@ 0x16e
2ffc68b0:	61fb      	str	r3, [r7, #28]
2ffc68b2:	e012      	b.n	2ffc68da <LL_RCC_GetPLL4ClockFreq+0x8e>
2ffc68b4:	f7ff fbc4 	bl	2ffc6040 <LL_RCC_HSE_IsReady>
2ffc68b8:	4603      	mov	r3, r0
2ffc68ba:	2b00      	cmp	r3, #0
2ffc68bc:	d00f      	beq.n	2ffc68de <LL_RCC_GetPLL4ClockFreq+0x92>
2ffc68be:	f44f 5358 	mov.w	r3, #13824	@ 0x3600
2ffc68c2:	f2c0 136e 	movt	r3, #366	@ 0x16e
2ffc68c6:	61fb      	str	r3, [r7, #28]
2ffc68c8:	e009      	b.n	2ffc68de <LL_RCC_GetPLL4ClockFreq+0x92>
2ffc68ca:	f44f 4300 	mov.w	r3, #32768	@ 0x8000
2ffc68ce:	f2c0 03bb 	movt	r3, #187	@ 0xbb
2ffc68d2:	61fb      	str	r3, [r7, #28]
2ffc68d4:	e004      	b.n	2ffc68e0 <LL_RCC_GetPLL4ClockFreq+0x94>
2ffc68d6:	bf00      	nop
2ffc68d8:	e002      	b.n	2ffc68e0 <LL_RCC_GetPLL4ClockFreq+0x94>
2ffc68da:	bf00      	nop
2ffc68dc:	e000      	b.n	2ffc68e0 <LL_RCC_GetPLL4ClockFreq+0x94>
2ffc68de:	bf00      	nop
2ffc68e0:	687b      	ldr	r3, [r7, #4]
2ffc68e2:	2200      	movs	r2, #0
2ffc68e4:	601a      	str	r2, [r3, #0]
2ffc68e6:	687b      	ldr	r3, [r7, #4]
2ffc68e8:	2200      	movs	r2, #0
2ffc68ea:	605a      	str	r2, [r3, #4]
2ffc68ec:	687b      	ldr	r3, [r7, #4]
2ffc68ee:	2200      	movs	r2, #0
2ffc68f0:	609a      	str	r2, [r3, #8]
2ffc68f2:	f7ff fe46 	bl	2ffc6582 <LL_RCC_PLL4_GetM>
2ffc68f6:	6138      	str	r0, [r7, #16]
2ffc68f8:	f7ff fe35 	bl	2ffc6566 <LL_RCC_PLL4_GetN>
2ffc68fc:	60f8      	str	r0, [r7, #12]
2ffc68fe:	f7ff fe1f 	bl	2ffc6540 <LL_RCC_PLL4FRACV_IsEnabled>
2ffc6902:	4603      	mov	r3, r0
2ffc6904:	2b00      	cmp	r3, #0
2ffc6906:	d002      	beq.n	2ffc690e <LL_RCC_GetPLL4ClockFreq+0xc2>
2ffc6908:	f7ff fe76 	bl	2ffc65f8 <LL_RCC_PLL4_GetFRACV>
2ffc690c:	61b8      	str	r0, [r7, #24]
2ffc690e:	693b      	ldr	r3, [r7, #16]
2ffc6910:	2b00      	cmp	r3, #0
2ffc6912:	d035      	beq.n	2ffc6980 <LL_RCC_GetPLL4ClockFreq+0x134>
2ffc6914:	f7ff fdde 	bl	2ffc64d4 <LL_RCC_PLL4P_IsEnabled>
2ffc6918:	4603      	mov	r3, r0
2ffc691a:	2b00      	cmp	r3, #0
2ffc691c:	d00c      	beq.n	2ffc6938 <LL_RCC_GetPLL4ClockFreq+0xec>
2ffc691e:	f7ff fe3f 	bl	2ffc65a0 <LL_RCC_PLL4_GetP>
2ffc6922:	4603      	mov	r3, r0
2ffc6924:	9300      	str	r3, [sp, #0]
2ffc6926:	69bb      	ldr	r3, [r7, #24]
2ffc6928:	68fa      	ldr	r2, [r7, #12]
2ffc692a:	6939      	ldr	r1, [r7, #16]
2ffc692c:	69f8      	ldr	r0, [r7, #28]
2ffc692e:	f000 f82b 	bl	2ffc6988 <LL_RCC_CalcPLLClockFreq>
2ffc6932:	4602      	mov	r2, r0
2ffc6934:	687b      	ldr	r3, [r7, #4]
2ffc6936:	601a      	str	r2, [r3, #0]
2ffc6938:	f7ff fdde 	bl	2ffc64f8 <LL_RCC_PLL4Q_IsEnabled>
2ffc693c:	4603      	mov	r3, r0
2ffc693e:	2b00      	cmp	r3, #0
2ffc6940:	d00c      	beq.n	2ffc695c <LL_RCC_GetPLL4ClockFreq+0x110>
2ffc6942:	f7ff fe3b 	bl	2ffc65bc <LL_RCC_PLL4_GetQ>
2ffc6946:	4603      	mov	r3, r0
2ffc6948:	9300      	str	r3, [sp, #0]
2ffc694a:	69bb      	ldr	r3, [r7, #24]
2ffc694c:	68fa      	ldr	r2, [r7, #12]
2ffc694e:	6939      	ldr	r1, [r7, #16]
2ffc6950:	69f8      	ldr	r0, [r7, #28]
2ffc6952:	f000 f819 	bl	2ffc6988 <LL_RCC_CalcPLLClockFreq>
2ffc6956:	4602      	mov	r2, r0
2ffc6958:	687b      	ldr	r3, [r7, #4]
2ffc695a:	605a      	str	r2, [r3, #4]
2ffc695c:	f7ff fdde 	bl	2ffc651c <LL_RCC_PLL4R_IsEnabled>
2ffc6960:	4603      	mov	r3, r0
2ffc6962:	2b00      	cmp	r3, #0
2ffc6964:	d00c      	beq.n	2ffc6980 <LL_RCC_GetPLL4ClockFreq+0x134>
2ffc6966:	f7ff fe38 	bl	2ffc65da <LL_RCC_PLL4_GetR>
2ffc696a:	4603      	mov	r3, r0
2ffc696c:	9300      	str	r3, [sp, #0]
2ffc696e:	69bb      	ldr	r3, [r7, #24]
2ffc6970:	68fa      	ldr	r2, [r7, #12]
2ffc6972:	6939      	ldr	r1, [r7, #16]
2ffc6974:	69f8      	ldr	r0, [r7, #28]
2ffc6976:	f000 f807 	bl	2ffc6988 <LL_RCC_CalcPLLClockFreq>
2ffc697a:	4602      	mov	r2, r0
2ffc697c:	687b      	ldr	r3, [r7, #4]
2ffc697e:	609a      	str	r2, [r3, #8]
2ffc6980:	bf00      	nop
2ffc6982:	3720      	adds	r7, #32
2ffc6984:	46bd      	mov	sp, r7
2ffc6986:	bd80      	pop	{r7, pc}

2ffc6988 <LL_RCC_CalcPLLClockFreq>:
2ffc6988:	b480      	push	{r7}
2ffc698a:	b087      	sub	sp, #28
2ffc698c:	af00      	add	r7, sp, #0
2ffc698e:	60f8      	str	r0, [r7, #12]
2ffc6990:	60b9      	str	r1, [r7, #8]
2ffc6992:	607a      	str	r2, [r7, #4]
2ffc6994:	603b      	str	r3, [r7, #0]
2ffc6996:	68fb      	ldr	r3, [r7, #12]
2ffc6998:	ee07 3a90 	vmov	s15, r3
2ffc699c:	eef8 6a67 	vcvt.f32.u32	s13, s15
2ffc69a0:	68bb      	ldr	r3, [r7, #8]
2ffc69a2:	ee07 3a90 	vmov	s15, r3
2ffc69a6:	eef8 7a67 	vcvt.f32.u32	s15, s15
2ffc69aa:	ee86 7aa7 	vdiv.f32	s14, s13, s15
2ffc69ae:	687b      	ldr	r3, [r7, #4]
2ffc69b0:	ee07 3a90 	vmov	s15, r3
2ffc69b4:	eef8 6a67 	vcvt.f32.u32	s13, s15
2ffc69b8:	683b      	ldr	r3, [r7, #0]
2ffc69ba:	ee07 3a90 	vmov	s15, r3
2ffc69be:	eeb8 6a67 	vcvt.f32.u32	s12, s15
2ffc69c2:	eddf 5a10 	vldr	s11, [pc, #64]	@ 2ffc6a04 <LL_RCC_CalcPLLClockFreq+0x7c>
2ffc69c6:	eec6 7a25 	vdiv.f32	s15, s12, s11
2ffc69ca:	ee76 7aa7 	vadd.f32	s15, s13, s15
2ffc69ce:	ee67 7a27 	vmul.f32	s15, s14, s15
2ffc69d2:	edc7 7a05 	vstr	s15, [r7, #20]
2ffc69d6:	6a3b      	ldr	r3, [r7, #32]
2ffc69d8:	ee07 3a90 	vmov	s15, r3
2ffc69dc:	eeb8 7a67 	vcvt.f32.u32	s14, s15
2ffc69e0:	edd7 6a05 	vldr	s13, [r7, #20]
2ffc69e4:	eec6 7a87 	vdiv.f32	s15, s13, s14
2ffc69e8:	edc7 7a05 	vstr	s15, [r7, #20]
2ffc69ec:	edd7 7a05 	vldr	s15, [r7, #20]
2ffc69f0:	eefc 7ae7 	vcvt.u32.f32	s15, s15
2ffc69f4:	ee17 3a90 	vmov	r3, s15
2ffc69f8:	4618      	mov	r0, r3
2ffc69fa:	371c      	adds	r7, #28
2ffc69fc:	46bd      	mov	sp, r7
2ffc69fe:	f85d 7b04 	ldr.w	r7, [sp], #4
2ffc6a02:	4770      	bx	lr
2ffc6a04:	46000000 	.word	0x46000000

2ffc6a08 <LL_RCC_GetUARTClockFreq>:
2ffc6a08:	b580      	push	{r7, lr}
2ffc6a0a:	b086      	sub	sp, #24
2ffc6a0c:	af00      	add	r7, sp, #0
2ffc6a0e:	6078      	str	r0, [r7, #4]
2ffc6a10:	2300      	movs	r3, #0
2ffc6a12:	617b      	str	r3, [r7, #20]
2ffc6a14:	6878      	ldr	r0, [r7, #4]
2ffc6a16:	f7ff fbc7 	bl	2ffc61a8 <LL_RCC_GetUARTClockSource>
2ffc6a1a:	4603      	mov	r3, r0
2ffc6a1c:	f240 7204 	movw	r2, #1796	@ 0x704
2ffc6a20:	f6c0 0230 	movt	r2, #2096	@ 0x830
2ffc6a24:	4293      	cmp	r3, r2
2ffc6a26:	f200 8109 	bhi.w	2ffc6c3c <LL_RCC_GetUARTClockFreq+0x234>
2ffc6a2a:	f44f 62e0 	mov.w	r2, #1792	@ 0x700
2ffc6a2e:	f6c0 0230 	movt	r2, #2096	@ 0x830
2ffc6a32:	4293      	cmp	r3, r2
2ffc6a34:	d226      	bcs.n	2ffc6a84 <LL_RCC_GetUARTClockFreq+0x7c>
2ffc6a36:	f240 7204 	movw	r2, #1796	@ 0x704
2ffc6a3a:	f6c0 022c 	movt	r2, #2092	@ 0x82c
2ffc6a3e:	4293      	cmp	r3, r2
2ffc6a40:	f200 80fc 	bhi.w	2ffc6c3c <LL_RCC_GetUARTClockFreq+0x234>
2ffc6a44:	f44f 62e0 	mov.w	r2, #1792	@ 0x700
2ffc6a48:	f6c0 022c 	movt	r2, #2092	@ 0x82c
2ffc6a4c:	4293      	cmp	r3, r2
2ffc6a4e:	d22d      	bcs.n	2ffc6aac <LL_RCC_GetUARTClockFreq+0xa4>
2ffc6a50:	f240 7204 	movw	r2, #1796	@ 0x704
2ffc6a54:	f6c0 0228 	movt	r2, #2088	@ 0x828
2ffc6a58:	4293      	cmp	r3, r2
2ffc6a5a:	f200 80ef 	bhi.w	2ffc6c3c <LL_RCC_GetUARTClockFreq+0x234>
2ffc6a5e:	f44f 62e0 	mov.w	r2, #1792	@ 0x700
2ffc6a62:	f6c0 0228 	movt	r2, #2088	@ 0x828
2ffc6a66:	4293      	cmp	r3, r2
2ffc6a68:	d236      	bcs.n	2ffc6ad8 <LL_RCC_GetUARTClockFreq+0xd0>
2ffc6a6a:	f240 7205 	movw	r2, #1797	@ 0x705
2ffc6a6e:	f2c0 0208 	movt	r2, #8
2ffc6a72:	4293      	cmp	r3, r2
2ffc6a74:	d872      	bhi.n	2ffc6b5c <LL_RCC_GetUARTClockFreq+0x154>
2ffc6a76:	f44f 62e0 	mov.w	r2, #1792	@ 0x700
2ffc6a7a:	f2c0 0208 	movt	r2, #8
2ffc6a7e:	4293      	cmp	r3, r2
2ffc6a80:	d256      	bcs.n	2ffc6b30 <LL_RCC_GetUARTClockFreq+0x128>
2ffc6a82:	e0db      	b.n	2ffc6c3c <LL_RCC_GetUARTClockFreq+0x234>
2ffc6a84:	f1a3 6303 	sub.w	r3, r3, #137363456	@ 0x8300000
2ffc6a88:	f5a3 63e0 	sub.w	r3, r3, #1792	@ 0x700
2ffc6a8c:	2b04      	cmp	r3, #4
2ffc6a8e:	f200 80d5 	bhi.w	2ffc6c3c <LL_RCC_GetUARTClockFreq+0x234>
2ffc6a92:	a201      	add	r2, pc, #4	@ (adr r2, 2ffc6a98 <LL_RCC_GetUARTClockFreq+0x90>)
2ffc6a94:	f852 f023 	ldr.w	pc, [r2, r3, lsl #2]
2ffc6a98:	2ffc6c0d 	.word	0x2ffc6c0d
2ffc6a9c:	2ffc6bdd 	.word	0x2ffc6bdd
2ffc6aa0:	2ffc6ba9 	.word	0x2ffc6ba9
2ffc6aa4:	2ffc6bc7 	.word	0x2ffc6bc7
2ffc6aa8:	2ffc6bf7 	.word	0x2ffc6bf7
2ffc6aac:	f44f 4279 	mov.w	r2, #63744	@ 0xf900
2ffc6ab0:	f2cf 72d3 	movt	r2, #63443	@ 0xf7d3
2ffc6ab4:	441a      	add	r2, r3
2ffc6ab6:	2a04      	cmp	r2, #4
2ffc6ab8:	f200 80c0 	bhi.w	2ffc6c3c <LL_RCC_GetUARTClockFreq+0x234>
2ffc6abc:	a301      	add	r3, pc, #4	@ (adr r3, 2ffc6ac4 <LL_RCC_GetUARTClockFreq+0xbc>)
2ffc6abe:	f853 f022 	ldr.w	pc, [r3, r2, lsl #2]
2ffc6ac2:	bf00      	nop
2ffc6ac4:	2ffc6c0d 	.word	0x2ffc6c0d
2ffc6ac8:	2ffc6bdd 	.word	0x2ffc6bdd
2ffc6acc:	2ffc6ba9 	.word	0x2ffc6ba9
2ffc6ad0:	2ffc6bc7 	.word	0x2ffc6bc7
2ffc6ad4:	2ffc6bf7 	.word	0x2ffc6bf7
2ffc6ad8:	f44f 4279 	mov.w	r2, #63744	@ 0xf900
2ffc6adc:	f2cf 72d7 	movt	r2, #63447	@ 0xf7d7
2ffc6ae0:	441a      	add	r2, r3
2ffc6ae2:	2a04      	cmp	r2, #4
2ffc6ae4:	f200 80aa 	bhi.w	2ffc6c3c <LL_RCC_GetUARTClockFreq+0x234>
2ffc6ae8:	a301      	add	r3, pc, #4	@ (adr r3, 2ffc6af0 <LL_RCC_GetUARTClockFreq+0xe8>)
2ffc6aea:	f853 f022 	ldr.w	pc, [r3, r2, lsl #2]
2ffc6aee:	bf00      	nop
2ffc6af0:	2ffc6c0d 	.word	0x2ffc6c0d
2ffc6af4:	2ffc6bdd 	.word	0x2ffc6bdd
2ffc6af8:	2ffc6ba9 	.word	0x2ffc6ba9
2ffc6afc:	2ffc6bc7 	.word	0x2ffc6bc7
2ffc6b00:	2ffc6bf7 	.word	0x2ffc6bf7
2ffc6b04:	f44f 4279 	mov.w	r2, #63744	@ 0xf900
2ffc6b08:	f2cf 72db 	movt	r2, #63451	@ 0xf7db
2ffc6b0c:	441a      	add	r2, r3
2ffc6b0e:	2a04      	cmp	r2, #4
2ffc6b10:	f200 8094 	bhi.w	2ffc6c3c <LL_RCC_GetUARTClockFreq+0x234>
2ffc6b14:	a301      	add	r3, pc, #4	@ (adr r3, 2ffc6b1c <LL_RCC_GetUARTClockFreq+0x114>)
2ffc6b16:	f853 f022 	ldr.w	pc, [r3, r2, lsl #2]
2ffc6b1a:	bf00      	nop
2ffc6b1c:	2ffc6c25 	.word	0x2ffc6c25
2ffc6b20:	2ffc6bdd 	.word	0x2ffc6bdd
2ffc6b24:	2ffc6ba9 	.word	0x2ffc6ba9
2ffc6b28:	2ffc6bc7 	.word	0x2ffc6bc7
2ffc6b2c:	2ffc6bf7 	.word	0x2ffc6bf7
2ffc6b30:	f5a3 2300 	sub.w	r3, r3, #524288	@ 0x80000
2ffc6b34:	f5a3 63e0 	sub.w	r3, r3, #1792	@ 0x700
2ffc6b38:	2b05      	cmp	r3, #5
2ffc6b3a:	d87f      	bhi.n	2ffc6c3c <LL_RCC_GetUARTClockFreq+0x234>
2ffc6b3c:	a201      	add	r2, pc, #4	@ (adr r2, 2ffc6b44 <LL_RCC_GetUARTClockFreq+0x13c>)
2ffc6b3e:	f852 f023 	ldr.w	pc, [r2, r3, lsl #2]
2ffc6b42:	bf00      	nop
2ffc6b44:	2ffc6b77 	.word	0x2ffc6b77
2ffc6b48:	2ffc6b8f 	.word	0x2ffc6b8f
2ffc6b4c:	2ffc6ba9 	.word	0x2ffc6ba9
2ffc6b50:	2ffc6bc7 	.word	0x2ffc6bc7
2ffc6b54:	2ffc6bdd 	.word	0x2ffc6bdd
2ffc6b58:	2ffc6bf7 	.word	0x2ffc6bf7
2ffc6b5c:	f240 7204 	movw	r2, #1796	@ 0x704
2ffc6b60:	f6c0 0224 	movt	r2, #2084	@ 0x824
2ffc6b64:	4293      	cmp	r3, r2
2ffc6b66:	d869      	bhi.n	2ffc6c3c <LL_RCC_GetUARTClockFreq+0x234>
2ffc6b68:	f44f 62e0 	mov.w	r2, #1792	@ 0x700
2ffc6b6c:	f6c0 0224 	movt	r2, #2084	@ 0x824
2ffc6b70:	4293      	cmp	r3, r2
2ffc6b72:	d2c7      	bcs.n	2ffc6b04 <LL_RCC_GetUARTClockFreq+0xfc>
2ffc6b74:	e062      	b.n	2ffc6c3c <LL_RCC_GetUARTClockFreq+0x234>
2ffc6b76:	f000 f871 	bl	2ffc6c5c <RCC_GetAXISSClockFreq>
2ffc6b7a:	4603      	mov	r3, r0
2ffc6b7c:	4618      	mov	r0, r3
2ffc6b7e:	f000 f8d5 	bl	2ffc6d2c <RCC_GetACLKClockFreq>
2ffc6b82:	4603      	mov	r3, r0
2ffc6b84:	4618      	mov	r0, r3
2ffc6b86:	f000 f907 	bl	2ffc6d98 <RCC_GetPCLK5ClockFreq>
2ffc6b8a:	6178      	str	r0, [r7, #20]
2ffc6b8c:	e061      	b.n	2ffc6c52 <LL_RCC_GetUARTClockFreq+0x24a>
2ffc6b8e:	f7ff fbd0 	bl	2ffc6332 <LL_RCC_PLL3_IsReady>
2ffc6b92:	4603      	mov	r3, r0
2ffc6b94:	2b00      	cmp	r3, #0
2ffc6b96:	d053      	beq.n	2ffc6c40 <LL_RCC_GetUARTClockFreq+0x238>
2ffc6b98:	f107 0308 	add.w	r3, r7, #8
2ffc6b9c:	4618      	mov	r0, r3
2ffc6b9e:	f7ff fdbc 	bl	2ffc671a <LL_RCC_GetPLL3ClockFreq>
2ffc6ba2:	68fb      	ldr	r3, [r7, #12]
2ffc6ba4:	617b      	str	r3, [r7, #20]
2ffc6ba6:	e04b      	b.n	2ffc6c40 <LL_RCC_GetUARTClockFreq+0x238>
2ffc6ba8:	f7ff fa5d 	bl	2ffc6066 <LL_RCC_HSI_IsReady>
2ffc6bac:	4603      	mov	r3, r0
2ffc6bae:	2b00      	cmp	r3, #0
2ffc6bb0:	d048      	beq.n	2ffc6c44 <LL_RCC_GetUARTClockFreq+0x23c>
2ffc6bb2:	f7ff fa6a 	bl	2ffc608a <LL_RCC_HSI_GetDivider>
2ffc6bb6:	4602      	mov	r2, r0
2ffc6bb8:	f44f 4310 	mov.w	r3, #36864	@ 0x9000
2ffc6bbc:	f2c0 33d0 	movt	r3, #976	@ 0x3d0
2ffc6bc0:	40d3      	lsrs	r3, r2
2ffc6bc2:	617b      	str	r3, [r7, #20]
2ffc6bc4:	e03e      	b.n	2ffc6c44 <LL_RCC_GetUARTClockFreq+0x23c>
2ffc6bc6:	f7ff fa6c 	bl	2ffc60a2 <LL_RCC_CSI_IsReady>
2ffc6bca:	4603      	mov	r3, r0
2ffc6bcc:	2b00      	cmp	r3, #0
2ffc6bce:	d03b      	beq.n	2ffc6c48 <LL_RCC_GetUARTClockFreq+0x240>
2ffc6bd0:	f44f 6310 	mov.w	r3, #2304	@ 0x900
2ffc6bd4:	f2c0 033d 	movt	r3, #61	@ 0x3d
2ffc6bd8:	617b      	str	r3, [r7, #20]
2ffc6bda:	e035      	b.n	2ffc6c48 <LL_RCC_GetUARTClockFreq+0x240>
2ffc6bdc:	f7ff fc68 	bl	2ffc64b0 <LL_RCC_PLL4_IsReady>
2ffc6be0:	4603      	mov	r3, r0
2ffc6be2:	2b00      	cmp	r3, #0
2ffc6be4:	d032      	beq.n	2ffc6c4c <LL_RCC_GetUARTClockFreq+0x244>
2ffc6be6:	f107 0308 	add.w	r3, r7, #8
2ffc6bea:	4618      	mov	r0, r3
2ffc6bec:	f7ff fe2e 	bl	2ffc684c <LL_RCC_GetPLL4ClockFreq>
2ffc6bf0:	68fb      	ldr	r3, [r7, #12]
2ffc6bf2:	617b      	str	r3, [r7, #20]
2ffc6bf4:	e02a      	b.n	2ffc6c4c <LL_RCC_GetUARTClockFreq+0x244>
2ffc6bf6:	f7ff fa23 	bl	2ffc6040 <LL_RCC_HSE_IsReady>
2ffc6bfa:	4603      	mov	r3, r0
2ffc6bfc:	2b00      	cmp	r3, #0
2ffc6bfe:	d027      	beq.n	2ffc6c50 <LL_RCC_GetUARTClockFreq+0x248>
2ffc6c00:	f44f 5358 	mov.w	r3, #13824	@ 0x3600
2ffc6c04:	f2c0 136e 	movt	r3, #366	@ 0x16e
2ffc6c08:	617b      	str	r3, [r7, #20]
2ffc6c0a:	e021      	b.n	2ffc6c50 <LL_RCC_GetUARTClockFreq+0x248>
2ffc6c0c:	f000 f854 	bl	2ffc6cb8 <RCC_GetMCUSSClockFreq>
2ffc6c10:	4603      	mov	r3, r0
2ffc6c12:	4618      	mov	r0, r3
2ffc6c14:	f000 f899 	bl	2ffc6d4a <RCC_GetMLHCLKClockFreq>
2ffc6c18:	4603      	mov	r3, r0
2ffc6c1a:	4618      	mov	r0, r3
2ffc6c1c:	f000 f8a2 	bl	2ffc6d64 <RCC_GetPCLK1ClockFreq>
2ffc6c20:	6178      	str	r0, [r7, #20]
2ffc6c22:	e016      	b.n	2ffc6c52 <LL_RCC_GetUARTClockFreq+0x24a>
2ffc6c24:	f000 f848 	bl	2ffc6cb8 <RCC_GetMCUSSClockFreq>
2ffc6c28:	4603      	mov	r3, r0
2ffc6c2a:	4618      	mov	r0, r3
2ffc6c2c:	f000 f88d 	bl	2ffc6d4a <RCC_GetMLHCLKClockFreq>
2ffc6c30:	4603      	mov	r3, r0
2ffc6c32:	4618      	mov	r0, r3
2ffc6c34:	f000 f8a3 	bl	2ffc6d7e <RCC_GetPCLK2ClockFreq>
2ffc6c38:	6178      	str	r0, [r7, #20]
2ffc6c3a:	e00a      	b.n	2ffc6c52 <LL_RCC_GetUARTClockFreq+0x24a>
2ffc6c3c:	bf00      	nop
2ffc6c3e:	e008      	b.n	2ffc6c52 <LL_RCC_GetUARTClockFreq+0x24a>
2ffc6c40:	bf00      	nop
2ffc6c42:	e006      	b.n	2ffc6c52 <LL_RCC_GetUARTClockFreq+0x24a>
2ffc6c44:	bf00      	nop
2ffc6c46:	e004      	b.n	2ffc6c52 <LL_RCC_GetUARTClockFreq+0x24a>
2ffc6c48:	bf00      	nop
2ffc6c4a:	e002      	b.n	2ffc6c52 <LL_RCC_GetUARTClockFreq+0x24a>
2ffc6c4c:	bf00      	nop
2ffc6c4e:	e000      	b.n	2ffc6c52 <LL_RCC_GetUARTClockFreq+0x24a>
2ffc6c50:	bf00      	nop
2ffc6c52:	697b      	ldr	r3, [r7, #20]
2ffc6c54:	4618      	mov	r0, r3
2ffc6c56:	3718      	adds	r7, #24
2ffc6c58:	46bd      	mov	sp, r7
2ffc6c5a:	bd80      	pop	{r7, pc}

2ffc6c5c <RCC_GetAXISSClockFreq>:
2ffc6c5c:	b580      	push	{r7, lr}
2ffc6c5e:	b084      	sub	sp, #16
2ffc6c60:	af00      	add	r7, sp, #0
2ffc6c62:	2300      	movs	r3, #0
2ffc6c64:	60fb      	str	r3, [r7, #12]
2ffc6c66:	f7ff fa2e 	bl	2ffc60c6 <LL_RCC_GetAXISSClkSource>
2ffc6c6a:	4603      	mov	r3, r0
2ffc6c6c:	2b02      	cmp	r3, #2
2ffc6c6e:	d016      	beq.n	2ffc6c9e <RCC_GetAXISSClockFreq+0x42>
2ffc6c70:	2b02      	cmp	r3, #2
2ffc6c72:	d81b      	bhi.n	2ffc6cac <RCC_GetAXISSClockFreq+0x50>
2ffc6c74:	2b00      	cmp	r3, #0
2ffc6c76:	d002      	beq.n	2ffc6c7e <RCC_GetAXISSClockFreq+0x22>
2ffc6c78:	2b01      	cmp	r3, #1
2ffc6c7a:	d00a      	beq.n	2ffc6c92 <RCC_GetAXISSClockFreq+0x36>
2ffc6c7c:	e016      	b.n	2ffc6cac <RCC_GetAXISSClockFreq+0x50>
2ffc6c7e:	f7ff fa04 	bl	2ffc608a <LL_RCC_HSI_GetDivider>
2ffc6c82:	4602      	mov	r2, r0
2ffc6c84:	f44f 4310 	mov.w	r3, #36864	@ 0x9000
2ffc6c88:	f2c0 33d0 	movt	r3, #976	@ 0x3d0
2ffc6c8c:	40d3      	lsrs	r3, r2
2ffc6c8e:	60fb      	str	r3, [r7, #12]
2ffc6c90:	e00d      	b.n	2ffc6cae <RCC_GetAXISSClockFreq+0x52>
2ffc6c92:	f44f 5358 	mov.w	r3, #13824	@ 0x3600
2ffc6c96:	f2c0 136e 	movt	r3, #366	@ 0x16e
2ffc6c9a:	60fb      	str	r3, [r7, #12]
2ffc6c9c:	e007      	b.n	2ffc6cae <RCC_GetAXISSClockFreq+0x52>
2ffc6c9e:	463b      	mov	r3, r7
2ffc6ca0:	4618      	mov	r0, r3
2ffc6ca2:	f7ff fcb7 	bl	2ffc6614 <LL_RCC_GetPLL2ClockFreq>
2ffc6ca6:	683b      	ldr	r3, [r7, #0]
2ffc6ca8:	60fb      	str	r3, [r7, #12]
2ffc6caa:	e000      	b.n	2ffc6cae <RCC_GetAXISSClockFreq+0x52>
2ffc6cac:	bf00      	nop
2ffc6cae:	68fb      	ldr	r3, [r7, #12]
2ffc6cb0:	4618      	mov	r0, r3
2ffc6cb2:	3710      	adds	r7, #16
2ffc6cb4:	46bd      	mov	sp, r7
2ffc6cb6:	bd80      	pop	{r7, pc}

2ffc6cb8 <RCC_GetMCUSSClockFreq>:
2ffc6cb8:	b580      	push	{r7, lr}
2ffc6cba:	b084      	sub	sp, #16
2ffc6cbc:	af00      	add	r7, sp, #0
2ffc6cbe:	2300      	movs	r3, #0
2ffc6cc0:	60fb      	str	r3, [r7, #12]
2ffc6cc2:	f7ff fa0c 	bl	2ffc60de <LL_RCC_GetMCUSSClkSource>
2ffc6cc6:	4603      	mov	r3, r0
2ffc6cc8:	2b03      	cmp	r3, #3
2ffc6cca:	d828      	bhi.n	2ffc6d1e <RCC_GetMCUSSClockFreq+0x66>
2ffc6ccc:	a201      	add	r2, pc, #4	@ (adr r2, 2ffc6cd4 <RCC_GetMCUSSClockFreq+0x1c>)
2ffc6cce:	f852 f023 	ldr.w	pc, [r2, r3, lsl #2]
2ffc6cd2:	bf00      	nop
2ffc6cd4:	2ffc6ce5 	.word	0x2ffc6ce5
2ffc6cd8:	2ffc6cf9 	.word	0x2ffc6cf9
2ffc6cdc:	2ffc6d05 	.word	0x2ffc6d05
2ffc6ce0:	2ffc6d11 	.word	0x2ffc6d11
2ffc6ce4:	f7ff f9d1 	bl	2ffc608a <LL_RCC_HSI_GetDivider>
2ffc6ce8:	4602      	mov	r2, r0
2ffc6cea:	f44f 4310 	mov.w	r3, #36864	@ 0x9000
2ffc6cee:	f2c0 33d0 	movt	r3, #976	@ 0x3d0
2ffc6cf2:	40d3      	lsrs	r3, r2
2ffc6cf4:	60fb      	str	r3, [r7, #12]
2ffc6cf6:	e013      	b.n	2ffc6d20 <RCC_GetMCUSSClockFreq+0x68>
2ffc6cf8:	f44f 5358 	mov.w	r3, #13824	@ 0x3600
2ffc6cfc:	f2c0 136e 	movt	r3, #366	@ 0x16e
2ffc6d00:	60fb      	str	r3, [r7, #12]
2ffc6d02:	e00d      	b.n	2ffc6d20 <RCC_GetMCUSSClockFreq+0x68>
2ffc6d04:	f44f 6310 	mov.w	r3, #2304	@ 0x900
2ffc6d08:	f2c0 033d 	movt	r3, #61	@ 0x3d
2ffc6d0c:	60fb      	str	r3, [r7, #12]
2ffc6d0e:	e007      	b.n	2ffc6d20 <RCC_GetMCUSSClockFreq+0x68>
2ffc6d10:	463b      	mov	r3, r7
2ffc6d12:	4618      	mov	r0, r3
2ffc6d14:	f7ff fd01 	bl	2ffc671a <LL_RCC_GetPLL3ClockFreq>
2ffc6d18:	683b      	ldr	r3, [r7, #0]
2ffc6d1a:	60fb      	str	r3, [r7, #12]
2ffc6d1c:	e000      	b.n	2ffc6d20 <RCC_GetMCUSSClockFreq+0x68>
2ffc6d1e:	bf00      	nop
2ffc6d20:	68fb      	ldr	r3, [r7, #12]
2ffc6d22:	4618      	mov	r0, r3
2ffc6d24:	3710      	adds	r7, #16
2ffc6d26:	46bd      	mov	sp, r7
2ffc6d28:	bd80      	pop	{r7, pc}
2ffc6d2a:	bf00      	nop

2ffc6d2c <RCC_GetACLKClockFreq>:
2ffc6d2c:	b580      	push	{r7, lr}
2ffc6d2e:	b082      	sub	sp, #8
2ffc6d30:	af00      	add	r7, sp, #0
2ffc6d32:	6078      	str	r0, [r7, #4]
2ffc6d34:	f7ff f9df 	bl	2ffc60f6 <LL_RCC_GetACLKPrescaler>
2ffc6d38:	4603      	mov	r3, r0
2ffc6d3a:	3301      	adds	r3, #1
2ffc6d3c:	687a      	ldr	r2, [r7, #4]
2ffc6d3e:	fbb2 f3f3 	udiv	r3, r2, r3
2ffc6d42:	4618      	mov	r0, r3
2ffc6d44:	3708      	adds	r7, #8
2ffc6d46:	46bd      	mov	sp, r7
2ffc6d48:	bd80      	pop	{r7, pc}

2ffc6d4a <RCC_GetMLHCLKClockFreq>:
2ffc6d4a:	b580      	push	{r7, lr}
2ffc6d4c:	b082      	sub	sp, #8
2ffc6d4e:	af00      	add	r7, sp, #0
2ffc6d50:	6078      	str	r0, [r7, #4]
2ffc6d52:	f7ff f9e8 	bl	2ffc6126 <LL_RCC_GetMLHCLKPrescaler>
2ffc6d56:	4602      	mov	r2, r0
2ffc6d58:	687b      	ldr	r3, [r7, #4]
2ffc6d5a:	40d3      	lsrs	r3, r2
2ffc6d5c:	4618      	mov	r0, r3
2ffc6d5e:	3708      	adds	r7, #8
2ffc6d60:	46bd      	mov	sp, r7
2ffc6d62:	bd80      	pop	{r7, pc}

2ffc6d64 <RCC_GetPCLK1ClockFreq>:
2ffc6d64:	b580      	push	{r7, lr}
2ffc6d66:	b082      	sub	sp, #8
2ffc6d68:	af00      	add	r7, sp, #0
2ffc6d6a:	6078      	str	r0, [r7, #4]
2ffc6d6c:	f7ff f9e8 	bl	2ffc6140 <LL_RCC_GetAPB1Prescaler>
2ffc6d70:	4602      	mov	r2, r0
2ffc6d72:	687b      	ldr	r3, [r7, #4]
2ffc6d74:	40d3      	lsrs	r3, r2
2ffc6d76:	4618      	mov	r0, r3
2ffc6d78:	3708      	adds	r7, #8
2ffc6d7a:	46bd      	mov	sp, r7
2ffc6d7c:	bd80      	pop	{r7, pc}

2ffc6d7e <RCC_GetPCLK2ClockFreq>:
2ffc6d7e:	b580      	push	{r7, lr}
2ffc6d80:	b082      	sub	sp, #8
2ffc6d82:	af00      	add	r7, sp, #0
2ffc6d84:	6078      	str	r0, [r7, #4]
2ffc6d86:	f7ff f9e8 	bl	2ffc615a <LL_RCC_GetAPB2Prescaler>
2ffc6d8a:	4602      	mov	r2, r0
2ffc6d8c:	687b      	ldr	r3, [r7, #4]
2ffc6d8e:	40d3      	lsrs	r3, r2
2ffc6d90:	4618      	mov	r0, r3
2ffc6d92:	3708      	adds	r7, #8
2ffc6d94:	46bd      	mov	sp, r7
2ffc6d96:	bd80      	pop	{r7, pc}

2ffc6d98 <RCC_GetPCLK5ClockFreq>:
2ffc6d98:	b580      	push	{r7, lr}
2ffc6d9a:	b082      	sub	sp, #8
2ffc6d9c:	af00      	add	r7, sp, #0
2ffc6d9e:	6078      	str	r0, [r7, #4]
2ffc6da0:	f7ff f9b5 	bl	2ffc610e <LL_RCC_GetAPB5Prescaler>
2ffc6da4:	4602      	mov	r2, r0
2ffc6da6:	687b      	ldr	r3, [r7, #4]
2ffc6da8:	40d3      	lsrs	r3, r2
2ffc6daa:	4618      	mov	r0, r3
2ffc6dac:	3708      	adds	r7, #8
2ffc6dae:	46bd      	mov	sp, r7
2ffc6db0:	bd80      	pop	{r7, pc}

2ffc6db2 <GIC_EnableDistributor>:
2ffc6db2:	b480      	push	{r7}
2ffc6db4:	af00      	add	r7, sp, #0
2ffc6db6:	f44f 5380 	mov.w	r3, #4096	@ 0x1000
2ffc6dba:	f2ca 0302 	movt	r3, #40962	@ 0xa002
2ffc6dbe:	681a      	ldr	r2, [r3, #0]
2ffc6dc0:	f44f 5380 	mov.w	r3, #4096	@ 0x1000
2ffc6dc4:	f2ca 0302 	movt	r3, #40962	@ 0xa002
2ffc6dc8:	f042 0201 	orr.w	r2, r2, #1
2ffc6dcc:	601a      	str	r2, [r3, #0]
2ffc6dce:	bf00      	nop
2ffc6dd0:	46bd      	mov	sp, r7
2ffc6dd2:	f85d 7b04 	ldr.w	r7, [sp], #4
2ffc6dd6:	4770      	bx	lr

2ffc6dd8 <GIC_DisableDistributor>:
2ffc6dd8:	b480      	push	{r7}
2ffc6dda:	af00      	add	r7, sp, #0
2ffc6ddc:	f44f 5380 	mov.w	r3, #4096	@ 0x1000
2ffc6de0:	f2ca 0302 	movt	r3, #40962	@ 0xa002
2ffc6de4:	681a      	ldr	r2, [r3, #0]
2ffc6de6:	f44f 5380 	mov.w	r3, #4096	@ 0x1000
2ffc6dea:	f2ca 0302 	movt	r3, #40962	@ 0xa002
2ffc6dee:	f022 0201 	bic.w	r2, r2, #1
2ffc6df2:	601a      	str	r2, [r3, #0]
2ffc6df4:	bf00      	nop
2ffc6df6:	46bd      	mov	sp, r7
2ffc6df8:	f85d 7b04 	ldr.w	r7, [sp], #4
2ffc6dfc:	4770      	bx	lr

2ffc6dfe <GIC_DistributorInfo>:
2ffc6dfe:	b480      	push	{r7}
2ffc6e00:	af00      	add	r7, sp, #0
2ffc6e02:	f44f 5380 	mov.w	r3, #4096	@ 0x1000
2ffc6e06:	f2ca 0302 	movt	r3, #40962	@ 0xa002
2ffc6e0a:	685b      	ldr	r3, [r3, #4]
2ffc6e0c:	4618      	mov	r0, r3
2ffc6e0e:	46bd      	mov	sp, r7
2ffc6e10:	f85d 7b04 	ldr.w	r7, [sp], #4
2ffc6e14:	4770      	bx	lr

2ffc6e16 <GIC_SetTarget>:
2ffc6e16:	b480      	push	{r7}
2ffc6e18:	b085      	sub	sp, #20
2ffc6e1a:	af00      	add	r7, sp, #0
2ffc6e1c:	4603      	mov	r3, r0
2ffc6e1e:	6039      	str	r1, [r7, #0]
2ffc6e20:	80fb      	strh	r3, [r7, #6]
2ffc6e22:	f44f 5380 	mov.w	r3, #4096	@ 0x1000
2ffc6e26:	f2ca 0302 	movt	r3, #40962	@ 0xa002
2ffc6e2a:	88fa      	ldrh	r2, [r7, #6]
2ffc6e2c:	0892      	lsrs	r2, r2, #2
2ffc6e2e:	b292      	uxth	r2, r2
2ffc6e30:	f502 7200 	add.w	r2, r2, #512	@ 0x200
2ffc6e34:	f853 2022 	ldr.w	r2, [r3, r2, lsl #2]
2ffc6e38:	88fb      	ldrh	r3, [r7, #6]
2ffc6e3a:	f003 0303 	and.w	r3, r3, #3
2ffc6e3e:	00db      	lsls	r3, r3, #3
2ffc6e40:	21ff      	movs	r1, #255	@ 0xff
2ffc6e42:	fa01 f303 	lsl.w	r3, r1, r3
2ffc6e46:	43db      	mvns	r3, r3
2ffc6e48:	4013      	ands	r3, r2
2ffc6e4a:	60fb      	str	r3, [r7, #12]
2ffc6e4c:	683b      	ldr	r3, [r7, #0]
2ffc6e4e:	b2da      	uxtb	r2, r3
2ffc6e50:	88fb      	ldrh	r3, [r7, #6]
2ffc6e52:	f003 0303 	and.w	r3, r3, #3
2ffc6e56:	00db      	lsls	r3, r3, #3
2ffc6e58:	fa02 f103 	lsl.w	r1, r2, r3
2ffc6e5c:	f44f 5380 	mov.w	r3, #4096	@ 0x1000
2ffc6e60:	f2ca 0302 	movt	r3, #40962	@ 0xa002
2ffc6e64:	88fa      	ldrh	r2, [r7, #6]
2ffc6e66:	0892      	lsrs	r2, r2, #2
2ffc6e68:	b292      	uxth	r2, r2
2ffc6e6a:	4610      	mov	r0, r2
2ffc6e6c:	68fa      	ldr	r2, [r7, #12]
2ffc6e6e:	4311      	orrs	r1, r2
2ffc6e70:	f500 7200 	add.w	r2, r0, #512	@ 0x200
2ffc6e74:	f843 1022 	str.w	r1, [r3, r2, lsl #2]
2ffc6e78:	bf00      	nop
2ffc6e7a:	3714      	adds	r7, #20
2ffc6e7c:	46bd      	mov	sp, r7
2ffc6e7e:	f85d 7b04 	ldr.w	r7, [sp], #4
2ffc6e82:	4770      	bx	lr

2ffc6e84 <GIC_EnableInterface>:
2ffc6e84:	b480      	push	{r7}
2ffc6e86:	af00      	add	r7, sp, #0
2ffc6e88:	f44f 5300 	mov.w	r3, #8192	@ 0x2000
2ffc6e8c:	f2ca 0302 	movt	r3, #40962	@ 0xa002
2ffc6e90:	681a      	ldr	r2, [r3, #0]
2ffc6e92:	f44f 5300 	mov.w	r3, #8192	@ 0x2000
2ffc6e96:	f2ca 0302 	movt	r3, #40962	@ 0xa002
2ffc6e9a:	f042 0201 	orr.w	r2, r2, #1
2ffc6e9e:	601a      	str	r2, [r3, #0]
2ffc6ea0:	bf00      	nop
2ffc6ea2:	46bd      	mov	sp, r7
2ffc6ea4:	f85d 7b04 	ldr.w	r7, [sp], #4
2ffc6ea8:	4770      	bx	lr

2ffc6eaa <GIC_DisableInterface>:
2ffc6eaa:	b480      	push	{r7}
2ffc6eac:	af00      	add	r7, sp, #0
2ffc6eae:	f44f 5300 	mov.w	r3, #8192	@ 0x2000
2ffc6eb2:	f2ca 0302 	movt	r3, #40962	@ 0xa002
2ffc6eb6:	681a      	ldr	r2, [r3, #0]
2ffc6eb8:	f44f 5300 	mov.w	r3, #8192	@ 0x2000
2ffc6ebc:	f2ca 0302 	movt	r3, #40962	@ 0xa002
2ffc6ec0:	f022 0201 	bic.w	r2, r2, #1
2ffc6ec4:	601a      	str	r2, [r3, #0]
2ffc6ec6:	bf00      	nop
2ffc6ec8:	46bd      	mov	sp, r7
2ffc6eca:	f85d 7b04 	ldr.w	r7, [sp], #4
2ffc6ece:	4770      	bx	lr

2ffc6ed0 <GIC_AcknowledgePending>:
2ffc6ed0:	b480      	push	{r7}
2ffc6ed2:	af00      	add	r7, sp, #0
2ffc6ed4:	f44f 5300 	mov.w	r3, #8192	@ 0x2000
2ffc6ed8:	f2ca 0302 	movt	r3, #40962	@ 0xa002
2ffc6edc:	68db      	ldr	r3, [r3, #12]
2ffc6ede:	b29b      	uxth	r3, r3
2ffc6ee0:	4618      	mov	r0, r3
2ffc6ee2:	46bd      	mov	sp, r7
2ffc6ee4:	f85d 7b04 	ldr.w	r7, [sp], #4
2ffc6ee8:	4770      	bx	lr

2ffc6eea <GIC_EndInterrupt>:
2ffc6eea:	b480      	push	{r7}
2ffc6eec:	b083      	sub	sp, #12
2ffc6eee:	af00      	add	r7, sp, #0
2ffc6ef0:	4603      	mov	r3, r0
2ffc6ef2:	80fb      	strh	r3, [r7, #6]
2ffc6ef4:	f44f 5300 	mov.w	r3, #8192	@ 0x2000
2ffc6ef8:	f2ca 0302 	movt	r3, #40962	@ 0xa002
2ffc6efc:	88fa      	ldrh	r2, [r7, #6]
2ffc6efe:	611a      	str	r2, [r3, #16]
2ffc6f00:	bf00      	nop
2ffc6f02:	370c      	adds	r7, #12
2ffc6f04:	46bd      	mov	sp, r7
2ffc6f06:	f85d 7b04 	ldr.w	r7, [sp], #4
2ffc6f0a:	4770      	bx	lr

2ffc6f0c <GIC_EnableIRQ>:
2ffc6f0c:	b480      	push	{r7}
2ffc6f0e:	b083      	sub	sp, #12
2ffc6f10:	af00      	add	r7, sp, #0
2ffc6f12:	4603      	mov	r3, r0
2ffc6f14:	80fb      	strh	r3, [r7, #6]
2ffc6f16:	88fb      	ldrh	r3, [r7, #6]
2ffc6f18:	f003 021f 	and.w	r2, r3, #31
2ffc6f1c:	f44f 5380 	mov.w	r3, #4096	@ 0x1000
2ffc6f20:	f2ca 0302 	movt	r3, #40962	@ 0xa002
2ffc6f24:	88f9      	ldrh	r1, [r7, #6]
2ffc6f26:	0949      	lsrs	r1, r1, #5
2ffc6f28:	b289      	uxth	r1, r1
2ffc6f2a:	4608      	mov	r0, r1
2ffc6f2c:	2101      	movs	r1, #1
2ffc6f2e:	4091      	lsls	r1, r2
2ffc6f30:	f100 0240 	add.w	r2, r0, #64	@ 0x40
2ffc6f34:	f843 1022 	str.w	r1, [r3, r2, lsl #2]
2ffc6f38:	bf00      	nop
2ffc6f3a:	370c      	adds	r7, #12
2ffc6f3c:	46bd      	mov	sp, r7
2ffc6f3e:	f85d 7b04 	ldr.w	r7, [sp], #4
2ffc6f42:	4770      	bx	lr

2ffc6f44 <GIC_DisableIRQ>:
2ffc6f44:	b480      	push	{r7}
2ffc6f46:	b083      	sub	sp, #12
2ffc6f48:	af00      	add	r7, sp, #0
2ffc6f4a:	4603      	mov	r3, r0
2ffc6f4c:	80fb      	strh	r3, [r7, #6]
2ffc6f4e:	88fb      	ldrh	r3, [r7, #6]
2ffc6f50:	f003 021f 	and.w	r2, r3, #31
2ffc6f54:	f44f 5380 	mov.w	r3, #4096	@ 0x1000
2ffc6f58:	f2ca 0302 	movt	r3, #40962	@ 0xa002
2ffc6f5c:	88f9      	ldrh	r1, [r7, #6]
2ffc6f5e:	0949      	lsrs	r1, r1, #5
2ffc6f60:	b289      	uxth	r1, r1
2ffc6f62:	4608      	mov	r0, r1
2ffc6f64:	2101      	movs	r1, #1
2ffc6f66:	4091      	lsls	r1, r2
2ffc6f68:	f100 0260 	add.w	r2, r0, #96	@ 0x60
2ffc6f6c:	f843 1022 	str.w	r1, [r3, r2, lsl #2]
2ffc6f70:	bf00      	nop
2ffc6f72:	370c      	adds	r7, #12
2ffc6f74:	46bd      	mov	sp, r7
2ffc6f76:	f85d 7b04 	ldr.w	r7, [sp], #4
2ffc6f7a:	4770      	bx	lr

2ffc6f7c <GIC_ClearPendingIRQ>:
2ffc6f7c:	b480      	push	{r7}
2ffc6f7e:	b083      	sub	sp, #12
2ffc6f80:	af00      	add	r7, sp, #0
2ffc6f82:	4603      	mov	r3, r0
2ffc6f84:	80fb      	strh	r3, [r7, #6]
2ffc6f86:	88fb      	ldrh	r3, [r7, #6]
2ffc6f88:	2b0f      	cmp	r3, #15
2ffc6f8a:	d911      	bls.n	2ffc6fb0 <GIC_ClearPendingIRQ+0x34>
2ffc6f8c:	88fb      	ldrh	r3, [r7, #6]
2ffc6f8e:	f003 021f 	and.w	r2, r3, #31
2ffc6f92:	f44f 5380 	mov.w	r3, #4096	@ 0x1000
2ffc6f96:	f2ca 0302 	movt	r3, #40962	@ 0xa002
2ffc6f9a:	88f9      	ldrh	r1, [r7, #6]
2ffc6f9c:	0949      	lsrs	r1, r1, #5
2ffc6f9e:	b289      	uxth	r1, r1
2ffc6fa0:	4608      	mov	r0, r1
2ffc6fa2:	2101      	movs	r1, #1
2ffc6fa4:	4091      	lsls	r1, r2
2ffc6fa6:	f100 02a0 	add.w	r2, r0, #160	@ 0xa0
2ffc6faa:	f843 1022 	str.w	r1, [r3, r2, lsl #2]
2ffc6fae:	e011      	b.n	2ffc6fd4 <GIC_ClearPendingIRQ+0x58>
2ffc6fb0:	88fb      	ldrh	r3, [r7, #6]
2ffc6fb2:	f003 0303 	and.w	r3, r3, #3
2ffc6fb6:	00da      	lsls	r2, r3, #3
2ffc6fb8:	f44f 5380 	mov.w	r3, #4096	@ 0x1000
2ffc6fbc:	f2ca 0302 	movt	r3, #40962	@ 0xa002
2ffc6fc0:	88f9      	ldrh	r1, [r7, #6]
2ffc6fc2:	0889      	lsrs	r1, r1, #2
2ffc6fc4:	b289      	uxth	r1, r1
2ffc6fc6:	4608      	mov	r0, r1
2ffc6fc8:	2101      	movs	r1, #1
2ffc6fca:	4091      	lsls	r1, r2
2ffc6fcc:	f500 7271 	add.w	r2, r0, #964	@ 0x3c4
2ffc6fd0:	f843 1022 	str.w	r1, [r3, r2, lsl #2]
2ffc6fd4:	bf00      	nop
2ffc6fd6:	370c      	adds	r7, #12
2ffc6fd8:	46bd      	mov	sp, r7
2ffc6fda:	f85d 7b04 	ldr.w	r7, [sp], #4
2ffc6fde:	4770      	bx	lr

2ffc6fe0 <GIC_SetConfiguration>:
2ffc6fe0:	b480      	push	{r7}
2ffc6fe2:	b085      	sub	sp, #20
2ffc6fe4:	af00      	add	r7, sp, #0
2ffc6fe6:	4603      	mov	r3, r0
2ffc6fe8:	6039      	str	r1, [r7, #0]
2ffc6fea:	80fb      	strh	r3, [r7, #6]
2ffc6fec:	f44f 5380 	mov.w	r3, #4096	@ 0x1000
2ffc6ff0:	f2ca 0302 	movt	r3, #40962	@ 0xa002
2ffc6ff4:	88fa      	ldrh	r2, [r7, #6]
2ffc6ff6:	0912      	lsrs	r2, r2, #4
2ffc6ff8:	b292      	uxth	r2, r2
2ffc6ffa:	f502 7240 	add.w	r2, r2, #768	@ 0x300
2ffc6ffe:	f853 3022 	ldr.w	r3, [r3, r2, lsl #2]
2ffc7002:	60fb      	str	r3, [r7, #12]
2ffc7004:	88fb      	ldrh	r3, [r7, #6]
2ffc7006:	005b      	lsls	r3, r3, #1
2ffc7008:	f003 031e 	and.w	r3, r3, #30
2ffc700c:	60bb      	str	r3, [r7, #8]
2ffc700e:	2203      	movs	r2, #3
2ffc7010:	68bb      	ldr	r3, [r7, #8]
2ffc7012:	fa02 f303 	lsl.w	r3, r2, r3
2ffc7016:	43db      	mvns	r3, r3
2ffc7018:	68fa      	ldr	r2, [r7, #12]
2ffc701a:	4013      	ands	r3, r2
2ffc701c:	60fb      	str	r3, [r7, #12]
2ffc701e:	683a      	ldr	r2, [r7, #0]
2ffc7020:	68bb      	ldr	r3, [r7, #8]
2ffc7022:	fa02 f303 	lsl.w	r3, r2, r3
2ffc7026:	68fa      	ldr	r2, [r7, #12]
2ffc7028:	4313      	orrs	r3, r2
2ffc702a:	60fb      	str	r3, [r7, #12]
2ffc702c:	f44f 5380 	mov.w	r3, #4096	@ 0x1000
2ffc7030:	f2ca 0302 	movt	r3, #40962	@ 0xa002
2ffc7034:	88fa      	ldrh	r2, [r7, #6]
2ffc7036:	0912      	lsrs	r2, r2, #4
2ffc7038:	b292      	uxth	r2, r2
2ffc703a:	f502 7240 	add.w	r2, r2, #768	@ 0x300
2ffc703e:	68f9      	ldr	r1, [r7, #12]
2ffc7040:	f843 1022 	str.w	r1, [r3, r2, lsl #2]
2ffc7044:	bf00      	nop
2ffc7046:	3714      	adds	r7, #20
2ffc7048:	46bd      	mov	sp, r7
2ffc704a:	f85d 7b04 	ldr.w	r7, [sp], #4
2ffc704e:	4770      	bx	lr

2ffc7050 <GIC_SetPriority>:
2ffc7050:	b480      	push	{r7}
2ffc7052:	b085      	sub	sp, #20
2ffc7054:	af00      	add	r7, sp, #0
2ffc7056:	4603      	mov	r3, r0
2ffc7058:	6039      	str	r1, [r7, #0]
2ffc705a:	80fb      	strh	r3, [r7, #6]
2ffc705c:	f44f 5380 	mov.w	r3, #4096	@ 0x1000
2ffc7060:	f2ca 0302 	movt	r3, #40962	@ 0xa002
2ffc7064:	88fa      	ldrh	r2, [r7, #6]
2ffc7066:	0892      	lsrs	r2, r2, #2
2ffc7068:	b292      	uxth	r2, r2
2ffc706a:	f502 7280 	add.w	r2, r2, #256	@ 0x100
2ffc706e:	f853 2022 	ldr.w	r2, [r3, r2, lsl #2]
2ffc7072:	88fb      	ldrh	r3, [r7, #6]
2ffc7074:	f003 0303 	and.w	r3, r3, #3
2ffc7078:	00db      	lsls	r3, r3, #3
2ffc707a:	21ff      	movs	r1, #255	@ 0xff
2ffc707c:	fa01 f303 	lsl.w	r3, r1, r3
2ffc7080:	43db      	mvns	r3, r3
2ffc7082:	4013      	ands	r3, r2
2ffc7084:	60fb      	str	r3, [r7, #12]
2ffc7086:	683b      	ldr	r3, [r7, #0]
2ffc7088:	b2da      	uxtb	r2, r3
2ffc708a:	88fb      	ldrh	r3, [r7, #6]
2ffc708c:	f003 0303 	and.w	r3, r3, #3
2ffc7090:	00db      	lsls	r3, r3, #3
2ffc7092:	fa02 f103 	lsl.w	r1, r2, r3
2ffc7096:	f44f 5380 	mov.w	r3, #4096	@ 0x1000
2ffc709a:	f2ca 0302 	movt	r3, #40962	@ 0xa002
2ffc709e:	88fa      	ldrh	r2, [r7, #6]
2ffc70a0:	0892      	lsrs	r2, r2, #2
2ffc70a2:	b292      	uxth	r2, r2
2ffc70a4:	4610      	mov	r0, r2
2ffc70a6:	68fa      	ldr	r2, [r7, #12]
2ffc70a8:	4311      	orrs	r1, r2
2ffc70aa:	f500 7280 	add.w	r2, r0, #256	@ 0x100
2ffc70ae:	f843 1022 	str.w	r1, [r3, r2, lsl #2]
2ffc70b2:	bf00      	nop
2ffc70b4:	3714      	adds	r7, #20
2ffc70b6:	46bd      	mov	sp, r7
2ffc70b8:	f85d 7b04 	ldr.w	r7, [sp], #4
2ffc70bc:	4770      	bx	lr

2ffc70be <GIC_GetPriority>:
2ffc70be:	b480      	push	{r7}
2ffc70c0:	b083      	sub	sp, #12
2ffc70c2:	af00      	add	r7, sp, #0
2ffc70c4:	4603      	mov	r3, r0
2ffc70c6:	80fb      	strh	r3, [r7, #6]
2ffc70c8:	f44f 5380 	mov.w	r3, #4096	@ 0x1000
2ffc70cc:	f2ca 0302 	movt	r3, #40962	@ 0xa002
2ffc70d0:	88fa      	ldrh	r2, [r7, #6]
2ffc70d2:	0892      	lsrs	r2, r2, #2
2ffc70d4:	b292      	uxth	r2, r2
2ffc70d6:	f502 7280 	add.w	r2, r2, #256	@ 0x100
2ffc70da:	f853 2022 	ldr.w	r2, [r3, r2, lsl #2]
2ffc70de:	88fb      	ldrh	r3, [r7, #6]
2ffc70e0:	f003 0303 	and.w	r3, r3, #3
2ffc70e4:	00db      	lsls	r3, r3, #3
2ffc70e6:	fa22 f303 	lsr.w	r3, r2, r3
2ffc70ea:	b2db      	uxtb	r3, r3
2ffc70ec:	4618      	mov	r0, r3
2ffc70ee:	370c      	adds	r7, #12
2ffc70f0:	46bd      	mov	sp, r7
2ffc70f2:	f85d 7b04 	ldr.w	r7, [sp], #4
2ffc70f6:	4770      	bx	lr

2ffc70f8 <GIC_SetInterfacePriorityMask>:
2ffc70f8:	b480      	push	{r7}
2ffc70fa:	b083      	sub	sp, #12
2ffc70fc:	af00      	add	r7, sp, #0
2ffc70fe:	6078      	str	r0, [r7, #4]
2ffc7100:	f44f 5300 	mov.w	r3, #8192	@ 0x2000
2ffc7104:	f2ca 0302 	movt	r3, #40962	@ 0xa002
2ffc7108:	687a      	ldr	r2, [r7, #4]
2ffc710a:	b2d2      	uxtb	r2, r2
2ffc710c:	605a      	str	r2, [r3, #4]
2ffc710e:	bf00      	nop
2ffc7110:	370c      	adds	r7, #12
2ffc7112:	46bd      	mov	sp, r7
2ffc7114:	f85d 7b04 	ldr.w	r7, [sp], #4
2ffc7118:	4770      	bx	lr

2ffc711a <GIC_SetBinaryPoint>:
2ffc711a:	b480      	push	{r7}
2ffc711c:	b083      	sub	sp, #12
2ffc711e:	af00      	add	r7, sp, #0
2ffc7120:	6078      	str	r0, [r7, #4]
2ffc7122:	f44f 5300 	mov.w	r3, #8192	@ 0x2000
2ffc7126:	f2ca 0302 	movt	r3, #40962	@ 0xa002
2ffc712a:	687a      	ldr	r2, [r7, #4]
2ffc712c:	f002 0207 	and.w	r2, r2, #7
2ffc7130:	609a      	str	r2, [r3, #8]
2ffc7132:	bf00      	nop
2ffc7134:	370c      	adds	r7, #12
2ffc7136:	46bd      	mov	sp, r7
2ffc7138:	f85d 7b04 	ldr.w	r7, [sp], #4
2ffc713c:	4770      	bx	lr

2ffc713e <GIC_GetIRQStatus>:
2ffc713e:	b480      	push	{r7}
2ffc7140:	b085      	sub	sp, #20
2ffc7142:	af00      	add	r7, sp, #0
2ffc7144:	4603      	mov	r3, r0
2ffc7146:	80fb      	strh	r3, [r7, #6]
2ffc7148:	f44f 5380 	mov.w	r3, #4096	@ 0x1000
2ffc714c:	f2ca 0302 	movt	r3, #40962	@ 0xa002
2ffc7150:	88fa      	ldrh	r2, [r7, #6]
2ffc7152:	0952      	lsrs	r2, r2, #5
2ffc7154:	b292      	uxth	r2, r2
2ffc7156:	32c0      	adds	r2, #192	@ 0xc0
2ffc7158:	f853 2022 	ldr.w	r2, [r3, r2, lsl #2]
2ffc715c:	88fb      	ldrh	r3, [r7, #6]
2ffc715e:	f003 031f 	and.w	r3, r3, #31
2ffc7162:	fa22 f303 	lsr.w	r3, r2, r3
2ffc7166:	f003 0301 	and.w	r3, r3, #1
2ffc716a:	60fb      	str	r3, [r7, #12]
2ffc716c:	f44f 5380 	mov.w	r3, #4096	@ 0x1000
2ffc7170:	f2ca 0302 	movt	r3, #40962	@ 0xa002
2ffc7174:	88fa      	ldrh	r2, [r7, #6]
2ffc7176:	0952      	lsrs	r2, r2, #5
2ffc7178:	b292      	uxth	r2, r2
2ffc717a:	3280      	adds	r2, #128	@ 0x80
2ffc717c:	f853 2022 	ldr.w	r2, [r3, r2, lsl #2]
2ffc7180:	88fb      	ldrh	r3, [r7, #6]
2ffc7182:	f003 031f 	and.w	r3, r3, #31
2ffc7186:	fa22 f303 	lsr.w	r3, r2, r3
2ffc718a:	f003 0301 	and.w	r3, r3, #1
2ffc718e:	60bb      	str	r3, [r7, #8]
2ffc7190:	68fb      	ldr	r3, [r7, #12]
2ffc7192:	005a      	lsls	r2, r3, #1
2ffc7194:	68bb      	ldr	r3, [r7, #8]
2ffc7196:	4313      	orrs	r3, r2
2ffc7198:	4618      	mov	r0, r3
2ffc719a:	3714      	adds	r7, #20
2ffc719c:	46bd      	mov	sp, r7
2ffc719e:	f85d 7b04 	ldr.w	r7, [sp], #4
2ffc71a2:	4770      	bx	lr

2ffc71a4 <GIC_GetHighPendingIRQ>:
2ffc71a4:	b480      	push	{r7}
2ffc71a6:	af00      	add	r7, sp, #0
2ffc71a8:	f44f 5300 	mov.w	r3, #8192	@ 0x2000
2ffc71ac:	f2ca 0302 	movt	r3, #40962	@ 0xa002
2ffc71b0:	699b      	ldr	r3, [r3, #24]
2ffc71b2:	4618      	mov	r0, r3
2ffc71b4:	46bd      	mov	sp, r7
2ffc71b6:	f85d 7b04 	ldr.w	r7, [sp], #4
2ffc71ba:	4770      	bx	lr

2ffc71bc <GIC_SetGroup>:
2ffc71bc:	b480      	push	{r7}
2ffc71be:	b085      	sub	sp, #20
2ffc71c0:	af00      	add	r7, sp, #0
2ffc71c2:	4603      	mov	r3, r0
2ffc71c4:	6039      	str	r1, [r7, #0]
2ffc71c6:	80fb      	strh	r3, [r7, #6]
2ffc71c8:	f44f 5380 	mov.w	r3, #4096	@ 0x1000
2ffc71cc:	f2ca 0302 	movt	r3, #40962	@ 0xa002
2ffc71d0:	88fa      	ldrh	r2, [r7, #6]
2ffc71d2:	0952      	lsrs	r2, r2, #5
2ffc71d4:	b292      	uxth	r2, r2
2ffc71d6:	3220      	adds	r2, #32
2ffc71d8:	f853 3022 	ldr.w	r3, [r3, r2, lsl #2]
2ffc71dc:	60fb      	str	r3, [r7, #12]
2ffc71de:	88fb      	ldrh	r3, [r7, #6]
2ffc71e0:	f003 031f 	and.w	r3, r3, #31
2ffc71e4:	60bb      	str	r3, [r7, #8]
2ffc71e6:	2201      	movs	r2, #1
2ffc71e8:	68bb      	ldr	r3, [r7, #8]
2ffc71ea:	fa02 f303 	lsl.w	r3, r2, r3
2ffc71ee:	43db      	mvns	r3, r3
2ffc71f0:	68fa      	ldr	r2, [r7, #12]
2ffc71f2:	4013      	ands	r3, r2
2ffc71f4:	60fb      	str	r3, [r7, #12]
2ffc71f6:	683b      	ldr	r3, [r7, #0]
2ffc71f8:	f003 0201 	and.w	r2, r3, #1
2ffc71fc:	68bb      	ldr	r3, [r7, #8]
2ffc71fe:	fa02 f303 	lsl.w	r3, r2, r3
2ffc7202:	68fa      	ldr	r2, [r7, #12]
2ffc7204:	4313      	orrs	r3, r2
2ffc7206:	60fb      	str	r3, [r7, #12]
2ffc7208:	f44f 5380 	mov.w	r3, #4096	@ 0x1000
2ffc720c:	f2ca 0302 	movt	r3, #40962	@ 0xa002
2ffc7210:	88fa      	ldrh	r2, [r7, #6]
2ffc7212:	0952      	lsrs	r2, r2, #5
2ffc7214:	b292      	uxth	r2, r2
2ffc7216:	3220      	adds	r2, #32
2ffc7218:	68f9      	ldr	r1, [r7, #12]
2ffc721a:	f843 1022 	str.w	r1, [r3, r2, lsl #2]
2ffc721e:	bf00      	nop
2ffc7220:	3714      	adds	r7, #20
2ffc7222:	46bd      	mov	sp, r7
2ffc7224:	f85d 7b04 	ldr.w	r7, [sp], #4
2ffc7228:	4770      	bx	lr

2ffc722a <GIC_DistInit>:
2ffc722a:	b580      	push	{r7, lr}
2ffc722c:	b084      	sub	sp, #16
2ffc722e:	af00      	add	r7, sp, #0
2ffc7230:	2300      	movs	r3, #0
2ffc7232:	60bb      	str	r3, [r7, #8]
2ffc7234:	f7ff fdd0 	bl	2ffc6dd8 <GIC_DisableDistributor>
2ffc7238:	f7ff fde1 	bl	2ffc6dfe <GIC_DistributorInfo>
2ffc723c:	4603      	mov	r3, r0
2ffc723e:	f003 031f 	and.w	r3, r3, #31
2ffc7242:	3301      	adds	r3, #1
2ffc7244:	015b      	lsls	r3, r3, #5
2ffc7246:	60bb      	str	r3, [r7, #8]
2ffc7248:	21ff      	movs	r1, #255	@ 0xff
2ffc724a:	2000      	movs	r0, #0
2ffc724c:	f7ff ff00 	bl	2ffc7050 <GIC_SetPriority>
2ffc7250:	2000      	movs	r0, #0
2ffc7252:	f7ff ff34 	bl	2ffc70be <GIC_GetPriority>
2ffc7256:	6078      	str	r0, [r7, #4]
2ffc7258:	2320      	movs	r3, #32
2ffc725a:	60fb      	str	r3, [r7, #12]
2ffc725c:	e01b      	b.n	2ffc7296 <GIC_DistInit+0x6c>
2ffc725e:	68fb      	ldr	r3, [r7, #12]
2ffc7260:	b29b      	uxth	r3, r3
2ffc7262:	4618      	mov	r0, r3
2ffc7264:	f7ff fe6e 	bl	2ffc6f44 <GIC_DisableIRQ>
2ffc7268:	68fb      	ldr	r3, [r7, #12]
2ffc726a:	b29b      	uxth	r3, r3
2ffc726c:	2100      	movs	r1, #0
2ffc726e:	4618      	mov	r0, r3
2ffc7270:	f7ff feb6 	bl	2ffc6fe0 <GIC_SetConfiguration>
2ffc7274:	68fb      	ldr	r3, [r7, #12]
2ffc7276:	b29a      	uxth	r2, r3
2ffc7278:	687b      	ldr	r3, [r7, #4]
2ffc727a:	085b      	lsrs	r3, r3, #1
2ffc727c:	4619      	mov	r1, r3
2ffc727e:	4610      	mov	r0, r2
2ffc7280:	f7ff fee6 	bl	2ffc7050 <GIC_SetPriority>
2ffc7284:	68fb      	ldr	r3, [r7, #12]
2ffc7286:	b29b      	uxth	r3, r3
2ffc7288:	2101      	movs	r1, #1
2ffc728a:	4618      	mov	r0, r3
2ffc728c:	f7ff fdc3 	bl	2ffc6e16 <GIC_SetTarget>
2ffc7290:	68fb      	ldr	r3, [r7, #12]
2ffc7292:	3301      	adds	r3, #1
2ffc7294:	60fb      	str	r3, [r7, #12]
2ffc7296:	68fa      	ldr	r2, [r7, #12]
2ffc7298:	68bb      	ldr	r3, [r7, #8]
2ffc729a:	429a      	cmp	r2, r3
2ffc729c:	d3df      	bcc.n	2ffc725e <GIC_DistInit+0x34>
2ffc729e:	f7ff fd88 	bl	2ffc6db2 <GIC_EnableDistributor>
2ffc72a2:	bf00      	nop
2ffc72a4:	3710      	adds	r7, #16
2ffc72a6:	46bd      	mov	sp, r7
2ffc72a8:	bd80      	pop	{r7, pc}

2ffc72aa <GIC_CPUInterfaceInit>:
2ffc72aa:	b580      	push	{r7, lr}
2ffc72ac:	b082      	sub	sp, #8
2ffc72ae:	af00      	add	r7, sp, #0
2ffc72b0:	f7ff fdfb 	bl	2ffc6eaa <GIC_DisableInterface>
2ffc72b4:	21ff      	movs	r1, #255	@ 0xff
2ffc72b6:	2000      	movs	r0, #0
2ffc72b8:	f7ff feca 	bl	2ffc7050 <GIC_SetPriority>
2ffc72bc:	2000      	movs	r0, #0
2ffc72be:	f7ff fefe 	bl	2ffc70be <GIC_GetPriority>
2ffc72c2:	6038      	str	r0, [r7, #0]
2ffc72c4:	2300      	movs	r3, #0
2ffc72c6:	607b      	str	r3, [r7, #4]
2ffc72c8:	e018      	b.n	2ffc72fc <GIC_CPUInterfaceInit+0x52>
2ffc72ca:	687b      	ldr	r3, [r7, #4]
2ffc72cc:	2b0f      	cmp	r3, #15
2ffc72ce:	d905      	bls.n	2ffc72dc <GIC_CPUInterfaceInit+0x32>
2ffc72d0:	687b      	ldr	r3, [r7, #4]
2ffc72d2:	b29b      	uxth	r3, r3
2ffc72d4:	2100      	movs	r1, #0
2ffc72d6:	4618      	mov	r0, r3
2ffc72d8:	f7ff fe82 	bl	2ffc6fe0 <GIC_SetConfiguration>
2ffc72dc:	687b      	ldr	r3, [r7, #4]
2ffc72de:	b29b      	uxth	r3, r3
2ffc72e0:	4618      	mov	r0, r3
2ffc72e2:	f7ff fe2f 	bl	2ffc6f44 <GIC_DisableIRQ>
2ffc72e6:	687b      	ldr	r3, [r7, #4]
2ffc72e8:	b29a      	uxth	r2, r3
2ffc72ea:	683b      	ldr	r3, [r7, #0]
2ffc72ec:	085b      	lsrs	r3, r3, #1
2ffc72ee:	4619      	mov	r1, r3
2ffc72f0:	4610      	mov	r0, r2
2ffc72f2:	f7ff fead 	bl	2ffc7050 <GIC_SetPriority>
2ffc72f6:	687b      	ldr	r3, [r7, #4]
2ffc72f8:	3301      	adds	r3, #1
2ffc72fa:	607b      	str	r3, [r7, #4]
2ffc72fc:	687b      	ldr	r3, [r7, #4]
2ffc72fe:	2b1f      	cmp	r3, #31
2ffc7300:	d9e3      	bls.n	2ffc72ca <GIC_CPUInterfaceInit+0x20>
2ffc7302:	f7ff fdbf 	bl	2ffc6e84 <GIC_EnableInterface>
2ffc7306:	2000      	movs	r0, #0
2ffc7308:	f7ff ff07 	bl	2ffc711a <GIC_SetBinaryPoint>
2ffc730c:	20ff      	movs	r0, #255	@ 0xff
2ffc730e:	f7ff fef3 	bl	2ffc70f8 <GIC_SetInterfacePriorityMask>
2ffc7312:	bf00      	nop
2ffc7314:	3708      	adds	r7, #8
2ffc7316:	46bd      	mov	sp, r7
2ffc7318:	bd80      	pop	{r7, pc}

2ffc731a <GIC_Enable>:
2ffc731a:	b580      	push	{r7, lr}
2ffc731c:	af00      	add	r7, sp, #0
2ffc731e:	f7ff ff84 	bl	2ffc722a <GIC_DistInit>
2ffc7322:	f7ff ffc2 	bl	2ffc72aa <GIC_CPUInterfaceInit>
2ffc7326:	bf00      	nop
2ffc7328:	bd80      	pop	{r7, pc}

2ffc732a <IRQ_Initialize>:
2ffc732a:	b580      	push	{r7, lr}
2ffc732c:	b082      	sub	sp, #8
2ffc732e:	af00      	add	r7, sp, #0
2ffc7330:	2300      	movs	r3, #0
2ffc7332:	607b      	str	r3, [r7, #4]
2ffc7334:	e00a      	b.n	2ffc734c <IRQ_Initialize+0x22>
2ffc7336:	f24b 5348 	movw	r3, #46408	@ 0xb548
2ffc733a:	f6c2 73fc 	movt	r3, #12284	@ 0x2ffc
2ffc733e:	687a      	ldr	r2, [r7, #4]
2ffc7340:	2100      	movs	r1, #0
2ffc7342:	f843 1022 	str.w	r1, [r3, r2, lsl #2]
2ffc7346:	687b      	ldr	r3, [r7, #4]
2ffc7348:	3301      	adds	r3, #1
2ffc734a:	607b      	str	r3, [r7, #4]
2ffc734c:	687b      	ldr	r3, [r7, #4]
2ffc734e:	f5b3 7f7f 	cmp.w	r3, #1020	@ 0x3fc
2ffc7352:	d3f0      	bcc.n	2ffc7336 <IRQ_Initialize+0xc>
2ffc7354:	f7ff ffe1 	bl	2ffc731a <GIC_Enable>
2ffc7358:	2300      	movs	r3, #0
2ffc735a:	4618      	mov	r0, r3
2ffc735c:	3708      	adds	r7, #8
2ffc735e:	46bd      	mov	sp, r7
2ffc7360:	bd80      	pop	{r7, pc}

2ffc7362 <IRQ_SetHandler>:
2ffc7362:	b480      	push	{r7}
2ffc7364:	b085      	sub	sp, #20
2ffc7366:	af00      	add	r7, sp, #0
2ffc7368:	6078      	str	r0, [r7, #4]
2ffc736a:	6039      	str	r1, [r7, #0]
2ffc736c:	687b      	ldr	r3, [r7, #4]
2ffc736e:	2b00      	cmp	r3, #0
2ffc7370:	db0e      	blt.n	2ffc7390 <IRQ_SetHandler+0x2e>
2ffc7372:	687b      	ldr	r3, [r7, #4]
2ffc7374:	f5b3 7f7f 	cmp.w	r3, #1020	@ 0x3fc
2ffc7378:	da0a      	bge.n	2ffc7390 <IRQ_SetHandler+0x2e>
2ffc737a:	f24b 5348 	movw	r3, #46408	@ 0xb548
2ffc737e:	f6c2 73fc 	movt	r3, #12284	@ 0x2ffc
2ffc7382:	687a      	ldr	r2, [r7, #4]
2ffc7384:	6839      	ldr	r1, [r7, #0]
2ffc7386:	f843 1022 	str.w	r1, [r3, r2, lsl #2]
2ffc738a:	2300      	movs	r3, #0
2ffc738c:	60fb      	str	r3, [r7, #12]
2ffc738e:	e002      	b.n	2ffc7396 <IRQ_SetHandler+0x34>
2ffc7390:	f04f 33ff 	mov.w	r3, #4294967295	@ 0xffffffff
2ffc7394:	60fb      	str	r3, [r7, #12]
2ffc7396:	68fb      	ldr	r3, [r7, #12]
2ffc7398:	4618      	mov	r0, r3
2ffc739a:	3714      	adds	r7, #20
2ffc739c:	46bd      	mov	sp, r7
2ffc739e:	f85d 7b04 	ldr.w	r7, [sp], #4
2ffc73a2:	4770      	bx	lr

2ffc73a4 <IRQ_GetHandler>:
2ffc73a4:	b480      	push	{r7}
2ffc73a6:	b085      	sub	sp, #20
2ffc73a8:	af00      	add	r7, sp, #0
2ffc73aa:	6078      	str	r0, [r7, #4]
2ffc73ac:	687b      	ldr	r3, [r7, #4]
2ffc73ae:	f3c3 0309 	ubfx	r3, r3, #0, #10
2ffc73b2:	607b      	str	r3, [r7, #4]
2ffc73b4:	687b      	ldr	r3, [r7, #4]
2ffc73b6:	2b00      	cmp	r3, #0
2ffc73b8:	db0c      	blt.n	2ffc73d4 <IRQ_GetHandler+0x30>
2ffc73ba:	687b      	ldr	r3, [r7, #4]
2ffc73bc:	f5b3 7f7f 	cmp.w	r3, #1020	@ 0x3fc
2ffc73c0:	da08      	bge.n	2ffc73d4 <IRQ_GetHandler+0x30>
2ffc73c2:	f24b 5348 	movw	r3, #46408	@ 0xb548
2ffc73c6:	f6c2 73fc 	movt	r3, #12284	@ 0x2ffc
2ffc73ca:	687a      	ldr	r2, [r7, #4]
2ffc73cc:	f853 3022 	ldr.w	r3, [r3, r2, lsl #2]
2ffc73d0:	60fb      	str	r3, [r7, #12]
2ffc73d2:	e001      	b.n	2ffc73d8 <IRQ_GetHandler+0x34>
2ffc73d4:	2300      	movs	r3, #0
2ffc73d6:	60fb      	str	r3, [r7, #12]
2ffc73d8:	68fb      	ldr	r3, [r7, #12]
2ffc73da:	4618      	mov	r0, r3
2ffc73dc:	3714      	adds	r7, #20
2ffc73de:	46bd      	mov	sp, r7
2ffc73e0:	f85d 7b04 	ldr.w	r7, [sp], #4
2ffc73e4:	4770      	bx	lr

2ffc73e6 <IRQ_Enable>:
2ffc73e6:	b580      	push	{r7, lr}
2ffc73e8:	b084      	sub	sp, #16
2ffc73ea:	af00      	add	r7, sp, #0
2ffc73ec:	6078      	str	r0, [r7, #4]
2ffc73ee:	687b      	ldr	r3, [r7, #4]
2ffc73f0:	2b00      	cmp	r3, #0
2ffc73f2:	db0b      	blt.n	2ffc740c <IRQ_Enable+0x26>
2ffc73f4:	687b      	ldr	r3, [r7, #4]
2ffc73f6:	f5b3 7f7f 	cmp.w	r3, #1020	@ 0x3fc
2ffc73fa:	da07      	bge.n	2ffc740c <IRQ_Enable+0x26>
2ffc73fc:	687b      	ldr	r3, [r7, #4]
2ffc73fe:	b29b      	uxth	r3, r3
2ffc7400:	4618      	mov	r0, r3
2ffc7402:	f7ff fd83 	bl	2ffc6f0c <GIC_EnableIRQ>
2ffc7406:	2300      	movs	r3, #0
2ffc7408:	60fb      	str	r3, [r7, #12]
2ffc740a:	e002      	b.n	2ffc7412 <IRQ_Enable+0x2c>
2ffc740c:	f04f 33ff 	mov.w	r3, #4294967295	@ 0xffffffff
2ffc7410:	60fb      	str	r3, [r7, #12]
2ffc7412:	68fb      	ldr	r3, [r7, #12]
2ffc7414:	4618      	mov	r0, r3
2ffc7416:	3710      	adds	r7, #16
2ffc7418:	46bd      	mov	sp, r7
2ffc741a:	bd80      	pop	{r7, pc}

2ffc741c <IRQ_Disable>:
2ffc741c:	b580      	push	{r7, lr}
2ffc741e:	b084      	sub	sp, #16
2ffc7420:	af00      	add	r7, sp, #0
2ffc7422:	6078      	str	r0, [r7, #4]
2ffc7424:	687b      	ldr	r3, [r7, #4]
2ffc7426:	2b00      	cmp	r3, #0
2ffc7428:	db0b      	blt.n	2ffc7442 <IRQ_Disable+0x26>
2ffc742a:	687b      	ldr	r3, [r7, #4]
2ffc742c:	f5b3 7f7f 	cmp.w	r3, #1020	@ 0x3fc
2ffc7430:	da07      	bge.n	2ffc7442 <IRQ_Disable+0x26>
2ffc7432:	687b      	ldr	r3, [r7, #4]
2ffc7434:	b29b      	uxth	r3, r3
2ffc7436:	4618      	mov	r0, r3
2ffc7438:	f7ff fd84 	bl	2ffc6f44 <GIC_DisableIRQ>
2ffc743c:	2300      	movs	r3, #0
2ffc743e:	60fb      	str	r3, [r7, #12]
2ffc7440:	e002      	b.n	2ffc7448 <IRQ_Disable+0x2c>
2ffc7442:	f04f 33ff 	mov.w	r3, #4294967295	@ 0xffffffff
2ffc7446:	60fb      	str	r3, [r7, #12]
2ffc7448:	68fb      	ldr	r3, [r7, #12]
2ffc744a:	4618      	mov	r0, r3
2ffc744c:	3710      	adds	r7, #16
2ffc744e:	46bd      	mov	sp, r7
2ffc7450:	bd80      	pop	{r7, pc}

2ffc7452 <IRQ_SetMode>:
2ffc7452:	b580      	push	{r7, lr}
2ffc7454:	b086      	sub	sp, #24
2ffc7456:	af00      	add	r7, sp, #0
2ffc7458:	6078      	str	r0, [r7, #4]
2ffc745a:	6039      	str	r1, [r7, #0]
2ffc745c:	2300      	movs	r3, #0
2ffc745e:	613b      	str	r3, [r7, #16]
2ffc7460:	687b      	ldr	r3, [r7, #4]
2ffc7462:	2b00      	cmp	r3, #0
2ffc7464:	db71      	blt.n	2ffc754a <IRQ_SetMode+0xf8>
2ffc7466:	687b      	ldr	r3, [r7, #4]
2ffc7468:	f5b3 7f7f 	cmp.w	r3, #1020	@ 0x3fc
2ffc746c:	da6d      	bge.n	2ffc754a <IRQ_SetMode+0xf8>
2ffc746e:	683b      	ldr	r3, [r7, #0]
2ffc7470:	f003 0307 	and.w	r3, r3, #7
2ffc7474:	60fb      	str	r3, [r7, #12]
2ffc7476:	68fb      	ldr	r3, [r7, #12]
2ffc7478:	2b00      	cmp	r3, #0
2ffc747a:	d102      	bne.n	2ffc7482 <IRQ_SetMode+0x30>
2ffc747c:	2300      	movs	r3, #0
2ffc747e:	75fb      	strb	r3, [r7, #23]
2ffc7480:	e00a      	b.n	2ffc7498 <IRQ_SetMode+0x46>
2ffc7482:	68fb      	ldr	r3, [r7, #12]
2ffc7484:	2b04      	cmp	r3, #4
2ffc7486:	d102      	bne.n	2ffc748e <IRQ_SetMode+0x3c>
2ffc7488:	2302      	movs	r3, #2
2ffc748a:	75fb      	strb	r3, [r7, #23]
2ffc748c:	e004      	b.n	2ffc7498 <IRQ_SetMode+0x46>
2ffc748e:	2300      	movs	r3, #0
2ffc7490:	75fb      	strb	r3, [r7, #23]
2ffc7492:	f04f 33ff 	mov.w	r3, #4294967295	@ 0xffffffff
2ffc7496:	613b      	str	r3, [r7, #16]
2ffc7498:	683b      	ldr	r3, [r7, #0]
2ffc749a:	f403 5300 	and.w	r3, r3, #8192	@ 0x2000
2ffc749e:	60fb      	str	r3, [r7, #12]
2ffc74a0:	68fb      	ldr	r3, [r7, #12]
2ffc74a2:	f5b3 5f00 	cmp.w	r3, #8192	@ 0x2000
2ffc74a6:	d103      	bne.n	2ffc74b0 <IRQ_SetMode+0x5e>
2ffc74a8:	7dfb      	ldrb	r3, [r7, #23]
2ffc74aa:	f043 0301 	orr.w	r3, r3, #1
2ffc74ae:	75fb      	strb	r3, [r7, #23]
2ffc74b0:	683b      	ldr	r3, [r7, #0]
2ffc74b2:	f003 0308 	and.w	r3, r3, #8
2ffc74b6:	60fb      	str	r3, [r7, #12]
2ffc74b8:	68fb      	ldr	r3, [r7, #12]
2ffc74ba:	2b00      	cmp	r3, #0
2ffc74bc:	d002      	beq.n	2ffc74c4 <IRQ_SetMode+0x72>
2ffc74be:	f04f 33ff 	mov.w	r3, #4294967295	@ 0xffffffff
2ffc74c2:	613b      	str	r3, [r7, #16]
2ffc74c4:	683b      	ldr	r3, [r7, #0]
2ffc74c6:	f003 0310 	and.w	r3, r3, #16
2ffc74ca:	60fb      	str	r3, [r7, #12]
2ffc74cc:	68fb      	ldr	r3, [r7, #12]
2ffc74ce:	2b00      	cmp	r3, #0
2ffc74d0:	d102      	bne.n	2ffc74d8 <IRQ_SetMode+0x86>
2ffc74d2:	2300      	movs	r3, #0
2ffc74d4:	75bb      	strb	r3, [r7, #22]
2ffc74d6:	e010      	b.n	2ffc74fa <IRQ_SetMode+0xa8>
2ffc74d8:	f7ff fc91 	bl	2ffc6dfe <GIC_DistributorInfo>
2ffc74dc:	4603      	mov	r3, r0
2ffc74de:	f403 6380 	and.w	r3, r3, #1024	@ 0x400
2ffc74e2:	60fb      	str	r3, [r7, #12]
2ffc74e4:	68fb      	ldr	r3, [r7, #12]
2ffc74e6:	2b00      	cmp	r3, #0
2ffc74e8:	d002      	beq.n	2ffc74f0 <IRQ_SetMode+0x9e>
2ffc74ea:	2301      	movs	r3, #1
2ffc74ec:	75bb      	strb	r3, [r7, #22]
2ffc74ee:	e004      	b.n	2ffc74fa <IRQ_SetMode+0xa8>
2ffc74f0:	2300      	movs	r3, #0
2ffc74f2:	75bb      	strb	r3, [r7, #22]
2ffc74f4:	f04f 33ff 	mov.w	r3, #4294967295	@ 0xffffffff
2ffc74f8:	613b      	str	r3, [r7, #16]
2ffc74fa:	683b      	ldr	r3, [r7, #0]
2ffc74fc:	f403 53ff 	and.w	r3, r3, #8160	@ 0x1fe0
2ffc7500:	60fb      	str	r3, [r7, #12]
2ffc7502:	68fb      	ldr	r3, [r7, #12]
2ffc7504:	2b00      	cmp	r3, #0
2ffc7506:	d102      	bne.n	2ffc750e <IRQ_SetMode+0xbc>
2ffc7508:	23ff      	movs	r3, #255	@ 0xff
2ffc750a:	757b      	strb	r3, [r7, #21]
2ffc750c:	e002      	b.n	2ffc7514 <IRQ_SetMode+0xc2>
2ffc750e:	68fb      	ldr	r3, [r7, #12]
2ffc7510:	095b      	lsrs	r3, r3, #5
2ffc7512:	757b      	strb	r3, [r7, #21]
2ffc7514:	693b      	ldr	r3, [r7, #16]
2ffc7516:	2b00      	cmp	r3, #0
2ffc7518:	d117      	bne.n	2ffc754a <IRQ_SetMode+0xf8>
2ffc751a:	687b      	ldr	r3, [r7, #4]
2ffc751c:	b29b      	uxth	r3, r3
2ffc751e:	7dfa      	ldrb	r2, [r7, #23]
2ffc7520:	4611      	mov	r1, r2
2ffc7522:	4618      	mov	r0, r3
2ffc7524:	f7ff fd5c 	bl	2ffc6fe0 <GIC_SetConfiguration>
2ffc7528:	687b      	ldr	r3, [r7, #4]
2ffc752a:	b29b      	uxth	r3, r3
2ffc752c:	7d7a      	ldrb	r2, [r7, #21]
2ffc752e:	4611      	mov	r1, r2
2ffc7530:	4618      	mov	r0, r3
2ffc7532:	f7ff fc70 	bl	2ffc6e16 <GIC_SetTarget>
2ffc7536:	7dbb      	ldrb	r3, [r7, #22]
2ffc7538:	2b00      	cmp	r3, #0
2ffc753a:	d006      	beq.n	2ffc754a <IRQ_SetMode+0xf8>
2ffc753c:	687b      	ldr	r3, [r7, #4]
2ffc753e:	b29b      	uxth	r3, r3
2ffc7540:	7dba      	ldrb	r2, [r7, #22]
2ffc7542:	4611      	mov	r1, r2
2ffc7544:	4618      	mov	r0, r3
2ffc7546:	f7ff fe39 	bl	2ffc71bc <GIC_SetGroup>
2ffc754a:	693b      	ldr	r3, [r7, #16]
2ffc754c:	4618      	mov	r0, r3
2ffc754e:	3718      	adds	r7, #24
2ffc7550:	46bd      	mov	sp, r7
2ffc7552:	bd80      	pop	{r7, pc}

2ffc7554 <IRQ_GetActiveIRQ>:
2ffc7554:	b580      	push	{r7, lr}
2ffc7556:	b082      	sub	sp, #8
2ffc7558:	af00      	add	r7, sp, #0
2ffc755a:	f7ff fe23 	bl	2ffc71a4 <GIC_GetHighPendingIRQ>
2ffc755e:	f7ff fcb7 	bl	2ffc6ed0 <GIC_AcknowledgePending>
2ffc7562:	4603      	mov	r3, r0
2ffc7564:	607b      	str	r3, [r7, #4]
2ffc7566:	f3bf 8f4f 	dsb	sy
2ffc756a:	bf00      	nop
2ffc756c:	687b      	ldr	r3, [r7, #4]
2ffc756e:	2b00      	cmp	r3, #0
2ffc7570:	d004      	beq.n	2ffc757c <IRQ_GetActiveIRQ+0x28>
2ffc7572:	687b      	ldr	r3, [r7, #4]
2ffc7574:	f240 32fd 	movw	r2, #1021	@ 0x3fd
2ffc7578:	4293      	cmp	r3, r2
2ffc757a:	dd24      	ble.n	2ffc75c6 <IRQ_GetActiveIRQ+0x72>
2ffc757c:	2000      	movs	r0, #0
2ffc757e:	f7ff fd9e 	bl	2ffc70be <GIC_GetPriority>
2ffc7582:	6038      	str	r0, [r7, #0]
2ffc7584:	6839      	ldr	r1, [r7, #0]
2ffc7586:	2000      	movs	r0, #0
2ffc7588:	f7ff fd62 	bl	2ffc7050 <GIC_SetPriority>
2ffc758c:	f3bf 8f4f 	dsb	sy
2ffc7590:	bf00      	nop
2ffc7592:	687b      	ldr	r3, [r7, #4]
2ffc7594:	2b00      	cmp	r3, #0
2ffc7596:	d116      	bne.n	2ffc75c6 <IRQ_GetActiveIRQ+0x72>
2ffc7598:	687b      	ldr	r3, [r7, #4]
2ffc759a:	b29b      	uxth	r3, r3
2ffc759c:	4618      	mov	r0, r3
2ffc759e:	f7ff fdce 	bl	2ffc713e <GIC_GetIRQStatus>
2ffc75a2:	4603      	mov	r3, r0
2ffc75a4:	f003 0301 	and.w	r3, r3, #1
2ffc75a8:	2b00      	cmp	r3, #0
2ffc75aa:	d00c      	beq.n	2ffc75c6 <IRQ_GetActiveIRQ+0x72>
2ffc75ac:	f24c 5338 	movw	r3, #50488	@ 0xc538
2ffc75b0:	f6c2 73fc 	movt	r3, #12284	@ 0x2ffc
2ffc75b4:	681b      	ldr	r3, [r3, #0]
2ffc75b6:	2b00      	cmp	r3, #0
2ffc75b8:	d105      	bne.n	2ffc75c6 <IRQ_GetActiveIRQ+0x72>
2ffc75ba:	f24c 5338 	movw	r3, #50488	@ 0xc538
2ffc75be:	f6c2 73fc 	movt	r3, #12284	@ 0x2ffc
2ffc75c2:	2201      	movs	r2, #1
2ffc75c4:	601a      	str	r2, [r3, #0]
2ffc75c6:	687b      	ldr	r3, [r7, #4]
2ffc75c8:	4618      	mov	r0, r3
2ffc75ca:	3708      	adds	r7, #8
2ffc75cc:	46bd      	mov	sp, r7
2ffc75ce:	bd80      	pop	{r7, pc}

2ffc75d0 <IRQ_EndOfInterrupt>:
2ffc75d0:	b580      	push	{r7, lr}
2ffc75d2:	b084      	sub	sp, #16
2ffc75d4:	af00      	add	r7, sp, #0
2ffc75d6:	6078      	str	r0, [r7, #4]
2ffc75d8:	687b      	ldr	r3, [r7, #4]
2ffc75da:	817b      	strh	r3, [r7, #10]
2ffc75dc:	687b      	ldr	r3, [r7, #4]
2ffc75de:	f3c3 0309 	ubfx	r3, r3, #0, #10
2ffc75e2:	607b      	str	r3, [r7, #4]
2ffc75e4:	687b      	ldr	r3, [r7, #4]
2ffc75e6:	2b00      	cmp	r3, #0
2ffc75e8:	db13      	blt.n	2ffc7612 <IRQ_EndOfInterrupt+0x42>
2ffc75ea:	687b      	ldr	r3, [r7, #4]
2ffc75ec:	f5b3 7f7f 	cmp.w	r3, #1020	@ 0x3fc
2ffc75f0:	da0f      	bge.n	2ffc7612 <IRQ_EndOfInterrupt+0x42>
2ffc75f2:	897b      	ldrh	r3, [r7, #10]
2ffc75f4:	4618      	mov	r0, r3
2ffc75f6:	f7ff fc78 	bl	2ffc6eea <GIC_EndInterrupt>
2ffc75fa:	687b      	ldr	r3, [r7, #4]
2ffc75fc:	2b00      	cmp	r3, #0
2ffc75fe:	d105      	bne.n	2ffc760c <IRQ_EndOfInterrupt+0x3c>
2ffc7600:	f24c 5338 	movw	r3, #50488	@ 0xc538
2ffc7604:	f6c2 73fc 	movt	r3, #12284	@ 0x2ffc
2ffc7608:	2200      	movs	r2, #0
2ffc760a:	601a      	str	r2, [r3, #0]
2ffc760c:	2300      	movs	r3, #0
2ffc760e:	60fb      	str	r3, [r7, #12]
2ffc7610:	e002      	b.n	2ffc7618 <IRQ_EndOfInterrupt+0x48>
2ffc7612:	f04f 33ff 	mov.w	r3, #4294967295	@ 0xffffffff
2ffc7616:	60fb      	str	r3, [r7, #12]
2ffc7618:	68fb      	ldr	r3, [r7, #12]
2ffc761a:	4618      	mov	r0, r3
2ffc761c:	3710      	adds	r7, #16
2ffc761e:	46bd      	mov	sp, r7
2ffc7620:	bd80      	pop	{r7, pc}

2ffc7622 <IRQ_ClearPending>:
2ffc7622:	b580      	push	{r7, lr}
2ffc7624:	b084      	sub	sp, #16
2ffc7626:	af00      	add	r7, sp, #0
2ffc7628:	6078      	str	r0, [r7, #4]
2ffc762a:	687b      	ldr	r3, [r7, #4]
2ffc762c:	2b0f      	cmp	r3, #15
2ffc762e:	dd0b      	ble.n	2ffc7648 <IRQ_ClearPending+0x26>
2ffc7630:	687b      	ldr	r3, [r7, #4]
2ffc7632:	f5b3 7f7f 	cmp.w	r3, #1020	@ 0x3fc
2ffc7636:	da07      	bge.n	2ffc7648 <IRQ_ClearPending+0x26>
2ffc7638:	687b      	ldr	r3, [r7, #4]
2ffc763a:	b29b      	uxth	r3, r3
2ffc763c:	4618      	mov	r0, r3
2ffc763e:	f7ff fc9d 	bl	2ffc6f7c <GIC_ClearPendingIRQ>
2ffc7642:	2300      	movs	r3, #0
2ffc7644:	60fb      	str	r3, [r7, #12]
2ffc7646:	e002      	b.n	2ffc764e <IRQ_ClearPending+0x2c>
2ffc7648:	f04f 33ff 	mov.w	r3, #4294967295	@ 0xffffffff
2ffc764c:	60fb      	str	r3, [r7, #12]
2ffc764e:	68fb      	ldr	r3, [r7, #12]
2ffc7650:	4618      	mov	r0, r3
2ffc7652:	3710      	adds	r7, #16
2ffc7654:	46bd      	mov	sp, r7
2ffc7656:	bd80      	pop	{r7, pc}

2ffc7658 <IRQ_SetPriority>:
2ffc7658:	b580      	push	{r7, lr}
2ffc765a:	b084      	sub	sp, #16
2ffc765c:	af00      	add	r7, sp, #0
2ffc765e:	6078      	str	r0, [r7, #4]
2ffc7660:	6039      	str	r1, [r7, #0]
2ffc7662:	687b      	ldr	r3, [r7, #4]
2ffc7664:	2b00      	cmp	r3, #0
2ffc7666:	db0c      	blt.n	2ffc7682 <IRQ_SetPriority+0x2a>
2ffc7668:	687b      	ldr	r3, [r7, #4]
2ffc766a:	f5b3 7f7f 	cmp.w	r3, #1020	@ 0x3fc
2ffc766e:	da08      	bge.n	2ffc7682 <IRQ_SetPriority+0x2a>
2ffc7670:	687b      	ldr	r3, [r7, #4]
2ffc7672:	b29b      	uxth	r3, r3
2ffc7674:	6839      	ldr	r1, [r7, #0]
2ffc7676:	4618      	mov	r0, r3
2ffc7678:	f7ff fcea 	bl	2ffc7050 <GIC_SetPriority>
2ffc767c:	2300      	movs	r3, #0
2ffc767e:	60fb      	str	r3, [r7, #12]
2ffc7680:	e002      	b.n	2ffc7688 <IRQ_SetPriority+0x30>
2ffc7682:	f04f 33ff 	mov.w	r3, #4294967295	@ 0xffffffff
2ffc7686:	60fb      	str	r3, [r7, #12]
2ffc7688:	68fb      	ldr	r3, [r7, #12]
2ffc768a:	4618      	mov	r0, r3
2ffc768c:	3710      	adds	r7, #16
2ffc768e:	46bd      	mov	sp, r7
2ffc7690:	bd80      	pop	{r7, pc}

2ffc7692 <_ZL6udelaym>:
2ffc7692:	b480      	push	{r7}
2ffc7694:	b087      	sub	sp, #28
2ffc7696:	af00      	add	r7, sp, #0
2ffc7698:	6078      	str	r0, [r7, #4]
2ffc769a:	2305      	movs	r3, #5
2ffc769c:	617b      	str	r3, [r7, #20]
2ffc769e:	687b      	ldr	r3, [r7, #4]
2ffc76a0:	2205      	movs	r2, #5
2ffc76a2:	fb02 f303 	mul.w	r3, r2, r3
2ffc76a6:	613b      	str	r3, [r7, #16]
2ffc76a8:	693b      	ldr	r3, [r7, #16]
2ffc76aa:	60fb      	str	r3, [r7, #12]
2ffc76ac:	e002      	b.n	2ffc76b4 <_ZL6udelaym+0x22>
2ffc76ae:	68fb      	ldr	r3, [r7, #12]
2ffc76b0:	3b01      	subs	r3, #1
2ffc76b2:	60fb      	str	r3, [r7, #12]
2ffc76b4:	68fb      	ldr	r3, [r7, #12]
2ffc76b6:	2b00      	cmp	r3, #0
2ffc76b8:	bf14      	ite	ne
2ffc76ba:	2301      	movne	r3, #1
2ffc76bc:	2300      	moveq	r3, #0
2ffc76be:	b2db      	uxtb	r3, r3
2ffc76c0:	2b00      	cmp	r3, #0
2ffc76c2:	d1f4      	bne.n	2ffc76ae <_ZL6udelaym+0x1c>
2ffc76c4:	bf00      	nop
2ffc76c6:	bf00      	nop
2ffc76c8:	371c      	adds	r7, #28
2ffc76ca:	46bd      	mov	sp, r7
2ffc76cc:	f85d 7b04 	ldr.w	r7, [sp], #4
2ffc76d0:	4770      	bx	lr

2ffc76d2 <_ZL13get_base_addrPK8ddr_info9base_type>:
2ffc76d2:	b480      	push	{r7}
2ffc76d4:	b083      	sub	sp, #12
2ffc76d6:	af00      	add	r7, sp, #0
2ffc76d8:	6078      	str	r0, [r7, #4]
2ffc76da:	460b      	mov	r3, r1
2ffc76dc:	70fb      	strb	r3, [r7, #3]
2ffc76de:	78fb      	ldrb	r3, [r7, #3]
2ffc76e0:	2b01      	cmp	r3, #1
2ffc76e2:	d102      	bne.n	2ffc76ea <_ZL13get_base_addrPK8ddr_info9base_type+0x18>
2ffc76e4:	687b      	ldr	r3, [r7, #4]
2ffc76e6:	6adb      	ldr	r3, [r3, #44]	@ 0x2c
2ffc76e8:	e001      	b.n	2ffc76ee <_ZL13get_base_addrPK8ddr_info9base_type+0x1c>
2ffc76ea:	687b      	ldr	r3, [r7, #4]
2ffc76ec:	6a9b      	ldr	r3, [r3, #40]	@ 0x28
2ffc76ee:	4618      	mov	r0, r3
2ffc76f0:	370c      	adds	r7, #12
2ffc76f2:	46bd      	mov	sp, r7
2ffc76f4:	f85d 7b04 	ldr.w	r7, [sp], #4
2ffc76f8:	4770      	bx	lr

2ffc76fa <_ZL7set_regPK8ddr_info8reg_typePKv>:
2ffc76fa:	b580      	push	{r7, lr}
2ffc76fc:	b090      	sub	sp, #64	@ 0x40
2ffc76fe:	af04      	add	r7, sp, #16
2ffc7700:	60f8      	str	r0, [r7, #12]
2ffc7702:	460b      	mov	r3, r1
2ffc7704:	607a      	str	r2, [r7, #4]
2ffc7706:	72fb      	strb	r3, [r7, #11]
2ffc7708:	7afa      	ldrb	r2, [r7, #11]
2ffc770a:	f649 23a0 	movw	r3, #39584	@ 0x9aa0
2ffc770e:	f6c2 73fc 	movt	r3, #12284	@ 0x2ffc
2ffc7712:	210c      	movs	r1, #12
2ffc7714:	fb01 f202 	mul.w	r2, r1, r2
2ffc7718:	4413      	add	r3, r2
2ffc771a:	3309      	adds	r3, #9
2ffc771c:	781b      	ldrb	r3, [r3, #0]
2ffc771e:	f887 302b 	strb.w	r3, [r7, #43]	@ 0x2b
2ffc7722:	f897 302b 	ldrb.w	r3, [r7, #43]	@ 0x2b
2ffc7726:	4619      	mov	r1, r3
2ffc7728:	68f8      	ldr	r0, [r7, #12]
2ffc772a:	f7ff ffd2 	bl	2ffc76d2 <_ZL13get_base_addrPK8ddr_info9base_type>
2ffc772e:	6278      	str	r0, [r7, #36]	@ 0x24
2ffc7730:	7afa      	ldrb	r2, [r7, #11]
2ffc7732:	f649 23a0 	movw	r3, #39584	@ 0x9aa0
2ffc7736:	f6c2 73fc 	movt	r3, #12284	@ 0x2ffc
2ffc773a:	210c      	movs	r1, #12
2ffc773c:	fb01 f202 	mul.w	r2, r1, r2
2ffc7740:	4413      	add	r3, r2
2ffc7742:	3304      	adds	r3, #4
2ffc7744:	681b      	ldr	r3, [r3, #0]
2ffc7746:	623b      	str	r3, [r7, #32]
2ffc7748:	7afa      	ldrb	r2, [r7, #11]
2ffc774a:	f649 23a0 	movw	r3, #39584	@ 0x9aa0
2ffc774e:	f6c2 73fc 	movt	r3, #12284	@ 0x2ffc
2ffc7752:	210c      	movs	r1, #12
2ffc7754:	fb01 f202 	mul.w	r2, r1, r2
2ffc7758:	4413      	add	r3, r2
2ffc775a:	681b      	ldr	r3, [r3, #0]
2ffc775c:	f249 52a4 	movw	r2, #38308	@ 0x95a4
2ffc7760:	f6c2 72fc 	movt	r2, #12284	@ 0x2ffc
2ffc7764:	4619      	mov	r1, r3
2ffc7766:	f249 50a8 	movw	r0, #38312	@ 0x95a8
2ffc776a:	f6c2 70fc 	movt	r0, #12284	@ 0x2ffc
2ffc776e:	f000 fc9a 	bl	2ffc80a6 <_Z5debugIJPKcS1_S1_EEvDpT_>
2ffc7772:	2300      	movs	r3, #0
2ffc7774:	62fb      	str	r3, [r7, #44]	@ 0x2c
2ffc7776:	e04e      	b.n	2ffc7816 <_ZL7set_regPK8ddr_info8reg_typePKv+0x11c>
2ffc7778:	6afb      	ldr	r3, [r7, #44]	@ 0x2c
2ffc777a:	00db      	lsls	r3, r3, #3
2ffc777c:	6a3a      	ldr	r2, [r7, #32]
2ffc777e:	4413      	add	r3, r2
2ffc7780:	889b      	ldrh	r3, [r3, #4]
2ffc7782:	461a      	mov	r2, r3
2ffc7784:	6a7b      	ldr	r3, [r7, #36]	@ 0x24
2ffc7786:	4413      	add	r3, r2
2ffc7788:	61fb      	str	r3, [r7, #28]
2ffc778a:	6afb      	ldr	r3, [r7, #44]	@ 0x2c
2ffc778c:	00db      	lsls	r3, r3, #3
2ffc778e:	6a3a      	ldr	r2, [r7, #32]
2ffc7790:	4413      	add	r3, r2
2ffc7792:	799b      	ldrb	r3, [r3, #6]
2ffc7794:	2bff      	cmp	r3, #255	@ 0xff
2ffc7796:	d10c      	bne.n	2ffc77b2 <_ZL7set_regPK8ddr_info8reg_typePKv+0xb8>
2ffc7798:	6afb      	ldr	r3, [r7, #44]	@ 0x2c
2ffc779a:	00db      	lsls	r3, r3, #3
2ffc779c:	6a3a      	ldr	r2, [r7, #32]
2ffc779e:	4413      	add	r3, r2
2ffc77a0:	681b      	ldr	r3, [r3, #0]
2ffc77a2:	4619      	mov	r1, r3
2ffc77a4:	f249 50b0 	movw	r0, #38320	@ 0x95b0
2ffc77a8:	f6c2 70fc 	movt	r0, #12284	@ 0x2ffc
2ffc77ac:	f000 fc87 	bl	2ffc80be <_Z6pr_errIJPKcS1_EEvDpT_>
2ffc77b0:	e02e      	b.n	2ffc7810 <_ZL7set_regPK8ddr_info8reg_typePKv+0x116>
2ffc77b2:	6afb      	ldr	r3, [r7, #44]	@ 0x2c
2ffc77b4:	00db      	lsls	r3, r3, #3
2ffc77b6:	6a3a      	ldr	r2, [r7, #32]
2ffc77b8:	4413      	add	r3, r2
2ffc77ba:	799b      	ldrb	r3, [r3, #6]
2ffc77bc:	461a      	mov	r2, r3
2ffc77be:	687b      	ldr	r3, [r7, #4]
2ffc77c0:	4413      	add	r3, r2
2ffc77c2:	681b      	ldr	r3, [r3, #0]
2ffc77c4:	61bb      	str	r3, [r7, #24]
2ffc77c6:	69bb      	ldr	r3, [r7, #24]
2ffc77c8:	617b      	str	r3, [r7, #20]
2ffc77ca:	f3bf 8f5f 	dmb	sy
2ffc77ce:	69fb      	ldr	r3, [r7, #28]
2ffc77d0:	697a      	ldr	r2, [r7, #20]
2ffc77d2:	601a      	str	r2, [r3, #0]
2ffc77d4:	69fb      	ldr	r3, [r7, #28]
2ffc77d6:	4619      	mov	r1, r3
2ffc77d8:	6afb      	ldr	r3, [r7, #44]	@ 0x2c
2ffc77da:	00db      	lsls	r3, r3, #3
2ffc77dc:	6a3a      	ldr	r2, [r7, #32]
2ffc77de:	4413      	add	r3, r2
2ffc77e0:	681a      	ldr	r2, [r3, #0]
2ffc77e2:	f249 53a4 	movw	r3, #38308	@ 0x95a4
2ffc77e6:	f6c2 73fc 	movt	r3, #12284	@ 0x2ffc
2ffc77ea:	9302      	str	r3, [sp, #8]
2ffc77ec:	69bb      	ldr	r3, [r7, #24]
2ffc77ee:	9301      	str	r3, [sp, #4]
2ffc77f0:	f249 53d8 	movw	r3, #38360	@ 0x95d8
2ffc77f4:	f6c2 73fc 	movt	r3, #12284	@ 0x2ffc
2ffc77f8:	9300      	str	r3, [sp, #0]
2ffc77fa:	4613      	mov	r3, r2
2ffc77fc:	f249 52d0 	movw	r2, #38352	@ 0x95d0
2ffc7800:	f6c2 72fc 	movt	r2, #12284	@ 0x2ffc
2ffc7804:	f249 50d4 	movw	r0, #38356	@ 0x95d4
2ffc7808:	f6c2 70fc 	movt	r0, #12284	@ 0x2ffc
2ffc780c:	f000 fc64 	bl	2ffc80d8 <_Z5debugIJPKc3HexS1_S1_S1_jS1_EEvDpT_>
2ffc7810:	6afb      	ldr	r3, [r7, #44]	@ 0x2c
2ffc7812:	3301      	adds	r3, #1
2ffc7814:	62fb      	str	r3, [r7, #44]	@ 0x2c
2ffc7816:	7afa      	ldrb	r2, [r7, #11]
2ffc7818:	f649 23a0 	movw	r3, #39584	@ 0x9aa0
2ffc781c:	f6c2 73fc 	movt	r3, #12284	@ 0x2ffc
2ffc7820:	210c      	movs	r1, #12
2ffc7822:	fb01 f202 	mul.w	r2, r1, r2
2ffc7826:	4413      	add	r3, r2
2ffc7828:	3308      	adds	r3, #8
2ffc782a:	781b      	ldrb	r3, [r3, #0]
2ffc782c:	461a      	mov	r2, r3
2ffc782e:	6afb      	ldr	r3, [r7, #44]	@ 0x2c
2ffc7830:	4293      	cmp	r3, r2
2ffc7832:	d3a1      	bcc.n	2ffc7778 <_ZL7set_regPK8ddr_info8reg_typePKv+0x7e>
2ffc7834:	bf00      	nop
2ffc7836:	bf00      	nop
2ffc7838:	3730      	adds	r7, #48	@ 0x30
2ffc783a:	46bd      	mov	sp, r7
2ffc783c:	bd80      	pop	{r7, pc}

2ffc783e <_Z24stm32mp1_ddr_interactivePv26stm32mp1_ddr_interact_stepPK19stm32mp1_ddr_config>:
2ffc783e:	b480      	push	{r7}
2ffc7840:	b085      	sub	sp, #20
2ffc7842:	af00      	add	r7, sp, #0
2ffc7844:	60f8      	str	r0, [r7, #12]
2ffc7846:	460b      	mov	r3, r1
2ffc7848:	607a      	str	r2, [r7, #4]
2ffc784a:	72fb      	strb	r3, [r7, #11]
2ffc784c:	2300      	movs	r3, #0
2ffc784e:	4618      	mov	r0, r3
2ffc7850:	3714      	adds	r7, #20
2ffc7852:	46bd      	mov	sp, r7
2ffc7854:	f85d 7b04 	ldr.w	r7, [sp], #4
2ffc7858:	4770      	bx	lr

2ffc785a <_ZL17ddrphy_idone_waitP15stm32mp1_ddrphy>:
2ffc785a:	b580      	push	{r7, lr}
2ffc785c:	b088      	sub	sp, #32
2ffc785e:	af02      	add	r7, sp, #8
2ffc7860:	6078      	str	r0, [r7, #4]
2ffc7862:	2300      	movs	r3, #0
2ffc7864:	617b      	str	r3, [r7, #20]
2ffc7866:	687b      	ldr	r3, [r7, #4]
2ffc7868:	330c      	adds	r3, #12
2ffc786a:	681b      	ldr	r3, [r3, #0]
2ffc786c:	613b      	str	r3, [r7, #16]
2ffc786e:	f3bf 8f5f 	dmb	sy
2ffc7872:	693b      	ldr	r3, [r7, #16]
2ffc7874:	60fb      	str	r3, [r7, #12]
2ffc7876:	68fb      	ldr	r3, [r7, #12]
2ffc7878:	f003 0320 	and.w	r3, r3, #32
2ffc787c:	2b00      	cmp	r3, #0
2ffc787e:	d008      	beq.n	2ffc7892 <_ZL17ddrphy_idone_waitP15stm32mp1_ddrphy+0x38>
2ffc7880:	f249 50e0 	movw	r0, #38368	@ 0x95e0
2ffc7884:	f6c2 70fc 	movt	r0, #12284	@ 0x2ffc
2ffc7888:	f000 fc33 	bl	2ffc80f2 <_Z5debugIJPKcEEvDpT_>
2ffc788c:	697b      	ldr	r3, [r7, #20]
2ffc788e:	3301      	adds	r3, #1
2ffc7890:	617b      	str	r3, [r7, #20]
2ffc7892:	68fb      	ldr	r3, [r7, #12]
2ffc7894:	f003 0340 	and.w	r3, r3, #64	@ 0x40
2ffc7898:	2b00      	cmp	r3, #0
2ffc789a:	d008      	beq.n	2ffc78ae <_ZL17ddrphy_idone_waitP15stm32mp1_ddrphy+0x54>
2ffc789c:	f249 50fc 	movw	r0, #38396	@ 0x95fc
2ffc78a0:	f6c2 70fc 	movt	r0, #12284	@ 0x2ffc
2ffc78a4:	f000 fc25 	bl	2ffc80f2 <_Z5debugIJPKcEEvDpT_>
2ffc78a8:	697b      	ldr	r3, [r7, #20]
2ffc78aa:	3301      	adds	r3, #1
2ffc78ac:	617b      	str	r3, [r7, #20]
2ffc78ae:	68fb      	ldr	r3, [r7, #12]
2ffc78b0:	f003 0380 	and.w	r3, r3, #128	@ 0x80
2ffc78b4:	2b00      	cmp	r3, #0
2ffc78b6:	d008      	beq.n	2ffc78ca <_ZL17ddrphy_idone_waitP15stm32mp1_ddrphy+0x70>
2ffc78b8:	f249 6024 	movw	r0, #38436	@ 0x9624
2ffc78bc:	f6c2 70fc 	movt	r0, #12284	@ 0x2ffc
2ffc78c0:	f000 fc17 	bl	2ffc80f2 <_Z5debugIJPKcEEvDpT_>
2ffc78c4:	697b      	ldr	r3, [r7, #20]
2ffc78c6:	3301      	adds	r3, #1
2ffc78c8:	617b      	str	r3, [r7, #20]
2ffc78ca:	68fb      	ldr	r3, [r7, #12]
2ffc78cc:	f403 7380 	and.w	r3, r3, #256	@ 0x100
2ffc78d0:	2b00      	cmp	r3, #0
2ffc78d2:	d008      	beq.n	2ffc78e6 <_ZL17ddrphy_idone_waitP15stm32mp1_ddrphy+0x8c>
2ffc78d4:	f249 6038 	movw	r0, #38456	@ 0x9638
2ffc78d8:	f6c2 70fc 	movt	r0, #12284	@ 0x2ffc
2ffc78dc:	f000 fc09 	bl	2ffc80f2 <_Z5debugIJPKcEEvDpT_>
2ffc78e0:	697b      	ldr	r3, [r7, #20]
2ffc78e2:	3301      	adds	r3, #1
2ffc78e4:	617b      	str	r3, [r7, #20]
2ffc78e6:	68fb      	ldr	r3, [r7, #12]
2ffc78e8:	f403 7300 	and.w	r3, r3, #512	@ 0x200
2ffc78ec:	2b00      	cmp	r3, #0
2ffc78ee:	d008      	beq.n	2ffc7902 <_ZL17ddrphy_idone_waitP15stm32mp1_ddrphy+0xa8>
2ffc78f0:	f249 6054 	movw	r0, #38484	@ 0x9654
2ffc78f4:	f6c2 70fc 	movt	r0, #12284	@ 0x2ffc
2ffc78f8:	f000 fbfb 	bl	2ffc80f2 <_Z5debugIJPKcEEvDpT_>
2ffc78fc:	697b      	ldr	r3, [r7, #20]
2ffc78fe:	3301      	adds	r3, #1
2ffc7900:	617b      	str	r3, [r7, #20]
2ffc7902:	68fb      	ldr	r3, [r7, #12]
2ffc7904:	f003 0301 	and.w	r3, r3, #1
2ffc7908:	2b00      	cmp	r3, #0
2ffc790a:	d102      	bne.n	2ffc7912 <_ZL17ddrphy_idone_waitP15stm32mp1_ddrphy+0xb8>
2ffc790c:	697b      	ldr	r3, [r7, #20]
2ffc790e:	2b00      	cmp	r3, #0
2ffc7910:	d0a9      	beq.n	2ffc7866 <_ZL17ddrphy_idone_waitP15stm32mp1_ddrphy+0xc>
2ffc7912:	687b      	ldr	r3, [r7, #4]
2ffc7914:	330c      	adds	r3, #12
2ffc7916:	4619      	mov	r1, r3
2ffc7918:	68fa      	ldr	r2, [r7, #12]
2ffc791a:	f249 53a4 	movw	r3, #38308	@ 0x95a4
2ffc791e:	f6c2 73fc 	movt	r3, #12284	@ 0x2ffc
2ffc7922:	9300      	str	r3, [sp, #0]
2ffc7924:	4613      	mov	r3, r2
2ffc7926:	f249 627c 	movw	r2, #38524	@ 0x967c
2ffc792a:	f6c2 72fc 	movt	r2, #12284	@ 0x2ffc
2ffc792e:	f249 6088 	movw	r0, #38536	@ 0x9688
2ffc7932:	f6c2 70fc 	movt	r0, #12284	@ 0x2ffc
2ffc7936:	f000 fbe6 	bl	2ffc8106 <_Z5debugIJPKc3HexS1_S2_S1_EEvDpT_>
2ffc793a:	bf00      	nop
2ffc793c:	3718      	adds	r7, #24
2ffc793e:	46bd      	mov	sp, r7
2ffc7940:	bd80      	pop	{r7, pc}

2ffc7942 <_Z20stm32mp1_ddrphy_initP15stm32mp1_ddrphyj>:
2ffc7942:	b580      	push	{r7, lr}
2ffc7944:	b088      	sub	sp, #32
2ffc7946:	af04      	add	r7, sp, #16
2ffc7948:	6078      	str	r0, [r7, #4]
2ffc794a:	6039      	str	r1, [r7, #0]
2ffc794c:	683b      	ldr	r3, [r7, #0]
2ffc794e:	f043 0301 	orr.w	r3, r3, #1
2ffc7952:	603b      	str	r3, [r7, #0]
2ffc7954:	683b      	ldr	r3, [r7, #0]
2ffc7956:	60fb      	str	r3, [r7, #12]
2ffc7958:	f3bf 8f5f 	dmb	sy
2ffc795c:	687b      	ldr	r3, [r7, #4]
2ffc795e:	3304      	adds	r3, #4
2ffc7960:	68fa      	ldr	r2, [r7, #12]
2ffc7962:	601a      	str	r2, [r3, #0]
2ffc7964:	687b      	ldr	r3, [r7, #4]
2ffc7966:	3304      	adds	r3, #4
2ffc7968:	4618      	mov	r0, r3
2ffc796a:	6839      	ldr	r1, [r7, #0]
2ffc796c:	687b      	ldr	r3, [r7, #4]
2ffc796e:	3304      	adds	r3, #4
2ffc7970:	681b      	ldr	r3, [r3, #0]
2ffc7972:	60bb      	str	r3, [r7, #8]
2ffc7974:	f3bf 8f5f 	dmb	sy
2ffc7978:	68ba      	ldr	r2, [r7, #8]
2ffc797a:	f249 53a4 	movw	r3, #38308	@ 0x95a4
2ffc797e:	f6c2 73fc 	movt	r3, #12284	@ 0x2ffc
2ffc7982:	9302      	str	r3, [sp, #8]
2ffc7984:	9201      	str	r2, [sp, #4]
2ffc7986:	f249 639c 	movw	r3, #38556	@ 0x969c
2ffc798a:	f6c2 73fc 	movt	r3, #12284	@ 0x2ffc
2ffc798e:	9300      	str	r3, [sp, #0]
2ffc7990:	460b      	mov	r3, r1
2ffc7992:	f249 6290 	movw	r2, #38544	@ 0x9690
2ffc7996:	f6c2 72fc 	movt	r2, #12284	@ 0x2ffc
2ffc799a:	4601      	mov	r1, r0
2ffc799c:	f249 50d4 	movw	r0, #38356	@ 0x95d4
2ffc79a0:	f6c2 70fc 	movt	r0, #12284	@ 0x2ffc
2ffc79a4:	f000 fbbc 	bl	2ffc8120 <_Z5debugIJPKc3HexS1_S2_S1_S2_S1_EEvDpT_>
2ffc79a8:	200a      	movs	r0, #10
2ffc79aa:	f7ff fe72 	bl	2ffc7692 <_ZL6udelaym>
2ffc79ae:	6878      	ldr	r0, [r7, #4]
2ffc79b0:	f7ff ff53 	bl	2ffc785a <_ZL17ddrphy_idone_waitP15stm32mp1_ddrphy>
2ffc79b4:	bf00      	nop
2ffc79b6:	3710      	adds	r7, #16
2ffc79b8:	46bd      	mov	sp, r7
2ffc79ba:	bd80      	pop	{r7, pc}

2ffc79bc <_ZL13start_sw_doneP15stm32mp1_ddrctl>:
2ffc79bc:	b480      	push	{r7}
2ffc79be:	b083      	sub	sp, #12
2ffc79c0:	af00      	add	r7, sp, #0
2ffc79c2:	6078      	str	r0, [r7, #4]
2ffc79c4:	687b      	ldr	r3, [r7, #4]
2ffc79c6:	f503 7348 	add.w	r3, r3, #800	@ 0x320
2ffc79ca:	681a      	ldr	r2, [r3, #0]
2ffc79cc:	687b      	ldr	r3, [r7, #4]
2ffc79ce:	f503 7348 	add.w	r3, r3, #800	@ 0x320
2ffc79d2:	f022 0201 	bic.w	r2, r2, #1
2ffc79d6:	601a      	str	r2, [r3, #0]
2ffc79d8:	bf00      	nop
2ffc79da:	370c      	adds	r7, #12
2ffc79dc:	46bd      	mov	sp, r7
2ffc79de:	f85d 7b04 	ldr.w	r7, [sp], #4
2ffc79e2:	4770      	bx	lr

2ffc79e4 <_ZL16wait_sw_done_ackP15stm32mp1_ddrctl>:
2ffc79e4:	b580      	push	{r7, lr}
2ffc79e6:	b088      	sub	sp, #32
2ffc79e8:	af02      	add	r7, sp, #8
2ffc79ea:	6078      	str	r0, [r7, #4]
2ffc79ec:	687b      	ldr	r3, [r7, #4]
2ffc79ee:	f503 7348 	add.w	r3, r3, #800	@ 0x320
2ffc79f2:	681a      	ldr	r2, [r3, #0]
2ffc79f4:	687b      	ldr	r3, [r7, #4]
2ffc79f6:	f503 7348 	add.w	r3, r3, #800	@ 0x320
2ffc79fa:	f042 0201 	orr.w	r2, r2, #1
2ffc79fe:	601a      	str	r2, [r3, #0]
2ffc7a00:	f244 2340 	movw	r3, #16960	@ 0x4240
2ffc7a04:	f2c0 030f 	movt	r3, #15
2ffc7a08:	617b      	str	r3, [r7, #20]
2ffc7a0a:	687b      	ldr	r3, [r7, #4]
2ffc7a0c:	f503 7349 	add.w	r3, r3, #804	@ 0x324
2ffc7a10:	681b      	ldr	r3, [r3, #0]
2ffc7a12:	613b      	str	r3, [r7, #16]
2ffc7a14:	f3bf 8f5f 	dmb	sy
2ffc7a18:	693b      	ldr	r3, [r7, #16]
2ffc7a1a:	60fb      	str	r3, [r7, #12]
2ffc7a1c:	68fb      	ldr	r3, [r7, #12]
2ffc7a1e:	f003 0301 	and.w	r3, r3, #1
2ffc7a22:	2b00      	cmp	r3, #0
2ffc7a24:	d100      	bne.n	2ffc7a28 <_ZL16wait_sw_done_ackP15stm32mp1_ddrctl+0x44>
2ffc7a26:	e7f0      	b.n	2ffc7a0a <_ZL16wait_sw_done_ackP15stm32mp1_ddrctl+0x26>
2ffc7a28:	68fb      	ldr	r3, [r7, #12]
2ffc7a2a:	f003 0301 	and.w	r3, r3, #1
2ffc7a2e:	2b00      	cmp	r3, #0
2ffc7a30:	d001      	beq.n	2ffc7a36 <_ZL16wait_sw_done_ackP15stm32mp1_ddrctl+0x52>
2ffc7a32:	2300      	movs	r3, #0
2ffc7a34:	e001      	b.n	2ffc7a3a <_ZL16wait_sw_done_ackP15stm32mp1_ddrctl+0x56>
2ffc7a36:	f06f 0373 	mvn.w	r3, #115	@ 0x73
2ffc7a3a:	60bb      	str	r3, [r7, #8]
2ffc7a3c:	68bb      	ldr	r3, [r7, #8]
2ffc7a3e:	2b00      	cmp	r3, #0
2ffc7a40:	d00a      	beq.n	2ffc7a58 <_ZL16wait_sw_done_ackP15stm32mp1_ddrctl+0x74>
2ffc7a42:	f249 52a4 	movw	r2, #38308	@ 0x95a4
2ffc7a46:	f6c2 72fc 	movt	r2, #12284	@ 0x2ffc
2ffc7a4a:	68f9      	ldr	r1, [r7, #12]
2ffc7a4c:	f249 60a4 	movw	r0, #38564	@ 0x96a4
2ffc7a50:	f6c2 70fc 	movt	r0, #12284	@ 0x2ffc
2ffc7a54:	f000 fb71 	bl	2ffc813a <_Z5panicIJPKcjS1_EEvDpT_>
2ffc7a58:	687b      	ldr	r3, [r7, #4]
2ffc7a5a:	f503 7349 	add.w	r3, r3, #804	@ 0x324
2ffc7a5e:	4619      	mov	r1, r3
2ffc7a60:	68fa      	ldr	r2, [r7, #12]
2ffc7a62:	f249 53a4 	movw	r3, #38308	@ 0x95a4
2ffc7a66:	f6c2 73fc 	movt	r3, #12284	@ 0x2ffc
2ffc7a6a:	9300      	str	r3, [sp, #0]
2ffc7a6c:	4613      	mov	r3, r2
2ffc7a6e:	f249 62d0 	movw	r2, #38608	@ 0x96d0
2ffc7a72:	f6c2 72fc 	movt	r2, #12284	@ 0x2ffc
2ffc7a76:	f249 50d4 	movw	r0, #38356	@ 0x95d4
2ffc7a7a:	f6c2 70fc 	movt	r0, #12284	@ 0x2ffc
2ffc7a7e:	f000 fb42 	bl	2ffc8106 <_Z5debugIJPKc3HexS1_S2_S1_EEvDpT_>
2ffc7a82:	bf00      	nop
2ffc7a84:	3718      	adds	r7, #24
2ffc7a86:	46bd      	mov	sp, r7
2ffc7a88:	bd80      	pop	{r7, pc}

2ffc7a8a <_ZL19wait_operating_modeP8ddr_infoi>:
2ffc7a8a:	b580      	push	{r7, lr}
2ffc7a8c:	b08c      	sub	sp, #48	@ 0x30
2ffc7a8e:	af02      	add	r7, sp, #8
2ffc7a90:	6078      	str	r0, [r7, #4]
2ffc7a92:	6039      	str	r1, [r7, #0]
2ffc7a94:	2300      	movs	r3, #0
2ffc7a96:	61fb      	str	r3, [r7, #28]
2ffc7a98:	2300      	movs	r3, #0
2ffc7a9a:	61bb      	str	r3, [r7, #24]
2ffc7a9c:	2307      	movs	r3, #7
2ffc7a9e:	623b      	str	r3, [r7, #32]
2ffc7aa0:	683b      	ldr	r3, [r7, #0]
2ffc7aa2:	627b      	str	r3, [r7, #36]	@ 0x24
2ffc7aa4:	683b      	ldr	r3, [r7, #0]
2ffc7aa6:	2b03      	cmp	r3, #3
2ffc7aa8:	d108      	bne.n	2ffc7abc <_ZL19wait_operating_modeP8ddr_infoi+0x32>
2ffc7aaa:	6a3b      	ldr	r3, [r7, #32]
2ffc7aac:	f043 0330 	orr.w	r3, r3, #48	@ 0x30
2ffc7ab0:	623b      	str	r3, [r7, #32]
2ffc7ab2:	6a7b      	ldr	r3, [r7, #36]	@ 0x24
2ffc7ab4:	f043 0320 	orr.w	r3, r3, #32
2ffc7ab8:	627b      	str	r3, [r7, #36]	@ 0x24
2ffc7aba:	e006      	b.n	2ffc7aca <_ZL19wait_operating_modeP8ddr_infoi+0x40>
2ffc7abc:	683b      	ldr	r3, [r7, #0]
2ffc7abe:	2b01      	cmp	r3, #1
2ffc7ac0:	d103      	bne.n	2ffc7aca <_ZL19wait_operating_modeP8ddr_infoi+0x40>
2ffc7ac2:	2337      	movs	r3, #55	@ 0x37
2ffc7ac4:	61bb      	str	r3, [r7, #24]
2ffc7ac6:	2333      	movs	r3, #51	@ 0x33
2ffc7ac8:	61fb      	str	r3, [r7, #28]
2ffc7aca:	f244 2340 	movw	r3, #16960	@ 0x4240
2ffc7ace:	f2c0 030f 	movt	r3, #15
2ffc7ad2:	617b      	str	r3, [r7, #20]
2ffc7ad4:	687b      	ldr	r3, [r7, #4]
2ffc7ad6:	6a9b      	ldr	r3, [r3, #40]	@ 0x28
2ffc7ad8:	3304      	adds	r3, #4
2ffc7ada:	681b      	ldr	r3, [r3, #0]
2ffc7adc:	613b      	str	r3, [r7, #16]
2ffc7ade:	f3bf 8f5f 	dmb	sy
2ffc7ae2:	693b      	ldr	r3, [r7, #16]
2ffc7ae4:	60fb      	str	r3, [r7, #12]
2ffc7ae6:	68fa      	ldr	r2, [r7, #12]
2ffc7ae8:	6a3b      	ldr	r3, [r7, #32]
2ffc7aea:	4013      	ands	r3, r2
2ffc7aec:	6a7a      	ldr	r2, [r7, #36]	@ 0x24
2ffc7aee:	429a      	cmp	r2, r3
2ffc7af0:	d009      	beq.n	2ffc7b06 <_ZL19wait_operating_modeP8ddr_infoi+0x7c>
2ffc7af2:	69bb      	ldr	r3, [r7, #24]
2ffc7af4:	2b00      	cmp	r3, #0
2ffc7af6:	d0ed      	beq.n	2ffc7ad4 <_ZL19wait_operating_modeP8ddr_infoi+0x4a>
2ffc7af8:	68fa      	ldr	r2, [r7, #12]
2ffc7afa:	69bb      	ldr	r3, [r7, #24]
2ffc7afc:	4013      	ands	r3, r2
2ffc7afe:	69fa      	ldr	r2, [r7, #28]
2ffc7b00:	429a      	cmp	r2, r3
2ffc7b02:	d000      	beq.n	2ffc7b06 <_ZL19wait_operating_modeP8ddr_infoi+0x7c>
2ffc7b04:	e7e6      	b.n	2ffc7ad4 <_ZL19wait_operating_modeP8ddr_infoi+0x4a>
2ffc7b06:	68fa      	ldr	r2, [r7, #12]
2ffc7b08:	6a3b      	ldr	r3, [r7, #32]
2ffc7b0a:	4013      	ands	r3, r2
2ffc7b0c:	6a7a      	ldr	r2, [r7, #36]	@ 0x24
2ffc7b0e:	429a      	cmp	r2, r3
2ffc7b10:	d008      	beq.n	2ffc7b24 <_ZL19wait_operating_modeP8ddr_infoi+0x9a>
2ffc7b12:	69bb      	ldr	r3, [r7, #24]
2ffc7b14:	2b00      	cmp	r3, #0
2ffc7b16:	d007      	beq.n	2ffc7b28 <_ZL19wait_operating_modeP8ddr_infoi+0x9e>
2ffc7b18:	68fa      	ldr	r2, [r7, #12]
2ffc7b1a:	69bb      	ldr	r3, [r7, #24]
2ffc7b1c:	4013      	ands	r3, r2
2ffc7b1e:	69fa      	ldr	r2, [r7, #28]
2ffc7b20:	429a      	cmp	r2, r3
2ffc7b22:	d101      	bne.n	2ffc7b28 <_ZL19wait_operating_modeP8ddr_infoi+0x9e>
2ffc7b24:	2300      	movs	r3, #0
2ffc7b26:	e001      	b.n	2ffc7b2c <_ZL19wait_operating_modeP8ddr_infoi+0xa2>
2ffc7b28:	f06f 0373 	mvn.w	r3, #115	@ 0x73
2ffc7b2c:	60bb      	str	r3, [r7, #8]
2ffc7b2e:	68bb      	ldr	r3, [r7, #8]
2ffc7b30:	2b00      	cmp	r3, #0
2ffc7b32:	d00a      	beq.n	2ffc7b4a <_ZL19wait_operating_modeP8ddr_infoi+0xc0>
2ffc7b34:	f249 52a4 	movw	r2, #38308	@ 0x95a4
2ffc7b38:	f6c2 72fc 	movt	r2, #12284	@ 0x2ffc
2ffc7b3c:	68f9      	ldr	r1, [r7, #12]
2ffc7b3e:	f249 60e0 	movw	r0, #38624	@ 0x96e0
2ffc7b42:	f6c2 70fc 	movt	r0, #12284	@ 0x2ffc
2ffc7b46:	f000 faf8 	bl	2ffc813a <_Z5panicIJPKcjS1_EEvDpT_>
2ffc7b4a:	687b      	ldr	r3, [r7, #4]
2ffc7b4c:	6a9b      	ldr	r3, [r3, #40]	@ 0x28
2ffc7b4e:	3304      	adds	r3, #4
2ffc7b50:	4619      	mov	r1, r3
2ffc7b52:	68fa      	ldr	r2, [r7, #12]
2ffc7b54:	f249 53a4 	movw	r3, #38308	@ 0x95a4
2ffc7b58:	f6c2 73fc 	movt	r3, #12284	@ 0x2ffc
2ffc7b5c:	9300      	str	r3, [sp, #0]
2ffc7b5e:	4613      	mov	r3, r2
2ffc7b60:	f249 62fc 	movw	r2, #38652	@ 0x96fc
2ffc7b64:	f6c2 72fc 	movt	r2, #12284	@ 0x2ffc
2ffc7b68:	f249 50d4 	movw	r0, #38356	@ 0x95d4
2ffc7b6c:	f6c2 70fc 	movt	r0, #12284	@ 0x2ffc
2ffc7b70:	f000 fac9 	bl	2ffc8106 <_Z5debugIJPKc3HexS1_S2_S1_EEvDpT_>
2ffc7b74:	bf00      	nop
2ffc7b76:	3728      	adds	r7, #40	@ 0x28
2ffc7b78:	46bd      	mov	sp, r7
2ffc7b7a:	bd80      	pop	{r7, pc}

2ffc7b7c <_Z24stm32mp1_refresh_disableP15stm32mp1_ddrctl>:
2ffc7b7c:	b580      	push	{r7, lr}
2ffc7b7e:	b082      	sub	sp, #8
2ffc7b80:	af00      	add	r7, sp, #0
2ffc7b82:	6078      	str	r0, [r7, #4]
2ffc7b84:	6878      	ldr	r0, [r7, #4]
2ffc7b86:	f7ff ff19 	bl	2ffc79bc <_ZL13start_sw_doneP15stm32mp1_ddrctl>
2ffc7b8a:	687b      	ldr	r3, [r7, #4]
2ffc7b8c:	3360      	adds	r3, #96	@ 0x60
2ffc7b8e:	681a      	ldr	r2, [r3, #0]
2ffc7b90:	687b      	ldr	r3, [r7, #4]
2ffc7b92:	3360      	adds	r3, #96	@ 0x60
2ffc7b94:	f042 0201 	orr.w	r2, r2, #1
2ffc7b98:	601a      	str	r2, [r3, #0]
2ffc7b9a:	687b      	ldr	r3, [r7, #4]
2ffc7b9c:	3330      	adds	r3, #48	@ 0x30
2ffc7b9e:	681a      	ldr	r2, [r3, #0]
2ffc7ba0:	687b      	ldr	r3, [r7, #4]
2ffc7ba2:	3330      	adds	r3, #48	@ 0x30
2ffc7ba4:	f022 0203 	bic.w	r2, r2, #3
2ffc7ba8:	601a      	str	r2, [r3, #0]
2ffc7baa:	687b      	ldr	r3, [r7, #4]
2ffc7bac:	f503 73d8 	add.w	r3, r3, #432	@ 0x1b0
2ffc7bb0:	681a      	ldr	r2, [r3, #0]
2ffc7bb2:	687b      	ldr	r3, [r7, #4]
2ffc7bb4:	f503 73d8 	add.w	r3, r3, #432	@ 0x1b0
2ffc7bb8:	f022 0201 	bic.w	r2, r2, #1
2ffc7bbc:	601a      	str	r2, [r3, #0]
2ffc7bbe:	6878      	ldr	r0, [r7, #4]
2ffc7bc0:	f7ff ff10 	bl	2ffc79e4 <_ZL16wait_sw_done_ackP15stm32mp1_ddrctl>
2ffc7bc4:	bf00      	nop
2ffc7bc6:	3708      	adds	r7, #8
2ffc7bc8:	46bd      	mov	sp, r7
2ffc7bca:	bd80      	pop	{r7, pc}

2ffc7bcc <_Z24stm32mp1_refresh_restoreP15stm32mp1_ddrctljj>:
2ffc7bcc:	b580      	push	{r7, lr}
2ffc7bce:	b084      	sub	sp, #16
2ffc7bd0:	af00      	add	r7, sp, #0
2ffc7bd2:	60f8      	str	r0, [r7, #12]
2ffc7bd4:	60b9      	str	r1, [r7, #8]
2ffc7bd6:	607a      	str	r2, [r7, #4]
2ffc7bd8:	68f8      	ldr	r0, [r7, #12]
2ffc7bda:	f7ff feef 	bl	2ffc79bc <_ZL13start_sw_doneP15stm32mp1_ddrctl>
2ffc7bde:	68bb      	ldr	r3, [r7, #8]
2ffc7be0:	f003 0301 	and.w	r3, r3, #1
2ffc7be4:	2b00      	cmp	r3, #0
2ffc7be6:	d107      	bne.n	2ffc7bf8 <_Z24stm32mp1_refresh_restoreP15stm32mp1_ddrctljj+0x2c>
2ffc7be8:	68fb      	ldr	r3, [r7, #12]
2ffc7bea:	3360      	adds	r3, #96	@ 0x60
2ffc7bec:	681a      	ldr	r2, [r3, #0]
2ffc7bee:	68fb      	ldr	r3, [r7, #12]
2ffc7bf0:	3360      	adds	r3, #96	@ 0x60
2ffc7bf2:	f022 0201 	bic.w	r2, r2, #1
2ffc7bf6:	601a      	str	r2, [r3, #0]
2ffc7bf8:	687b      	ldr	r3, [r7, #4]
2ffc7bfa:	f003 0302 	and.w	r3, r3, #2
2ffc7bfe:	2b00      	cmp	r3, #0
2ffc7c00:	d007      	beq.n	2ffc7c12 <_Z24stm32mp1_refresh_restoreP15stm32mp1_ddrctljj+0x46>
2ffc7c02:	68fb      	ldr	r3, [r7, #12]
2ffc7c04:	3330      	adds	r3, #48	@ 0x30
2ffc7c06:	681a      	ldr	r2, [r3, #0]
2ffc7c08:	68fb      	ldr	r3, [r7, #12]
2ffc7c0a:	3330      	adds	r3, #48	@ 0x30
2ffc7c0c:	f042 0202 	orr.w	r2, r2, #2
2ffc7c10:	601a      	str	r2, [r3, #0]
2ffc7c12:	687b      	ldr	r3, [r7, #4]
2ffc7c14:	f003 0301 	and.w	r3, r3, #1
2ffc7c18:	2b00      	cmp	r3, #0
2ffc7c1a:	d007      	beq.n	2ffc7c2c <_Z24stm32mp1_refresh_restoreP15stm32mp1_ddrctljj+0x60>
2ffc7c1c:	68fb      	ldr	r3, [r7, #12]
2ffc7c1e:	3330      	adds	r3, #48	@ 0x30
2ffc7c20:	681a      	ldr	r2, [r3, #0]
2ffc7c22:	68fb      	ldr	r3, [r7, #12]
2ffc7c24:	3330      	adds	r3, #48	@ 0x30
2ffc7c26:	f042 0201 	orr.w	r2, r2, #1
2ffc7c2a:	601a      	str	r2, [r3, #0]
2ffc7c2c:	68fb      	ldr	r3, [r7, #12]
2ffc7c2e:	f503 73d8 	add.w	r3, r3, #432	@ 0x1b0
2ffc7c32:	681a      	ldr	r2, [r3, #0]
2ffc7c34:	68fb      	ldr	r3, [r7, #12]
2ffc7c36:	f503 73d8 	add.w	r3, r3, #432	@ 0x1b0
2ffc7c3a:	f042 0201 	orr.w	r2, r2, #1
2ffc7c3e:	601a      	str	r2, [r3, #0]
2ffc7c40:	68f8      	ldr	r0, [r7, #12]
2ffc7c42:	f7ff fecf 	bl	2ffc79e4 <_ZL16wait_sw_done_ackP15stm32mp1_ddrctl>
2ffc7c46:	bf00      	nop
2ffc7c48:	3710      	adds	r7, #16
2ffc7c4a:	46bd      	mov	sp, r7
2ffc7c4c:	bd80      	pop	{r7, pc}

2ffc7c4e <_Z20board_ddr_power_init8ddr_type>:
2ffc7c4e:	b480      	push	{r7}
2ffc7c50:	b083      	sub	sp, #12
2ffc7c52:	af00      	add	r7, sp, #0
2ffc7c54:	4603      	mov	r3, r0
2ffc7c56:	71fb      	strb	r3, [r7, #7]
2ffc7c58:	2300      	movs	r3, #0
2ffc7c5a:	4618      	mov	r0, r3
2ffc7c5c:	370c      	adds	r7, #12
2ffc7c5e:	46bd      	mov	sp, r7
2ffc7c60:	f85d 7b04 	ldr.w	r7, [sp], #4
2ffc7c64:	4770      	bx	lr

2ffc7c66 <_Z17stm32mp1_ddr_initP8ddr_infoPK19stm32mp1_ddr_config>:
2ffc7c66:	b580      	push	{r7, lr}
2ffc7c68:	b088      	sub	sp, #32
2ffc7c6a:	af02      	add	r7, sp, #8
2ffc7c6c:	6078      	str	r0, [r7, #4]
2ffc7c6e:	6039      	str	r1, [r7, #0]
2ffc7c70:	f06f 0315 	mvn.w	r3, #21
2ffc7c74:	613b      	str	r3, [r7, #16]
2ffc7c76:	683b      	ldr	r3, [r7, #0]
2ffc7c78:	68db      	ldr	r3, [r3, #12]
2ffc7c7a:	f403 5340 	and.w	r3, r3, #12288	@ 0x3000
2ffc7c7e:	f5b3 5f80 	cmp.w	r3, #4096	@ 0x1000
2ffc7c82:	d005      	beq.n	2ffc7c90 <_Z17stm32mp1_ddr_initP8ddr_infoPK19stm32mp1_ddr_config+0x2a>
2ffc7c84:	f5b3 5f00 	cmp.w	r3, #8192	@ 0x2000
2ffc7c88:	d105      	bne.n	2ffc7c96 <_Z17stm32mp1_ddr_initP8ddr_infoPK19stm32mp1_ddr_config+0x30>
2ffc7c8a:	2308      	movs	r3, #8
2ffc7c8c:	73fb      	strb	r3, [r7, #15]
2ffc7c8e:	e005      	b.n	2ffc7c9c <_Z17stm32mp1_ddr_initP8ddr_infoPK19stm32mp1_ddr_config+0x36>
2ffc7c90:	2310      	movs	r3, #16
2ffc7c92:	73fb      	strb	r3, [r7, #15]
2ffc7c94:	e002      	b.n	2ffc7c9c <_Z17stm32mp1_ddr_initP8ddr_infoPK19stm32mp1_ddr_config+0x36>
2ffc7c96:	2320      	movs	r3, #32
2ffc7c98:	73fb      	strb	r3, [r7, #15]
2ffc7c9a:	bf00      	nop
2ffc7c9c:	683b      	ldr	r3, [r7, #0]
2ffc7c9e:	68db      	ldr	r3, [r3, #12]
2ffc7ca0:	f003 0301 	and.w	r3, r3, #1
2ffc7ca4:	2b00      	cmp	r3, #0
2ffc7ca6:	d004      	beq.n	2ffc7cb2 <_Z17stm32mp1_ddr_initP8ddr_infoPK19stm32mp1_ddr_config+0x4c>
2ffc7ca8:	2000      	movs	r0, #0
2ffc7caa:	f7ff ffd0 	bl	2ffc7c4e <_Z20board_ddr_power_init8ddr_type>
2ffc7cae:	6138      	str	r0, [r7, #16]
2ffc7cb0:	e024      	b.n	2ffc7cfc <_Z17stm32mp1_ddr_initP8ddr_infoPK19stm32mp1_ddr_config+0x96>
2ffc7cb2:	683b      	ldr	r3, [r7, #0]
2ffc7cb4:	68db      	ldr	r3, [r3, #12]
2ffc7cb6:	f003 0304 	and.w	r3, r3, #4
2ffc7cba:	2b00      	cmp	r3, #0
2ffc7cbc:	d00c      	beq.n	2ffc7cd8 <_Z17stm32mp1_ddr_initP8ddr_infoPK19stm32mp1_ddr_config+0x72>
2ffc7cbe:	7bfb      	ldrb	r3, [r7, #15]
2ffc7cc0:	2b20      	cmp	r3, #32
2ffc7cc2:	d104      	bne.n	2ffc7cce <_Z17stm32mp1_ddr_initP8ddr_infoPK19stm32mp1_ddr_config+0x68>
2ffc7cc4:	2002      	movs	r0, #2
2ffc7cc6:	f7ff ffc2 	bl	2ffc7c4e <_Z20board_ddr_power_init8ddr_type>
2ffc7cca:	6138      	str	r0, [r7, #16]
2ffc7ccc:	e016      	b.n	2ffc7cfc <_Z17stm32mp1_ddr_initP8ddr_infoPK19stm32mp1_ddr_config+0x96>
2ffc7cce:	2001      	movs	r0, #1
2ffc7cd0:	f7ff ffbd 	bl	2ffc7c4e <_Z20board_ddr_power_init8ddr_type>
2ffc7cd4:	6138      	str	r0, [r7, #16]
2ffc7cd6:	e011      	b.n	2ffc7cfc <_Z17stm32mp1_ddr_initP8ddr_infoPK19stm32mp1_ddr_config+0x96>
2ffc7cd8:	683b      	ldr	r3, [r7, #0]
2ffc7cda:	68db      	ldr	r3, [r3, #12]
2ffc7cdc:	f003 0308 	and.w	r3, r3, #8
2ffc7ce0:	2b00      	cmp	r3, #0
2ffc7ce2:	d00b      	beq.n	2ffc7cfc <_Z17stm32mp1_ddr_initP8ddr_infoPK19stm32mp1_ddr_config+0x96>
2ffc7ce4:	7bfb      	ldrb	r3, [r7, #15]
2ffc7ce6:	2b20      	cmp	r3, #32
2ffc7ce8:	d104      	bne.n	2ffc7cf4 <_Z17stm32mp1_ddr_initP8ddr_infoPK19stm32mp1_ddr_config+0x8e>
2ffc7cea:	2004      	movs	r0, #4
2ffc7cec:	f7ff ffaf 	bl	2ffc7c4e <_Z20board_ddr_power_init8ddr_type>
2ffc7cf0:	6138      	str	r0, [r7, #16]
2ffc7cf2:	e003      	b.n	2ffc7cfc <_Z17stm32mp1_ddr_initP8ddr_infoPK19stm32mp1_ddr_config+0x96>
2ffc7cf4:	2003      	movs	r0, #3
2ffc7cf6:	f7ff ffaa 	bl	2ffc7c4e <_Z20board_ddr_power_init8ddr_type>
2ffc7cfa:	6138      	str	r0, [r7, #16]
2ffc7cfc:	693b      	ldr	r3, [r7, #16]
2ffc7cfe:	2b00      	cmp	r3, #0
2ffc7d00:	d006      	beq.n	2ffc7d10 <_Z17stm32mp1_ddr_initP8ddr_infoPK19stm32mp1_ddr_config+0xaa>
2ffc7d02:	f249 7008 	movw	r0, #38664	@ 0x9708
2ffc7d06:	f6c2 70fc 	movt	r0, #12284	@ 0x2ffc
2ffc7d0a:	f000 fa22 	bl	2ffc8152 <_Z5panicIJPKcEEvDpT_>
2ffc7d0e:	e000      	b.n	2ffc7d12 <_Z17stm32mp1_ddr_initP8ddr_infoPK19stm32mp1_ddr_config+0xac>
2ffc7d10:	bf00      	nop
2ffc7d12:	683b      	ldr	r3, [r7, #0]
2ffc7d14:	681b      	ldr	r3, [r3, #0]
2ffc7d16:	f249 52a4 	movw	r2, #38308	@ 0x95a4
2ffc7d1a:	f6c2 72fc 	movt	r2, #12284	@ 0x2ffc
2ffc7d1e:	4619      	mov	r1, r3
2ffc7d20:	f249 7020 	movw	r0, #38688	@ 0x9720
2ffc7d24:	f6c2 70fc 	movt	r0, #12284	@ 0x2ffc
2ffc7d28:	f000 fa1b 	bl	2ffc8162 <_Z3logIJPKcS1_S1_EEvDpT_>
2ffc7d2c:	683b      	ldr	r3, [r7, #0]
2ffc7d2e:	685b      	ldr	r3, [r3, #4]
2ffc7d30:	f249 7228 	movw	r2, #38696	@ 0x9728
2ffc7d34:	f6c2 72fc 	movt	r2, #12284	@ 0x2ffc
2ffc7d38:	4619      	mov	r1, r3
2ffc7d3a:	f249 7030 	movw	r0, #38704	@ 0x9730
2ffc7d3e:	f6c2 70fc 	movt	r0, #12284	@ 0x2ffc
2ffc7d42:	f000 fa1a 	bl	2ffc817a <_Z3logIJPKcjS1_EEvDpT_>
2ffc7d46:	683b      	ldr	r3, [r7, #0]
2ffc7d48:	689b      	ldr	r3, [r3, #8]
2ffc7d4a:	f249 52a4 	movw	r2, #38308	@ 0x95a4
2ffc7d4e:	f6c2 72fc 	movt	r2, #12284	@ 0x2ffc
2ffc7d52:	4619      	mov	r1, r3
2ffc7d54:	f249 703c 	movw	r0, #38716	@ 0x973c
2ffc7d58:	f6c2 70fc 	movt	r0, #12284	@ 0x2ffc
2ffc7d5c:	f000 fa19 	bl	2ffc8192 <_Z3logIJPKc3HexS1_EEvDpT_>
2ffc7d60:	687b      	ldr	r3, [r7, #4]
2ffc7d62:	6b1b      	ldr	r3, [r3, #48]	@ 0x30
2ffc7d64:	33d8      	adds	r3, #216	@ 0xd8
2ffc7d66:	681b      	ldr	r3, [r3, #0]
2ffc7d68:	687a      	ldr	r2, [r7, #4]
2ffc7d6a:	6b12      	ldr	r2, [r2, #48]	@ 0x30
2ffc7d6c:	32d8      	adds	r2, #216	@ 0xd8
2ffc7d6e:	f443 4380 	orr.w	r3, r3, #16384	@ 0x4000
2ffc7d72:	6013      	str	r3, [r2, #0]
2ffc7d74:	687b      	ldr	r3, [r7, #4]
2ffc7d76:	6b1b      	ldr	r3, [r3, #48]	@ 0x30
2ffc7d78:	33d8      	adds	r3, #216	@ 0xd8
2ffc7d7a:	681b      	ldr	r3, [r3, #0]
2ffc7d7c:	687a      	ldr	r2, [r7, #4]
2ffc7d7e:	6b12      	ldr	r2, [r2, #48]	@ 0x30
2ffc7d80:	32d8      	adds	r2, #216	@ 0xd8
2ffc7d82:	f443 4300 	orr.w	r3, r3, #32768	@ 0x8000
2ffc7d86:	6013      	str	r3, [r2, #0]
2ffc7d88:	687b      	ldr	r3, [r7, #4]
2ffc7d8a:	6b1b      	ldr	r3, [r3, #48]	@ 0x30
2ffc7d8c:	33d8      	adds	r3, #216	@ 0xd8
2ffc7d8e:	681b      	ldr	r3, [r3, #0]
2ffc7d90:	687a      	ldr	r2, [r7, #4]
2ffc7d92:	6b12      	ldr	r2, [r2, #48]	@ 0x30
2ffc7d94:	32d8      	adds	r2, #216	@ 0xd8
2ffc7d96:	f443 3380 	orr.w	r3, r3, #65536	@ 0x10000
2ffc7d9a:	6013      	str	r3, [r2, #0]
2ffc7d9c:	687b      	ldr	r3, [r7, #4]
2ffc7d9e:	6b1b      	ldr	r3, [r3, #48]	@ 0x30
2ffc7da0:	33d8      	adds	r3, #216	@ 0xd8
2ffc7da2:	681b      	ldr	r3, [r3, #0]
2ffc7da4:	687a      	ldr	r2, [r7, #4]
2ffc7da6:	6b12      	ldr	r2, [r2, #48]	@ 0x30
2ffc7da8:	32d8      	adds	r2, #216	@ 0xd8
2ffc7daa:	f443 3300 	orr.w	r3, r3, #131072	@ 0x20000
2ffc7dae:	6013      	str	r3, [r2, #0]
2ffc7db0:	687b      	ldr	r3, [r7, #4]
2ffc7db2:	6b1b      	ldr	r3, [r3, #48]	@ 0x30
2ffc7db4:	33d8      	adds	r3, #216	@ 0xd8
2ffc7db6:	681b      	ldr	r3, [r3, #0]
2ffc7db8:	687a      	ldr	r2, [r7, #4]
2ffc7dba:	6b12      	ldr	r2, [r2, #48]	@ 0x30
2ffc7dbc:	32d8      	adds	r2, #216	@ 0xd8
2ffc7dbe:	f443 2380 	orr.w	r3, r3, #262144	@ 0x40000
2ffc7dc2:	6013      	str	r3, [r2, #0]
2ffc7dc4:	687b      	ldr	r3, [r7, #4]
2ffc7dc6:	6b1b      	ldr	r3, [r3, #48]	@ 0x30
2ffc7dc8:	33d8      	adds	r3, #216	@ 0xd8
2ffc7dca:	681b      	ldr	r3, [r3, #0]
2ffc7dcc:	687a      	ldr	r2, [r7, #4]
2ffc7dce:	6b12      	ldr	r2, [r2, #48]	@ 0x30
2ffc7dd0:	32d8      	adds	r2, #216	@ 0xd8
2ffc7dd2:	f443 2300 	orr.w	r3, r3, #524288	@ 0x80000
2ffc7dd6:	6013      	str	r3, [r2, #0]
2ffc7dd8:	683b      	ldr	r3, [r7, #0]
2ffc7dda:	685b      	ldr	r3, [r3, #4]
2ffc7ddc:	4619      	mov	r1, r3
2ffc7dde:	6878      	ldr	r0, [r7, #4]
2ffc7de0:	f000 f9f2 	bl	2ffc81c8 <_Z23stm32mp1_ddr_clk_enableP8ddr_infoj>
2ffc7de4:	4603      	mov	r3, r0
2ffc7de6:	2b00      	cmp	r3, #0
2ffc7de8:	bf14      	ite	ne
2ffc7dea:	2301      	movne	r3, #1
2ffc7dec:	2300      	moveq	r3, #0
2ffc7dee:	b2db      	uxtb	r3, r3
2ffc7df0:	2b00      	cmp	r3, #0
2ffc7df2:	d00c      	beq.n	2ffc7e0e <_Z17stm32mp1_ddr_initP8ddr_infoPK19stm32mp1_ddr_config+0x1a8>
2ffc7df4:	683b      	ldr	r3, [r7, #0]
2ffc7df6:	685b      	ldr	r3, [r3, #4]
2ffc7df8:	f249 7228 	movw	r2, #38696	@ 0x9728
2ffc7dfc:	f6c2 72fc 	movt	r2, #12284	@ 0x2ffc
2ffc7e00:	4619      	mov	r1, r3
2ffc7e02:	f249 7048 	movw	r0, #38728	@ 0x9748
2ffc7e06:	f6c2 70fc 	movt	r0, #12284	@ 0x2ffc
2ffc7e0a:	f000 f996 	bl	2ffc813a <_Z5panicIJPKcjS1_EEvDpT_>
2ffc7e0e:	687b      	ldr	r3, [r7, #4]
2ffc7e10:	6b1b      	ldr	r3, [r3, #48]	@ 0x30
2ffc7e12:	33d8      	adds	r3, #216	@ 0xd8
2ffc7e14:	681b      	ldr	r3, [r3, #0]
2ffc7e16:	687a      	ldr	r2, [r7, #4]
2ffc7e18:	6b12      	ldr	r2, [r2, #48]	@ 0x30
2ffc7e1a:	32d8      	adds	r2, #216	@ 0xd8
2ffc7e1c:	f423 2380 	bic.w	r3, r3, #262144	@ 0x40000
2ffc7e20:	6013      	str	r3, [r2, #0]
2ffc7e22:	687b      	ldr	r3, [r7, #4]
2ffc7e24:	6b1b      	ldr	r3, [r3, #48]	@ 0x30
2ffc7e26:	33d8      	adds	r3, #216	@ 0xd8
2ffc7e28:	681b      	ldr	r3, [r3, #0]
2ffc7e2a:	687a      	ldr	r2, [r7, #4]
2ffc7e2c:	6b12      	ldr	r2, [r2, #48]	@ 0x30
2ffc7e2e:	32d8      	adds	r2, #216	@ 0xd8
2ffc7e30:	f423 2300 	bic.w	r3, r3, #524288	@ 0x80000
2ffc7e34:	6013      	str	r3, [r2, #0]
2ffc7e36:	687b      	ldr	r3, [r7, #4]
2ffc7e38:	6b1b      	ldr	r3, [r3, #48]	@ 0x30
2ffc7e3a:	33d8      	adds	r3, #216	@ 0xd8
2ffc7e3c:	681b      	ldr	r3, [r3, #0]
2ffc7e3e:	687a      	ldr	r2, [r7, #4]
2ffc7e40:	6b12      	ldr	r2, [r2, #48]	@ 0x30
2ffc7e42:	32d8      	adds	r2, #216	@ 0xd8
2ffc7e44:	f423 4380 	bic.w	r3, r3, #16384	@ 0x4000
2ffc7e48:	6013      	str	r3, [r2, #0]
2ffc7e4a:	2002      	movs	r0, #2
2ffc7e4c:	f7ff fc21 	bl	2ffc7692 <_ZL6udelaym>
2ffc7e50:	683a      	ldr	r2, [r7, #0]
2ffc7e52:	2100      	movs	r1, #0
2ffc7e54:	6878      	ldr	r0, [r7, #4]
2ffc7e56:	f7ff fcf2 	bl	2ffc783e <_Z24stm32mp1_ddr_interactivePv26stm32mp1_ddr_interact_stepPK19stm32mp1_ddr_config>
2ffc7e5a:	4603      	mov	r3, r0
2ffc7e5c:	2b00      	cmp	r3, #0
2ffc7e5e:	d000      	beq.n	2ffc7e62 <_Z17stm32mp1_ddr_initP8ddr_infoPK19stm32mp1_ddr_config+0x1fc>
2ffc7e60:	e757      	b.n	2ffc7d12 <_Z17stm32mp1_ddr_initP8ddr_infoPK19stm32mp1_ddr_config+0xac>
2ffc7e62:	687b      	ldr	r3, [r7, #4]
2ffc7e64:	6a9b      	ldr	r3, [r3, #40]	@ 0x28
2ffc7e66:	f503 73d8 	add.w	r3, r3, #432	@ 0x1b0
2ffc7e6a:	681a      	ldr	r2, [r3, #0]
2ffc7e6c:	687b      	ldr	r3, [r7, #4]
2ffc7e6e:	6a9b      	ldr	r3, [r3, #40]	@ 0x28
2ffc7e70:	f503 73d8 	add.w	r3, r3, #432	@ 0x1b0
2ffc7e74:	f022 0201 	bic.w	r2, r2, #1
2ffc7e78:	601a      	str	r2, [r3, #0]
2ffc7e7a:	687b      	ldr	r3, [r7, #4]
2ffc7e7c:	6a9b      	ldr	r3, [r3, #40]	@ 0x28
2ffc7e7e:	f503 73d8 	add.w	r3, r3, #432	@ 0x1b0
2ffc7e82:	4619      	mov	r1, r3
2ffc7e84:	687b      	ldr	r3, [r7, #4]
2ffc7e86:	6a9b      	ldr	r3, [r3, #40]	@ 0x28
2ffc7e88:	f503 73d8 	add.w	r3, r3, #432	@ 0x1b0
2ffc7e8c:	681b      	ldr	r3, [r3, #0]
2ffc7e8e:	60bb      	str	r3, [r7, #8]
2ffc7e90:	f3bf 8f5f 	dmb	sy
2ffc7e94:	68ba      	ldr	r2, [r7, #8]
2ffc7e96:	f249 53a4 	movw	r3, #38308	@ 0x95a4
2ffc7e9a:	f6c2 73fc 	movt	r3, #12284	@ 0x2ffc
2ffc7e9e:	9300      	str	r3, [sp, #0]
2ffc7ea0:	4613      	mov	r3, r2
2ffc7ea2:	f249 7260 	movw	r2, #38752	@ 0x9760
2ffc7ea6:	f6c2 72fc 	movt	r2, #12284	@ 0x2ffc
2ffc7eaa:	f249 50d4 	movw	r0, #38356	@ 0x95d4
2ffc7eae:	f6c2 70fc 	movt	r0, #12284	@ 0x2ffc
2ffc7eb2:	f000 f928 	bl	2ffc8106 <_Z5debugIJPKc3HexS1_S2_S1_EEvDpT_>
2ffc7eb6:	683b      	ldr	r3, [r7, #0]
2ffc7eb8:	330c      	adds	r3, #12
2ffc7eba:	461a      	mov	r2, r3
2ffc7ebc:	2100      	movs	r1, #0
2ffc7ebe:	6878      	ldr	r0, [r7, #4]
2ffc7ec0:	f7ff fc1b 	bl	2ffc76fa <_ZL7set_regPK8ddr_info8reg_typePKv>
2ffc7ec4:	683b      	ldr	r3, [r7, #0]
2ffc7ec6:	3370      	adds	r3, #112	@ 0x70
2ffc7ec8:	461a      	mov	r2, r3
2ffc7eca:	2101      	movs	r1, #1
2ffc7ecc:	6878      	ldr	r0, [r7, #4]
2ffc7ece:	f7ff fc14 	bl	2ffc76fa <_ZL7set_regPK8ddr_info8reg_typePKv>
2ffc7ed2:	683b      	ldr	r3, [r7, #0]
2ffc7ed4:	33a0      	adds	r3, #160	@ 0xa0
2ffc7ed6:	461a      	mov	r2, r3
2ffc7ed8:	2103      	movs	r1, #3
2ffc7eda:	6878      	ldr	r0, [r7, #4]
2ffc7edc:	f7ff fc0d 	bl	2ffc76fa <_ZL7set_regPK8ddr_info8reg_typePKv>
2ffc7ee0:	687b      	ldr	r3, [r7, #4]
2ffc7ee2:	6a9b      	ldr	r3, [r3, #40]	@ 0x28
2ffc7ee4:	33d0      	adds	r3, #208	@ 0xd0
2ffc7ee6:	681b      	ldr	r3, [r3, #0]
2ffc7ee8:	f023 4240 	bic.w	r2, r3, #3221225472	@ 0xc0000000
2ffc7eec:	687b      	ldr	r3, [r7, #4]
2ffc7eee:	6a9b      	ldr	r3, [r3, #40]	@ 0x28
2ffc7ef0:	33d0      	adds	r3, #208	@ 0xd0
2ffc7ef2:	f042 4280 	orr.w	r2, r2, #1073741824	@ 0x40000000
2ffc7ef6:	601a      	str	r2, [r3, #0]
2ffc7ef8:	683b      	ldr	r3, [r7, #0]
2ffc7efa:	33c4      	adds	r3, #196	@ 0xc4
2ffc7efc:	461a      	mov	r2, r3
2ffc7efe:	2102      	movs	r1, #2
2ffc7f00:	6878      	ldr	r0, [r7, #4]
2ffc7f02:	f7ff fbfa 	bl	2ffc76fa <_ZL7set_regPK8ddr_info8reg_typePKv>
2ffc7f06:	683a      	ldr	r2, [r7, #0]
2ffc7f08:	2101      	movs	r1, #1
2ffc7f0a:	6878      	ldr	r0, [r7, #4]
2ffc7f0c:	f7ff fc97 	bl	2ffc783e <_Z24stm32mp1_ddr_interactivePv26stm32mp1_ddr_interact_stepPK19stm32mp1_ddr_config>
2ffc7f10:	4603      	mov	r3, r0
2ffc7f12:	2b00      	cmp	r3, #0
2ffc7f14:	d000      	beq.n	2ffc7f18 <_Z17stm32mp1_ddr_initP8ddr_infoPK19stm32mp1_ddr_config+0x2b2>
2ffc7f16:	e6fc      	b.n	2ffc7d12 <_Z17stm32mp1_ddr_initP8ddr_infoPK19stm32mp1_ddr_config+0xac>
2ffc7f18:	687b      	ldr	r3, [r7, #4]
2ffc7f1a:	6b1b      	ldr	r3, [r3, #48]	@ 0x30
2ffc7f1c:	33d8      	adds	r3, #216	@ 0xd8
2ffc7f1e:	681b      	ldr	r3, [r3, #0]
2ffc7f20:	687a      	ldr	r2, [r7, #4]
2ffc7f22:	6b12      	ldr	r2, [r2, #48]	@ 0x30
2ffc7f24:	32d8      	adds	r2, #216	@ 0xd8
2ffc7f26:	f423 3380 	bic.w	r3, r3, #65536	@ 0x10000
2ffc7f2a:	6013      	str	r3, [r2, #0]
2ffc7f2c:	687b      	ldr	r3, [r7, #4]
2ffc7f2e:	6b1b      	ldr	r3, [r3, #48]	@ 0x30
2ffc7f30:	33d8      	adds	r3, #216	@ 0xd8
2ffc7f32:	681b      	ldr	r3, [r3, #0]
2ffc7f34:	687a      	ldr	r2, [r7, #4]
2ffc7f36:	6b12      	ldr	r2, [r2, #48]	@ 0x30
2ffc7f38:	32d8      	adds	r2, #216	@ 0xd8
2ffc7f3a:	f423 4300 	bic.w	r3, r3, #32768	@ 0x8000
2ffc7f3e:	6013      	str	r3, [r2, #0]
2ffc7f40:	687b      	ldr	r3, [r7, #4]
2ffc7f42:	6b1b      	ldr	r3, [r3, #48]	@ 0x30
2ffc7f44:	33d8      	adds	r3, #216	@ 0xd8
2ffc7f46:	681b      	ldr	r3, [r3, #0]
2ffc7f48:	687a      	ldr	r2, [r7, #4]
2ffc7f4a:	6b12      	ldr	r2, [r2, #48]	@ 0x30
2ffc7f4c:	32d8      	adds	r2, #216	@ 0xd8
2ffc7f4e:	f423 3300 	bic.w	r3, r3, #131072	@ 0x20000
2ffc7f52:	6013      	str	r3, [r2, #0]
2ffc7f54:	683b      	ldr	r3, [r7, #0]
2ffc7f56:	f503 7384 	add.w	r3, r3, #264	@ 0x108
2ffc7f5a:	461a      	mov	r2, r3
2ffc7f5c:	2104      	movs	r1, #4
2ffc7f5e:	6878      	ldr	r0, [r7, #4]
2ffc7f60:	f7ff fbcb 	bl	2ffc76fa <_ZL7set_regPK8ddr_info8reg_typePKv>
2ffc7f64:	683b      	ldr	r3, [r7, #0]
2ffc7f66:	f503 739a 	add.w	r3, r3, #308	@ 0x134
2ffc7f6a:	461a      	mov	r2, r3
2ffc7f6c:	2105      	movs	r1, #5
2ffc7f6e:	6878      	ldr	r0, [r7, #4]
2ffc7f70:	f7ff fbc3 	bl	2ffc76fa <_ZL7set_regPK8ddr_info8reg_typePKv>
2ffc7f74:	683b      	ldr	r3, [r7, #0]
2ffc7f76:	f893 318c 	ldrb.w	r3, [r3, #396]	@ 0x18c
2ffc7f7a:	2b00      	cmp	r3, #0
2ffc7f7c:	d007      	beq.n	2ffc7f8e <_Z17stm32mp1_ddr_initP8ddr_infoPK19stm32mp1_ddr_config+0x328>
2ffc7f7e:	683b      	ldr	r3, [r7, #0]
2ffc7f80:	f503 73ae 	add.w	r3, r3, #348	@ 0x15c
2ffc7f84:	461a      	mov	r2, r3
2ffc7f86:	2106      	movs	r1, #6
2ffc7f88:	6878      	ldr	r0, [r7, #4]
2ffc7f8a:	f7ff fbb6 	bl	2ffc76fa <_ZL7set_regPK8ddr_info8reg_typePKv>
2ffc7f8e:	683a      	ldr	r2, [r7, #0]
2ffc7f90:	2102      	movs	r1, #2
2ffc7f92:	6878      	ldr	r0, [r7, #4]
2ffc7f94:	f7ff fc53 	bl	2ffc783e <_Z24stm32mp1_ddr_interactivePv26stm32mp1_ddr_interact_stepPK19stm32mp1_ddr_config>
2ffc7f98:	4603      	mov	r3, r0
2ffc7f9a:	2b00      	cmp	r3, #0
2ffc7f9c:	d000      	beq.n	2ffc7fa0 <_Z17stm32mp1_ddr_initP8ddr_infoPK19stm32mp1_ddr_config+0x33a>
2ffc7f9e:	e6b8      	b.n	2ffc7d12 <_Z17stm32mp1_ddr_initP8ddr_infoPK19stm32mp1_ddr_config+0xac>
2ffc7fa0:	687b      	ldr	r3, [r7, #4]
2ffc7fa2:	6adb      	ldr	r3, [r3, #44]	@ 0x2c
2ffc7fa4:	4618      	mov	r0, r3
2ffc7fa6:	f7ff fc58 	bl	2ffc785a <_ZL17ddrphy_idone_waitP15stm32mp1_ddrphy>
2ffc7faa:	235e      	movs	r3, #94	@ 0x5e
2ffc7fac:	f2c0 0301 	movt	r3, #1
2ffc7fb0:	617b      	str	r3, [r7, #20]
2ffc7fb2:	683b      	ldr	r3, [r7, #0]
2ffc7fb4:	68db      	ldr	r3, [r3, #12]
2ffc7fb6:	f003 0301 	and.w	r3, r3, #1
2ffc7fba:	2b00      	cmp	r3, #0
2ffc7fbc:	d003      	beq.n	2ffc7fc6 <_Z17stm32mp1_ddr_initP8ddr_infoPK19stm32mp1_ddr_config+0x360>
2ffc7fbe:	697b      	ldr	r3, [r7, #20]
2ffc7fc0:	f043 0320 	orr.w	r3, r3, #32
2ffc7fc4:	617b      	str	r3, [r7, #20]
2ffc7fc6:	687b      	ldr	r3, [r7, #4]
2ffc7fc8:	6adb      	ldr	r3, [r3, #44]	@ 0x2c
2ffc7fca:	6979      	ldr	r1, [r7, #20]
2ffc7fcc:	4618      	mov	r0, r3
2ffc7fce:	f7ff fcb8 	bl	2ffc7942 <_Z20stm32mp1_ddrphy_initP15stm32mp1_ddrphyj>
2ffc7fd2:	687b      	ldr	r3, [r7, #4]
2ffc7fd4:	6a9b      	ldr	r3, [r3, #40]	@ 0x28
2ffc7fd6:	4618      	mov	r0, r3
2ffc7fd8:	f7ff fcf0 	bl	2ffc79bc <_ZL13start_sw_doneP15stm32mp1_ddrctl>
2ffc7fdc:	687b      	ldr	r3, [r7, #4]
2ffc7fde:	6a9b      	ldr	r3, [r3, #40]	@ 0x28
2ffc7fe0:	f503 73d8 	add.w	r3, r3, #432	@ 0x1b0
2ffc7fe4:	681a      	ldr	r2, [r3, #0]
2ffc7fe6:	687b      	ldr	r3, [r7, #4]
2ffc7fe8:	6a9b      	ldr	r3, [r3, #40]	@ 0x28
2ffc7fea:	f503 73d8 	add.w	r3, r3, #432	@ 0x1b0
2ffc7fee:	f042 0201 	orr.w	r2, r2, #1
2ffc7ff2:	601a      	str	r2, [r3, #0]
2ffc7ff4:	687b      	ldr	r3, [r7, #4]
2ffc7ff6:	6a9b      	ldr	r3, [r3, #40]	@ 0x28
2ffc7ff8:	4618      	mov	r0, r3
2ffc7ffa:	f7ff fcf3 	bl	2ffc79e4 <_ZL16wait_sw_done_ackP15stm32mp1_ddrctl>
2ffc7ffe:	2101      	movs	r1, #1
2ffc8000:	6878      	ldr	r0, [r7, #4]
2ffc8002:	f7ff fd42 	bl	2ffc7a8a <_ZL19wait_operating_modeP8ddr_infoi>
2ffc8006:	683b      	ldr	r3, [r7, #0]
2ffc8008:	f893 318c 	ldrb.w	r3, [r3, #396]	@ 0x18c
2ffc800c:	2b00      	cmp	r3, #0
2ffc800e:	d006      	beq.n	2ffc801e <_Z17stm32mp1_ddr_initP8ddr_infoPK19stm32mp1_ddr_config+0x3b8>
2ffc8010:	f249 7070 	movw	r0, #38768	@ 0x9770
2ffc8014:	f6c2 70fc 	movt	r0, #12284	@ 0x2ffc
2ffc8018:	f000 f86b 	bl	2ffc80f2 <_Z5debugIJPKcEEvDpT_>
2ffc801c:	e01e      	b.n	2ffc805c <_Z17stm32mp1_ddr_initP8ddr_infoPK19stm32mp1_ddr_config+0x3f6>
2ffc801e:	f249 708c 	movw	r0, #38796	@ 0x978c
2ffc8022:	f6c2 70fc 	movt	r0, #12284	@ 0x2ffc
2ffc8026:	f000 f864 	bl	2ffc80f2 <_Z5debugIJPKcEEvDpT_>
2ffc802a:	687b      	ldr	r3, [r7, #4]
2ffc802c:	6a9b      	ldr	r3, [r3, #40]	@ 0x28
2ffc802e:	4618      	mov	r0, r3
2ffc8030:	f7ff fda4 	bl	2ffc7b7c <_Z24stm32mp1_refresh_disableP15stm32mp1_ddrctl>
2ffc8034:	687b      	ldr	r3, [r7, #4]
2ffc8036:	6adb      	ldr	r3, [r3, #44]	@ 0x2c
2ffc8038:	2180      	movs	r1, #128	@ 0x80
2ffc803a:	4618      	mov	r0, r3
2ffc803c:	f7ff fc81 	bl	2ffc7942 <_Z20stm32mp1_ddrphy_initP15stm32mp1_ddrphyj>
2ffc8040:	687b      	ldr	r3, [r7, #4]
2ffc8042:	6adb      	ldr	r3, [r3, #44]	@ 0x2c
2ffc8044:	4618      	mov	r0, r3
2ffc8046:	f7ff fc08 	bl	2ffc785a <_ZL17ddrphy_idone_waitP15stm32mp1_ddrphy>
2ffc804a:	687b      	ldr	r3, [r7, #4]
2ffc804c:	6a98      	ldr	r0, [r3, #40]	@ 0x28
2ffc804e:	683b      	ldr	r3, [r7, #0]
2ffc8050:	6b19      	ldr	r1, [r3, #48]	@ 0x30
2ffc8052:	683b      	ldr	r3, [r7, #0]
2ffc8054:	6a1b      	ldr	r3, [r3, #32]
2ffc8056:	461a      	mov	r2, r3
2ffc8058:	f7ff fdb8 	bl	2ffc7bcc <_Z24stm32mp1_refresh_restoreP15stm32mp1_ddrctljj>
2ffc805c:	687b      	ldr	r3, [r7, #4]
2ffc805e:	6a9b      	ldr	r3, [r3, #40]	@ 0x28
2ffc8060:	f503 6392 	add.w	r3, r3, #1168	@ 0x490
2ffc8064:	681a      	ldr	r2, [r3, #0]
2ffc8066:	687b      	ldr	r3, [r7, #4]
2ffc8068:	6a9b      	ldr	r3, [r3, #40]	@ 0x28
2ffc806a:	f503 6392 	add.w	r3, r3, #1168	@ 0x490
2ffc806e:	f042 0201 	orr.w	r2, r2, #1
2ffc8072:	601a      	str	r2, [r3, #0]
2ffc8074:	687b      	ldr	r3, [r7, #4]
2ffc8076:	6a9b      	ldr	r3, [r3, #40]	@ 0x28
2ffc8078:	f503 63a8 	add.w	r3, r3, #1344	@ 0x540
2ffc807c:	681a      	ldr	r2, [r3, #0]
2ffc807e:	687b      	ldr	r3, [r7, #4]
2ffc8080:	6a9b      	ldr	r3, [r3, #40]	@ 0x28
2ffc8082:	f503 63a8 	add.w	r3, r3, #1344	@ 0x540
2ffc8086:	f042 0201 	orr.w	r2, r2, #1
2ffc808a:	601a      	str	r2, [r3, #0]
2ffc808c:	683a      	ldr	r2, [r7, #0]
2ffc808e:	2103      	movs	r1, #3
2ffc8090:	6878      	ldr	r0, [r7, #4]
2ffc8092:	f7ff fbd4 	bl	2ffc783e <_Z24stm32mp1_ddr_interactivePv26stm32mp1_ddr_interact_stepPK19stm32mp1_ddr_config>
2ffc8096:	4603      	mov	r3, r0
2ffc8098:	2b00      	cmp	r3, #0
2ffc809a:	d000      	beq.n	2ffc809e <_Z17stm32mp1_ddr_initP8ddr_infoPK19stm32mp1_ddr_config+0x438>
2ffc809c:	e639      	b.n	2ffc7d12 <_Z17stm32mp1_ddr_initP8ddr_infoPK19stm32mp1_ddr_config+0xac>
2ffc809e:	bf00      	nop
2ffc80a0:	3718      	adds	r7, #24
2ffc80a2:	46bd      	mov	sp, r7
2ffc80a4:	bd80      	pop	{r7, pc}

2ffc80a6 <_Z5debugIJPKcS1_S1_EEvDpT_>:
2ffc80a6:	b480      	push	{r7}
2ffc80a8:	b085      	sub	sp, #20
2ffc80aa:	af00      	add	r7, sp, #0
2ffc80ac:	60f8      	str	r0, [r7, #12]
2ffc80ae:	60b9      	str	r1, [r7, #8]
2ffc80b0:	607a      	str	r2, [r7, #4]
2ffc80b2:	bf00      	nop
2ffc80b4:	3714      	adds	r7, #20
2ffc80b6:	46bd      	mov	sp, r7
2ffc80b8:	f85d 7b04 	ldr.w	r7, [sp], #4
2ffc80bc:	4770      	bx	lr

2ffc80be <_Z6pr_errIJPKcS1_EEvDpT_>:
2ffc80be:	b580      	push	{r7, lr}
2ffc80c0:	b082      	sub	sp, #8
2ffc80c2:	af00      	add	r7, sp, #0
2ffc80c4:	6078      	str	r0, [r7, #4]
2ffc80c6:	6039      	str	r1, [r7, #0]
2ffc80c8:	6839      	ldr	r1, [r7, #0]
2ffc80ca:	6878      	ldr	r0, [r7, #4]
2ffc80cc:	f000 f86d 	bl	2ffc81aa <_Z5printIJPKcS1_EEvDpT_>
2ffc80d0:	bf00      	nop
2ffc80d2:	3708      	adds	r7, #8
2ffc80d4:	46bd      	mov	sp, r7
2ffc80d6:	bd80      	pop	{r7, pc}

2ffc80d8 <_Z5debugIJPKc3HexS1_S1_S1_jS1_EEvDpT_>:
2ffc80d8:	b480      	push	{r7}
2ffc80da:	b085      	sub	sp, #20
2ffc80dc:	af00      	add	r7, sp, #0
2ffc80de:	60f8      	str	r0, [r7, #12]
2ffc80e0:	60b9      	str	r1, [r7, #8]
2ffc80e2:	607a      	str	r2, [r7, #4]
2ffc80e4:	603b      	str	r3, [r7, #0]
2ffc80e6:	bf00      	nop
2ffc80e8:	3714      	adds	r7, #20
2ffc80ea:	46bd      	mov	sp, r7
2ffc80ec:	f85d 7b04 	ldr.w	r7, [sp], #4
2ffc80f0:	4770      	bx	lr

2ffc80f2 <_Z5debugIJPKcEEvDpT_>:
2ffc80f2:	b480      	push	{r7}
2ffc80f4:	b083      	sub	sp, #12
2ffc80f6:	af00      	add	r7, sp, #0
2ffc80f8:	6078      	str	r0, [r7, #4]
2ffc80fa:	bf00      	nop
2ffc80fc:	370c      	adds	r7, #12
2ffc80fe:	46bd      	mov	sp, r7
2ffc8100:	f85d 7b04 	ldr.w	r7, [sp], #4
2ffc8104:	4770      	bx	lr

2ffc8106 <_Z5debugIJPKc3HexS1_S2_S1_EEvDpT_>:
2ffc8106:	b480      	push	{r7}
2ffc8108:	b085      	sub	sp, #20
2ffc810a:	af00      	add	r7, sp, #0
2ffc810c:	60f8      	str	r0, [r7, #12]
2ffc810e:	60b9      	str	r1, [r7, #8]
2ffc8110:	607a      	str	r2, [r7, #4]
2ffc8112:	603b      	str	r3, [r7, #0]
2ffc8114:	bf00      	nop
2ffc8116:	3714      	adds	r7, #20
2ffc8118:	46bd      	mov	sp, r7
2ffc811a:	f85d 7b04 	ldr.w	r7, [sp], #4
2ffc811e:	4770      	bx	lr

2ffc8120 <_Z5debugIJPKc3HexS1_S2_S1_S2_S1_EEvDpT_>:
2ffc8120:	b480      	push	{r7}
2ffc8122:	b085      	sub	sp, #20
2ffc8124:	af00      	add	r7, sp, #0
2ffc8126:	60f8      	str	r0, [r7, #12]
2ffc8128:	60b9      	str	r1, [r7, #8]
2ffc812a:	607a      	str	r2, [r7, #4]
2ffc812c:	603b      	str	r3, [r7, #0]
2ffc812e:	bf00      	nop
2ffc8130:	3714      	adds	r7, #20
2ffc8132:	46bd      	mov	sp, r7
2ffc8134:	f85d 7b04 	ldr.w	r7, [sp], #4
2ffc8138:	4770      	bx	lr

2ffc813a <_Z5panicIJPKcjS1_EEvDpT_>:
2ffc813a:	b580      	push	{r7, lr}
2ffc813c:	b084      	sub	sp, #16
2ffc813e:	af00      	add	r7, sp, #0
2ffc8140:	60f8      	str	r0, [r7, #12]
2ffc8142:	60b9      	str	r1, [r7, #8]
2ffc8144:	607a      	str	r2, [r7, #4]
2ffc8146:	687a      	ldr	r2, [r7, #4]
2ffc8148:	68b9      	ldr	r1, [r7, #8]
2ffc814a:	68f8      	ldr	r0, [r7, #12]
2ffc814c:	f7fa fb2a 	bl	2ffc27a4 <_Z5printIJPKcjS1_EEvDpT_>
2ffc8150:	e7fe      	b.n	2ffc8150 <_Z5panicIJPKcjS1_EEvDpT_+0x16>

2ffc8152 <_Z5panicIJPKcEEvDpT_>:
2ffc8152:	b580      	push	{r7, lr}
2ffc8154:	b082      	sub	sp, #8
2ffc8156:	af00      	add	r7, sp, #0
2ffc8158:	6078      	str	r0, [r7, #4]
2ffc815a:	6878      	ldr	r0, [r7, #4]
2ffc815c:	f7fa fb17 	bl	2ffc278e <_Z5printIJPKcEEvDpT_>
2ffc8160:	e7fe      	b.n	2ffc8160 <_Z5panicIJPKcEEvDpT_+0xe>

2ffc8162 <_Z3logIJPKcS1_S1_EEvDpT_>:
2ffc8162:	b480      	push	{r7}
2ffc8164:	b085      	sub	sp, #20
2ffc8166:	af00      	add	r7, sp, #0
2ffc8168:	60f8      	str	r0, [r7, #12]
2ffc816a:	60b9      	str	r1, [r7, #8]
2ffc816c:	607a      	str	r2, [r7, #4]
2ffc816e:	bf00      	nop
2ffc8170:	3714      	adds	r7, #20
2ffc8172:	46bd      	mov	sp, r7
2ffc8174:	f85d 7b04 	ldr.w	r7, [sp], #4
2ffc8178:	4770      	bx	lr

2ffc817a <_Z3logIJPKcjS1_EEvDpT_>:
2ffc817a:	b480      	push	{r7}
2ffc817c:	b085      	sub	sp, #20
2ffc817e:	af00      	add	r7, sp, #0
2ffc8180:	60f8      	str	r0, [r7, #12]
2ffc8182:	60b9      	str	r1, [r7, #8]
2ffc8184:	607a      	str	r2, [r7, #4]
2ffc8186:	bf00      	nop
2ffc8188:	3714      	adds	r7, #20
2ffc818a:	46bd      	mov	sp, r7
2ffc818c:	f85d 7b04 	ldr.w	r7, [sp], #4
2ffc8190:	4770      	bx	lr

2ffc8192 <_Z3logIJPKc3HexS1_EEvDpT_>:
2ffc8192:	b480      	push	{r7}
2ffc8194:	b085      	sub	sp, #20
2ffc8196:	af00      	add	r7, sp, #0
2ffc8198:	60f8      	str	r0, [r7, #12]
2ffc819a:	60b9      	str	r1, [r7, #8]
2ffc819c:	607a      	str	r2, [r7, #4]
2ffc819e:	bf00      	nop
2ffc81a0:	3714      	adds	r7, #20
2ffc81a2:	46bd      	mov	sp, r7
2ffc81a4:	f85d 7b04 	ldr.w	r7, [sp], #4
2ffc81a8:	4770      	bx	lr

2ffc81aa <_Z5printIJPKcS1_EEvDpT_>:
2ffc81aa:	b580      	push	{r7, lr}
2ffc81ac:	b082      	sub	sp, #8
2ffc81ae:	af00      	add	r7, sp, #0
2ffc81b0:	6078      	str	r0, [r7, #4]
2ffc81b2:	6039      	str	r1, [r7, #0]
2ffc81b4:	6878      	ldr	r0, [r7, #4]
2ffc81b6:	f7fd fd47 	bl	2ffc5c48 <_Z8printonePKc>
2ffc81ba:	6838      	ldr	r0, [r7, #0]
2ffc81bc:	f7fd fd44 	bl	2ffc5c48 <_Z8printonePKc>
2ffc81c0:	bf00      	nop
2ffc81c2:	3708      	adds	r7, #8
2ffc81c4:	46bd      	mov	sp, r7
2ffc81c6:	bd80      	pop	{r7, pc}

2ffc81c8 <_Z23stm32mp1_ddr_clk_enableP8ddr_infoj>:
2ffc81c8:	b580      	push	{r7, lr}
2ffc81ca:	b08c      	sub	sp, #48	@ 0x30
2ffc81cc:	af02      	add	r7, sp, #8
2ffc81ce:	6078      	str	r0, [r7, #4]
2ffc81d0:	6039      	str	r1, [r7, #0]
2ffc81d2:	f04f 43a0 	mov.w	r3, #1342177280	@ 0x50000000
2ffc81d6:	f8d3 30d8 	ldr.w	r3, [r3, #216]	@ 0xd8
2ffc81da:	f04f 42a0 	mov.w	r2, #1342177280	@ 0x50000000
2ffc81de:	f443 63df 	orr.w	r3, r3, #1784	@ 0x6f8
2ffc81e2:	f043 0307 	orr.w	r3, r3, #7
2ffc81e6:	f8c2 30d8 	str.w	r3, [r2, #216]	@ 0xd8
2ffc81ea:	f44f 5358 	mov.w	r3, #13824	@ 0x3600
2ffc81ee:	f2c0 136e 	movt	r3, #366	@ 0x16e
2ffc81f2:	627b      	str	r3, [r7, #36]	@ 0x24
2ffc81f4:	f000 fae0 	bl	2ffc87b8 <_ZN8mdrivlib12RegisterBitsINS_9ReadWriteELm1342177432ELm511EE4readEv>
2ffc81f8:	4603      	mov	r3, r0
2ffc81fa:	3301      	adds	r3, #1
2ffc81fc:	623b      	str	r3, [r7, #32]
2ffc81fe:	f000 fae8 	bl	2ffc87d2 <_ZN8mdrivlib12RegisterBitsINS_9ReadWriteELm1342177432ELm4128768EE4readEv>
2ffc8202:	4603      	mov	r3, r0
2ffc8204:	3301      	adds	r3, #1
2ffc8206:	61fb      	str	r3, [r7, #28]
2ffc8208:	f000 faf0 	bl	2ffc87ec <_ZN8mdrivlib12RegisterBitsINS_9ReadWriteELm1342177436ELm8323072EE4readEv>
2ffc820c:	4603      	mov	r3, r0
2ffc820e:	3301      	adds	r3, #1
2ffc8210:	61bb      	str	r3, [r7, #24]
2ffc8212:	6a3a      	ldr	r2, [r7, #32]
2ffc8214:	f44f 5358 	mov.w	r3, #13824	@ 0x3600
2ffc8218:	f2c0 136e 	movt	r3, #366	@ 0x16e
2ffc821c:	fb03 f202 	mul.w	r2, r3, r2
2ffc8220:	69fb      	ldr	r3, [r7, #28]
2ffc8222:	69b9      	ldr	r1, [r7, #24]
2ffc8224:	fb01 f303 	mul.w	r3, r1, r3
2ffc8228:	fbb2 f3f3 	udiv	r3, r2, r3
2ffc822c:	617b      	str	r3, [r7, #20]
2ffc822e:	697b      	ldr	r3, [r7, #20]
2ffc8230:	613b      	str	r3, [r7, #16]
2ffc8232:	693a      	ldr	r2, [r7, #16]
2ffc8234:	f644 53d3 	movw	r3, #19923	@ 0x4dd3
2ffc8238:	f2c1 0362 	movt	r3, #4194	@ 0x1062
2ffc823c:	fba3 2302 	umull	r2, r3, r3, r2
2ffc8240:	099a      	lsrs	r2, r3, #6
2ffc8242:	f649 3310 	movw	r3, #39696	@ 0x9b10
2ffc8246:	f6c2 73fc 	movt	r3, #12284	@ 0x2ffc
2ffc824a:	9300      	str	r3, [sp, #0]
2ffc824c:	4613      	mov	r3, r2
2ffc824e:	f649 22f4 	movw	r2, #39668	@ 0x9af4
2ffc8252:	f6c2 72fc 	movt	r2, #12284	@ 0x2ffc
2ffc8256:	6839      	ldr	r1, [r7, #0]
2ffc8258:	f649 3000 	movw	r0, #39680	@ 0x9b00
2ffc825c:	f6c2 70fc 	movt	r0, #12284	@ 0x2ffc
2ffc8260:	f000 fad1 	bl	2ffc8806 <_Z3logIJPKcjS1_jS1_EEvDpT_>
2ffc8264:	683a      	ldr	r2, [r7, #0]
2ffc8266:	f64f 4318 	movw	r3, #64536	@ 0xfc18
2ffc826a:	f6cf 73ff 	movt	r3, #65535	@ 0xffff
2ffc826e:	fb03 f202 	mul.w	r2, r3, r2
2ffc8272:	693b      	ldr	r3, [r7, #16]
2ffc8274:	4413      	add	r3, r2
2ffc8276:	4618      	mov	r0, r3
2ffc8278:	f000 fb21 	bl	2ffc88be <abs>
2ffc827c:	4603      	mov	r3, r0
2ffc827e:	60fb      	str	r3, [r7, #12]
2ffc8280:	683b      	ldr	r3, [r7, #0]
2ffc8282:	2264      	movs	r2, #100	@ 0x64
2ffc8284:	fb02 f303 	mul.w	r3, r2, r3
2ffc8288:	68fa      	ldr	r2, [r7, #12]
2ffc828a:	429a      	cmp	r2, r3
2ffc828c:	d912      	bls.n	2ffc82b4 <_Z23stm32mp1_ddr_clk_enableP8ddr_infoj+0xec>
2ffc828e:	693a      	ldr	r2, [r7, #16]
2ffc8290:	f644 53d3 	movw	r3, #19923	@ 0x4dd3
2ffc8294:	f2c1 0362 	movt	r3, #4194	@ 0x1062
2ffc8298:	fba3 2302 	umull	r2, r3, r3, r2
2ffc829c:	099b      	lsrs	r3, r3, #6
2ffc829e:	461a      	mov	r2, r3
2ffc82a0:	6839      	ldr	r1, [r7, #0]
2ffc82a2:	f649 3018 	movw	r0, #39704	@ 0x9b18
2ffc82a6:	f6c2 70fc 	movt	r0, #12284	@ 0x2ffc
2ffc82aa:	f000 fab9 	bl	2ffc8820 <_Z6pr_errIJPKcjjEEvDpT_>
2ffc82ae:	f06f 0315 	mvn.w	r3, #21
2ffc82b2:	e000      	b.n	2ffc82b6 <_Z23stm32mp1_ddr_clk_enableP8ddr_infoj+0xee>
2ffc82b4:	2300      	movs	r3, #0
2ffc82b6:	4618      	mov	r0, r3
2ffc82b8:	3728      	adds	r7, #40	@ 0x28
2ffc82ba:	46bd      	mov	sp, r7
2ffc82bc:	bd80      	pop	{r7, pc}

2ffc82be <_Z18stm32mp1_ddr_setupv>:
2ffc82be:	b580      	push	{r7, lr}
2ffc82c0:	b0f4      	sub	sp, #464	@ 0x1d0
2ffc82c2:	af00      	add	r7, sp, #0
2ffc82c4:	f507 73c8 	add.w	r3, r7, #400	@ 0x190
2ffc82c8:	f8c7 31cc 	str.w	r3, [r7, #460]	@ 0x1cc
2ffc82cc:	f8d7 21cc 	ldr.w	r2, [r7, #460]	@ 0x1cc
2ffc82d0:	f44f 5340 	mov.w	r3, #12288	@ 0x3000
2ffc82d4:	f6c5 2300 	movt	r3, #23040	@ 0x5a00
2ffc82d8:	6293      	str	r3, [r2, #40]	@ 0x28
2ffc82da:	f8d7 21cc 	ldr.w	r2, [r7, #460]	@ 0x1cc
2ffc82de:	f44f 4380 	mov.w	r3, #16384	@ 0x4000
2ffc82e2:	f6c5 2300 	movt	r3, #23040	@ 0x5a00
2ffc82e6:	62d3      	str	r3, [r2, #44]	@ 0x2c
2ffc82e8:	f8d7 31cc 	ldr.w	r3, [r7, #460]	@ 0x1cc
2ffc82ec:	f04f 42a0 	mov.w	r2, #1342177280	@ 0x50000000
2ffc82f0:	631a      	str	r2, [r3, #48]	@ 0x30
2ffc82f2:	f8d7 31cc 	ldr.w	r3, [r7, #460]	@ 0x1cc
2ffc82f6:	f04f 4240 	mov.w	r2, #3221225472	@ 0xc0000000
2ffc82fa:	605a      	str	r2, [r3, #4]
2ffc82fc:	f8d7 31cc 	ldr.w	r3, [r7, #460]	@ 0x1cc
2ffc8300:	2200      	movs	r2, #0
2ffc8302:	609a      	str	r2, [r3, #8]
2ffc8304:	463b      	mov	r3, r7
2ffc8306:	4618      	mov	r0, r3
2ffc8308:	f000 f84d 	bl	2ffc83a6 <_ZL23stm32mp1_ddr_get_configP19stm32mp1_ddr_config>
2ffc830c:	f507 73e8 	add.w	r3, r7, #464	@ 0x1d0
2ffc8310:	f5a3 73e8 	sub.w	r3, r3, #464	@ 0x1d0
2ffc8314:	2200      	movs	r2, #0
2ffc8316:	f883 218c 	strb.w	r2, [r3, #396]	@ 0x18c
2ffc831a:	f04f 43a0 	mov.w	r3, #1342177280	@ 0x50000000
2ffc831e:	f8d3 30d8 	ldr.w	r3, [r3, #216]	@ 0xd8
2ffc8322:	f04f 42a0 	mov.w	r2, #1342177280	@ 0x50000000
2ffc8326:	f423 03e0 	bic.w	r3, r3, #7340032	@ 0x700000
2ffc832a:	f8c2 30d8 	str.w	r3, [r2, #216]	@ 0xd8
2ffc832e:	f04f 43a0 	mov.w	r3, #1342177280	@ 0x50000000
2ffc8332:	f8d3 30d8 	ldr.w	r3, [r3, #216]	@ 0xd8
2ffc8336:	f04f 42a0 	mov.w	r2, #1342177280	@ 0x50000000
2ffc833a:	f423 7380 	bic.w	r3, r3, #256	@ 0x100
2ffc833e:	f8c2 30d8 	str.w	r3, [r2, #216]	@ 0xd8
2ffc8342:	463b      	mov	r3, r7
2ffc8344:	4619      	mov	r1, r3
2ffc8346:	f8d7 01cc 	ldr.w	r0, [r7, #460]	@ 0x1cc
2ffc834a:	f7ff fc8c 	bl	2ffc7c66 <_Z17stm32mp1_ddr_initP8ddr_infoPK19stm32mp1_ddr_config>
2ffc834e:	f04f 43a0 	mov.w	r3, #1342177280	@ 0x50000000
2ffc8352:	f8d3 30d8 	ldr.w	r3, [r3, #216]	@ 0xd8
2ffc8356:	f04f 42a0 	mov.w	r2, #1342177280	@ 0x50000000
2ffc835a:	f443 7380 	orr.w	r3, r3, #256	@ 0x100
2ffc835e:	f8c2 30d8 	str.w	r3, [r2, #216]	@ 0xd8
2ffc8362:	f507 73e8 	add.w	r3, r7, #464	@ 0x1d0
2ffc8366:	f5a3 73e8 	sub.w	r3, r3, #464	@ 0x1d0
2ffc836a:	689a      	ldr	r2, [r3, #8]
2ffc836c:	f8d7 31cc 	ldr.w	r3, [r7, #460]	@ 0x1cc
2ffc8370:	689b      	ldr	r3, [r3, #8]
2ffc8372:	429a      	cmp	r2, r3
2ffc8374:	d011      	beq.n	2ffc839a <_Z18stm32mp1_ddr_setupv+0xdc>
2ffc8376:	f8d7 31cc 	ldr.w	r3, [r7, #460]	@ 0x1cc
2ffc837a:	6899      	ldr	r1, [r3, #8]
2ffc837c:	f507 73e8 	add.w	r3, r7, #464	@ 0x1d0
2ffc8380:	f5a3 73e8 	sub.w	r3, r3, #464	@ 0x1d0
2ffc8384:	689b      	ldr	r3, [r3, #8]
2ffc8386:	461a      	mov	r2, r3
2ffc8388:	f649 3048 	movw	r0, #39752	@ 0x9b48
2ffc838c:	f6c2 70fc 	movt	r0, #12284	@ 0x2ffc
2ffc8390:	f000 fa55 	bl	2ffc883e <_Z6pr_errIJPKcmjEEvDpT_>
2ffc8394:	f06f 0315 	mvn.w	r3, #21
2ffc8398:	e000      	b.n	2ffc839c <_Z18stm32mp1_ddr_setupv+0xde>
2ffc839a:	2300      	movs	r3, #0
2ffc839c:	4618      	mov	r0, r3
2ffc839e:	f507 77e8 	add.w	r7, r7, #464	@ 0x1d0
2ffc83a2:	46bd      	mov	sp, r7
2ffc83a4:	bd80      	pop	{r7, pc}

2ffc83a6 <_ZL23stm32mp1_ddr_get_configP19stm32mp1_ddr_config>:
2ffc83a6:	b480      	push	{r7}
2ffc83a8:	b083      	sub	sp, #12
2ffc83aa:	af00      	add	r7, sp, #0
2ffc83ac:	6078      	str	r0, [r7, #4]
2ffc83ae:	687a      	ldr	r2, [r7, #4]
2ffc83b0:	f242 2308 	movw	r3, #8712	@ 0x2208
2ffc83b4:	f2c0 0308 	movt	r3, #8
2ffc83b8:	6053      	str	r3, [r2, #4]
2ffc83ba:	687b      	ldr	r3, [r7, #4]
2ffc83bc:	f04f 5200 	mov.w	r2, #536870912	@ 0x20000000
2ffc83c0:	609a      	str	r2, [r3, #8]
2ffc83c2:	687a      	ldr	r2, [r7, #4]
2ffc83c4:	f649 3370 	movw	r3, #39792	@ 0x9b70
2ffc83c8:	f6c2 73fc 	movt	r3, #12284	@ 0x2ffc
2ffc83cc:	6013      	str	r3, [r2, #0]
2ffc83ce:	687a      	ldr	r2, [r7, #4]
2ffc83d0:	f241 4301 	movw	r3, #5121	@ 0x1401
2ffc83d4:	f2c0 0304 	movt	r3, #4
2ffc83d8:	60d3      	str	r3, [r2, #12]
2ffc83da:	687b      	ldr	r3, [r7, #4]
2ffc83dc:	2210      	movs	r2, #16
2ffc83de:	611a      	str	r2, [r3, #16]
2ffc83e0:	687b      	ldr	r3, [r7, #4]
2ffc83e2:	2200      	movs	r2, #0
2ffc83e4:	615a      	str	r2, [r3, #20]
2ffc83e6:	687b      	ldr	r3, [r7, #4]
2ffc83e8:	2200      	movs	r2, #0
2ffc83ea:	619a      	str	r2, [r3, #24]
2ffc83ec:	687b      	ldr	r3, [r7, #4]
2ffc83ee:	f44f 0200 	mov.w	r2, #8388608	@ 0x800000
2ffc83f2:	61da      	str	r2, [r3, #28]
2ffc83f4:	687b      	ldr	r3, [r7, #4]
2ffc83f6:	2200      	movs	r2, #0
2ffc83f8:	621a      	str	r2, [r3, #32]
2ffc83fa:	687a      	ldr	r2, [r7, #4]
2ffc83fc:	2310      	movs	r3, #16
2ffc83fe:	f2c0 0340 	movt	r3, #64	@ 0x40
2ffc8402:	6253      	str	r3, [r2, #36]	@ 0x24
2ffc8404:	687b      	ldr	r3, [r7, #4]
2ffc8406:	2200      	movs	r2, #0
2ffc8408:	629a      	str	r2, [r3, #40]	@ 0x28
2ffc840a:	687b      	ldr	r3, [r7, #4]
2ffc840c:	f44f 1204 	mov.w	r2, #2162688	@ 0x210000
2ffc8410:	62da      	str	r2, [r3, #44]	@ 0x2c
2ffc8412:	687b      	ldr	r3, [r7, #4]
2ffc8414:	2200      	movs	r2, #0
2ffc8416:	631a      	str	r2, [r3, #48]	@ 0x30
2ffc8418:	687b      	ldr	r3, [r7, #4]
2ffc841a:	2200      	movs	r2, #0
2ffc841c:	635a      	str	r2, [r3, #52]	@ 0x34
2ffc841e:	687a      	ldr	r2, [r7, #4]
2ffc8420:	2340      	movs	r3, #64	@ 0x40
2ffc8422:	f2cc 2300 	movt	r3, #49664	@ 0xc200
2ffc8426:	6393      	str	r3, [r2, #56]	@ 0x38
2ffc8428:	687a      	ldr	r2, [r7, #4]
2ffc842a:	f240 1305 	movw	r3, #261	@ 0x105
2ffc842e:	f2c0 2306 	movt	r3, #518	@ 0x206
2ffc8432:	63d3      	str	r3, [r2, #60]	@ 0x3c
2ffc8434:	687b      	ldr	r3, [r7, #4]
2ffc8436:	f240 2202 	movw	r2, #514	@ 0x202
2ffc843a:	641a      	str	r2, [r3, #64]	@ 0x40
2ffc843c:	687b      	ldr	r3, [r7, #4]
2ffc843e:	f04f 62e0 	mov.w	r2, #117440512	@ 0x7000000
2ffc8442:	645a      	str	r2, [r3, #68]	@ 0x44
2ffc8444:	687a      	ldr	r2, [r7, #4]
2ffc8446:	2303      	movs	r3, #3
2ffc8448:	f2cc 0340 	movt	r3, #49216	@ 0xc040
2ffc844c:	6493      	str	r3, [r2, #72]	@ 0x48
2ffc844e:	687b      	ldr	r3, [r7, #4]
2ffc8450:	2200      	movs	r2, #0
2ffc8452:	64da      	str	r2, [r3, #76]	@ 0x4c
2ffc8454:	687b      	ldr	r3, [r7, #4]
2ffc8456:	2200      	movs	r2, #0
2ffc8458:	651a      	str	r2, [r3, #80]	@ 0x50
2ffc845a:	687b      	ldr	r3, [r7, #4]
2ffc845c:	2200      	movs	r2, #0
2ffc845e:	655a      	str	r2, [r3, #84]	@ 0x54
2ffc8460:	687b      	ldr	r3, [r7, #4]
2ffc8462:	2201      	movs	r2, #1
2ffc8464:	659a      	str	r2, [r3, #88]	@ 0x58
2ffc8466:	687b      	ldr	r3, [r7, #4]
2ffc8468:	2200      	movs	r2, #0
2ffc846a:	65da      	str	r2, [r3, #92]	@ 0x5c
2ffc846c:	687b      	ldr	r3, [r7, #4]
2ffc846e:	2200      	movs	r2, #0
2ffc8470:	661a      	str	r2, [r3, #96]	@ 0x60
2ffc8472:	687b      	ldr	r3, [r7, #4]
2ffc8474:	2200      	movs	r2, #0
2ffc8476:	665a      	str	r2, [r3, #100]	@ 0x64
2ffc8478:	687b      	ldr	r3, [r7, #4]
2ffc847a:	2200      	movs	r2, #0
2ffc847c:	669a      	str	r2, [r3, #104]	@ 0x68
2ffc847e:	687b      	ldr	r3, [r7, #4]
2ffc8480:	2210      	movs	r2, #16
2ffc8482:	66da      	str	r2, [r3, #108]	@ 0x6c
2ffc8484:	687a      	ldr	r2, [r7, #4]
2ffc8486:	238b      	movs	r3, #139	@ 0x8b
2ffc8488:	f2c0 0340 	movt	r3, #64	@ 0x40
2ffc848c:	6713      	str	r3, [r2, #112]	@ 0x70
2ffc848e:	687a      	ldr	r2, [r7, #4]
2ffc8490:	f241 2314 	movw	r3, #4628	@ 0x1214
2ffc8494:	f2c1 231b 	movt	r3, #4635	@ 0x121b
2ffc8498:	6753      	str	r3, [r2, #116]	@ 0x74
2ffc849a:	687a      	ldr	r2, [r7, #4]
2ffc849c:	f240 431c 	movw	r3, #1052	@ 0x41c
2ffc84a0:	f2c0 030a 	movt	r3, #10
2ffc84a4:	6793      	str	r3, [r2, #120]	@ 0x78
2ffc84a6:	687a      	ldr	r2, [r7, #4]
2ffc84a8:	f640 130f 	movw	r3, #2319	@ 0x90f
2ffc84ac:	f2c0 6308 	movt	r3, #1544	@ 0x608
2ffc84b0:	67d3      	str	r3, [r2, #124]	@ 0x7c
2ffc84b2:	687a      	ldr	r2, [r7, #4]
2ffc84b4:	f244 030c 	movw	r3, #16396	@ 0x400c
2ffc84b8:	f2c0 0350 	movt	r3, #80	@ 0x50
2ffc84bc:	f8c2 3080 	str.w	r3, [r2, #128]	@ 0x80
2ffc84c0:	687a      	ldr	r2, [r7, #4]
2ffc84c2:	f44f 63c1 	mov.w	r3, #1544	@ 0x608
2ffc84c6:	f6c0 0304 	movt	r3, #2052	@ 0x804
2ffc84ca:	f8c2 3084 	str.w	r3, [r2, #132]	@ 0x84
2ffc84ce:	687a      	ldr	r2, [r7, #4]
2ffc84d0:	f240 4303 	movw	r3, #1027	@ 0x403
2ffc84d4:	f2c0 6306 	movt	r3, #1542	@ 0x606
2ffc84d8:	f8c2 3088 	str.w	r3, [r2, #136]	@ 0x88
2ffc84dc:	687a      	ldr	r2, [r7, #4]
2ffc84de:	2302      	movs	r3, #2
2ffc84e0:	f2c0 2302 	movt	r3, #514	@ 0x202
2ffc84e4:	f8c2 308c 	str.w	r3, [r2, #140]	@ 0x8c
2ffc84e8:	687b      	ldr	r3, [r7, #4]
2ffc84ea:	f240 2202 	movw	r2, #514	@ 0x202
2ffc84ee:	f8c3 2090 	str.w	r2, [r3, #144]	@ 0x90
2ffc84f2:	687b      	ldr	r3, [r7, #4]
2ffc84f4:	f241 0205 	movw	r2, #4101	@ 0x1005
2ffc84f8:	f8c3 2094 	str.w	r2, [r3, #148]	@ 0x94
2ffc84fc:	687b      	ldr	r3, [r7, #4]
2ffc84fe:	22a0      	movs	r2, #160	@ 0xa0
2ffc8500:	f8c3 2098 	str.w	r2, [r3, #152]	@ 0x98
2ffc8504:	687b      	ldr	r3, [r7, #4]
2ffc8506:	f04f 2206 	mov.w	r2, #100664832	@ 0x6000600
2ffc850a:	f8c3 209c 	str.w	r2, [r3, #156]	@ 0x9c
2ffc850e:	687b      	ldr	r3, [r7, #4]
2ffc8510:	f640 4201 	movw	r2, #3073	@ 0xc01
2ffc8514:	f8c3 20c4 	str.w	r2, [r3, #196]	@ 0xc4
2ffc8518:	687b      	ldr	r3, [r7, #4]
2ffc851a:	2200      	movs	r2, #0
2ffc851c:	f8c3 20c8 	str.w	r2, [r3, #200]	@ 0xc8
2ffc8520:	687a      	ldr	r2, [r7, #4]
2ffc8522:	2301      	movs	r3, #1
2ffc8524:	f2c0 1300 	movt	r3, #256	@ 0x100
2ffc8528:	f8c2 30cc 	str.w	r3, [r2, #204]	@ 0xcc
2ffc852c:	687a      	ldr	r2, [r7, #4]
2ffc852e:	f44f 7300 	mov.w	r3, #512	@ 0x200
2ffc8532:	f6c0 0300 	movt	r3, #2048	@ 0x800
2ffc8536:	f8c2 30d0 	str.w	r3, [r2, #208]	@ 0xd0
2ffc853a:	687a      	ldr	r2, [r7, #4]
2ffc853c:	f44f 6380 	mov.w	r3, #1024	@ 0x400
2ffc8540:	f6c0 0300 	movt	r3, #2048	@ 0x800
2ffc8544:	f8c2 30d4 	str.w	r3, [r2, #212]	@ 0xd4
2ffc8548:	687b      	ldr	r3, [r7, #4]
2ffc854a:	f44f 3280 	mov.w	r2, #65536	@ 0x10000
2ffc854e:	f8c3 20d8 	str.w	r2, [r3, #216]	@ 0xd8
2ffc8552:	687b      	ldr	r3, [r7, #4]
2ffc8554:	2200      	movs	r2, #0
2ffc8556:	f8c3 20dc 	str.w	r2, [r3, #220]	@ 0xdc
2ffc855a:	687a      	ldr	r2, [r7, #4]
2ffc855c:	f640 4303 	movw	r3, #3075	@ 0xc03
2ffc8560:	f2c0 2310 	movt	r3, #528	@ 0x210
2ffc8564:	f8c2 30e0 	str.w	r3, [r2, #224]	@ 0xe0
2ffc8568:	687a      	ldr	r2, [r7, #4]
2ffc856a:	f44f 7380 	mov.w	r3, #256	@ 0x100
2ffc856e:	f2c0 0380 	movt	r3, #128	@ 0x80
2ffc8572:	f8c2 30e4 	str.w	r3, [r2, #228]	@ 0xe4
2ffc8576:	687a      	ldr	r2, [r7, #4]
2ffc8578:	f640 4303 	movw	r3, #3075	@ 0xc03
2ffc857c:	f2c0 1310 	movt	r3, #272	@ 0x110
2ffc8580:	f8c2 30e8 	str.w	r3, [r2, #232]	@ 0xe8
2ffc8584:	687a      	ldr	r2, [r7, #4]
2ffc8586:	f44f 7300 	mov.w	r3, #512	@ 0x200
2ffc858a:	f2c0 1300 	movt	r3, #256	@ 0x100
2ffc858e:	f8c2 30ec 	str.w	r3, [r2, #236]	@ 0xec
2ffc8592:	687b      	ldr	r3, [r7, #4]
2ffc8594:	f44f 3280 	mov.w	r2, #65536	@ 0x10000
2ffc8598:	f8c3 20f0 	str.w	r2, [r3, #240]	@ 0xf0
2ffc859c:	687b      	ldr	r3, [r7, #4]
2ffc859e:	2200      	movs	r2, #0
2ffc85a0:	f8c3 20f4 	str.w	r2, [r3, #244]	@ 0xf4
2ffc85a4:	687a      	ldr	r2, [r7, #4]
2ffc85a6:	f640 4303 	movw	r3, #3075	@ 0xc03
2ffc85aa:	f2c0 2310 	movt	r3, #528	@ 0x210
2ffc85ae:	f8c2 30f8 	str.w	r3, [r2, #248]	@ 0xf8
2ffc85b2:	687a      	ldr	r2, [r7, #4]
2ffc85b4:	2340      	movs	r3, #64	@ 0x40
2ffc85b6:	f2c0 0380 	movt	r3, #128	@ 0x80
2ffc85ba:	f8c2 30fc 	str.w	r3, [r2, #252]	@ 0xfc
2ffc85be:	687a      	ldr	r2, [r7, #4]
2ffc85c0:	f640 4303 	movw	r3, #3075	@ 0xc03
2ffc85c4:	f2c0 1310 	movt	r3, #272	@ 0x110
2ffc85c8:	f8c2 3100 	str.w	r3, [r2, #256]	@ 0x100
2ffc85cc:	687a      	ldr	r2, [r7, #4]
2ffc85ce:	f44f 7300 	mov.w	r3, #512	@ 0x200
2ffc85d2:	f2c0 1300 	movt	r3, #256	@ 0x100
2ffc85d6:	f8c2 3104 	str.w	r3, [r2, #260]	@ 0x104
2ffc85da:	687a      	ldr	r2, [r7, #4]
2ffc85dc:	f240 7307 	movw	r3, #1799	@ 0x707
2ffc85e0:	f2c0 0307 	movt	r3, #7
2ffc85e4:	f8c2 30a0 	str.w	r3, [r2, #160]	@ 0xa0
2ffc85e8:	687b      	ldr	r3, [r7, #4]
2ffc85ea:	2200      	movs	r2, #0
2ffc85ec:	f8c3 20a4 	str.w	r2, [r3, #164]	@ 0xa4
2ffc85f0:	687b      	ldr	r3, [r7, #4]
2ffc85f2:	f04f 52f8 	mov.w	r2, #520093696	@ 0x1f000000
2ffc85f6:	f8c3 20a8 	str.w	r2, [r3, #168]	@ 0xa8
2ffc85fa:	687b      	ldr	r3, [r7, #4]
2ffc85fc:	f641 721f 	movw	r2, #7967	@ 0x1f1f
2ffc8600:	f8c3 20ac 	str.w	r2, [r3, #172]	@ 0xac
2ffc8604:	687b      	ldr	r3, [r7, #4]
2ffc8606:	f04f 3206 	mov.w	r2, #101058054	@ 0x6060606
2ffc860a:	f8c3 20b0 	str.w	r2, [r3, #176]	@ 0xb0
2ffc860e:	687a      	ldr	r2, [r7, #4]
2ffc8610:	f240 6306 	movw	r3, #1542	@ 0x606
2ffc8614:	f6c0 7306 	movt	r3, #3846	@ 0xf06
2ffc8618:	f8c2 30b4 	str.w	r3, [r2, #180]	@ 0xb4
2ffc861c:	687b      	ldr	r3, [r7, #4]
2ffc861e:	2200      	movs	r2, #0
2ffc8620:	f8c3 20b8 	str.w	r2, [r3, #184]	@ 0xb8
2ffc8624:	687b      	ldr	r3, [r7, #4]
2ffc8626:	2200      	movs	r2, #0
2ffc8628:	f8c3 20bc 	str.w	r2, [r3, #188]	@ 0xbc
2ffc862c:	687b      	ldr	r3, [r7, #4]
2ffc862e:	2200      	movs	r2, #0
2ffc8630:	f8c3 20c0 	str.w	r2, [r3, #192]	@ 0xc0
2ffc8634:	687a      	ldr	r2, [r7, #4]
2ffc8636:	f642 6302 	movw	r3, #11778	@ 0x2e02
2ffc863a:	f2c0 1344 	movt	r3, #324	@ 0x144
2ffc863e:	f8c2 3108 	str.w	r3, [r2, #264]	@ 0x108
2ffc8642:	687a      	ldr	r2, [r7, #4]
2ffc8644:	f640 0312 	movw	r3, #2066	@ 0x812
2ffc8648:	f2c1 0340 	movt	r3, #4160	@ 0x1040
2ffc864c:	f8c2 310c 	str.w	r3, [r2, #268]	@ 0x10c
2ffc8650:	687b      	ldr	r3, [r7, #4]
2ffc8652:	f44f 6244 	mov.w	r2, #3136	@ 0xc40
2ffc8656:	f8c3 2110 	str.w	r2, [r3, #272]	@ 0x110
2ffc865a:	687a      	ldr	r2, [r7, #4]
2ffc865c:	f240 131f 	movw	r3, #287	@ 0x11f
2ffc8660:	f2cf 2300 	movt	r3, #61952	@ 0xf200
2ffc8664:	f8c2 3114 	str.w	r3, [r2, #276]	@ 0x114
2ffc8668:	687b      	ldr	r3, [r7, #4]
2ffc866a:	220b      	movs	r2, #11
2ffc866c:	f8c3 2118 	str.w	r2, [r3, #280]	@ 0x118
2ffc8670:	687b      	ldr	r3, [r7, #4]
2ffc8672:	f44f 3280 	mov.w	r2, #65536	@ 0x10000
2ffc8676:	f8c3 211c 	str.w	r2, [r3, #284]	@ 0x11c
2ffc867a:	687a      	ldr	r2, [r7, #4]
2ffc867c:	f64a 235b 	movw	r3, #43611	@ 0xaa5b
2ffc8680:	f2c0 0322 	movt	r3, #34	@ 0x22
2ffc8684:	f8c2 3134 	str.w	r3, [r2, #308]	@ 0x134
2ffc8688:	687a      	ldr	r2, [r7, #4]
2ffc868a:	f241 1304 	movw	r3, #4356	@ 0x1104
2ffc868e:	f2c0 4384 	movt	r3, #1156	@ 0x484
2ffc8692:	f8c2 3138 	str.w	r3, [r2, #312]	@ 0x138
2ffc8696:	687a      	ldr	r2, [r7, #4]
2ffc8698:	f24a 0368 	movw	r3, #41064	@ 0xa068
2ffc869c:	f2c0 432d 	movt	r3, #1069	@ 0x42d
2ffc86a0:	f8c2 313c 	str.w	r3, [r2, #316]	@ 0x13c
2ffc86a4:	687a      	ldr	r2, [r7, #4]
2ffc86a6:	f648 03d0 	movw	r3, #35024	@ 0x88d0
2ffc86aa:	f6c3 03d4 	movt	r3, #14548	@ 0x38d4
2ffc86ae:	f8c2 3140 	str.w	r3, [r2, #320]	@ 0x140
2ffc86b2:	687a      	ldr	r2, [r7, #4]
2ffc86b4:	23d8      	movs	r3, #216	@ 0xd8
2ffc86b6:	f6c0 138b 	movt	r3, #2443	@ 0x98b
2ffc86ba:	f8c2 3144 	str.w	r3, [r2, #324]	@ 0x144
2ffc86be:	687a      	ldr	r2, [r7, #4]
2ffc86c0:	f44f 5358 	mov.w	r3, #13824	@ 0x3600
2ffc86c4:	f2c1 0302 	movt	r3, #4098	@ 0x1002
2ffc86c8:	f8c2 3148 	str.w	r3, [r2, #328]	@ 0x148
2ffc86cc:	687b      	ldr	r3, [r7, #4]
2ffc86ce:	f44f 6204 	mov.w	r2, #2112	@ 0x840
2ffc86d2:	f8c3 214c 	str.w	r2, [r3, #332]	@ 0x14c
2ffc86d6:	687b      	ldr	r3, [r7, #4]
2ffc86d8:	2200      	movs	r2, #0
2ffc86da:	f8c3 2150 	str.w	r2, [r3, #336]	@ 0x150
2ffc86de:	687b      	ldr	r3, [r7, #4]
2ffc86e0:	f44f 7212 	mov.w	r2, #584	@ 0x248
2ffc86e4:	f8c3 2154 	str.w	r2, [r3, #340]	@ 0x154
2ffc86e8:	687b      	ldr	r3, [r7, #4]
2ffc86ea:	2200      	movs	r2, #0
2ffc86ec:	f8c3 2158 	str.w	r2, [r3, #344]	@ 0x158
2ffc86f0:	687b      	ldr	r3, [r7, #4]
2ffc86f2:	2238      	movs	r2, #56	@ 0x38
2ffc86f4:	f8c3 2120 	str.w	r2, [r3, #288]	@ 0x120
2ffc86f8:	687b      	ldr	r3, [r7, #4]
2ffc86fa:	f64c 6281 	movw	r2, #52865	@ 0xce81
2ffc86fe:	f8c3 2124 	str.w	r2, [r3, #292]	@ 0x124
2ffc8702:	687b      	ldr	r3, [r7, #4]
2ffc8704:	f04f 4280 	mov.w	r2, #1073741824	@ 0x40000000
2ffc8708:	f8c3 215c 	str.w	r2, [r3, #348]	@ 0x15c
2ffc870c:	687a      	ldr	r2, [r7, #4]
2ffc870e:	f44f 432a 	mov.w	r3, #43520	@ 0xaa00
2ffc8712:	f2c5 53a5 	movt	r3, #21925	@ 0x55a5
2ffc8716:	f8c2 3160 	str.w	r3, [r2, #352]	@ 0x160
2ffc871a:	687a      	ldr	r2, [r7, #4]
2ffc871c:	f44f 5300 	mov.w	r3, #8192	@ 0x2000
2ffc8720:	f6c3 5320 	movt	r3, #15648	@ 0x3d20
2ffc8724:	f8c2 3164 	str.w	r3, [r2, #356]	@ 0x164
2ffc8728:	687b      	ldr	r3, [r7, #4]
2ffc872a:	f64c 6281 	movw	r2, #52865	@ 0xce81
2ffc872e:	f8c3 2128 	str.w	r2, [r3, #296]	@ 0x128
2ffc8732:	687b      	ldr	r3, [r7, #4]
2ffc8734:	f04f 4280 	mov.w	r2, #1073741824	@ 0x40000000
2ffc8738:	f8c3 2168 	str.w	r2, [r3, #360]	@ 0x168
2ffc873c:	687b      	ldr	r3, [r7, #4]
2ffc873e:	f640 220a 	movw	r2, #2570	@ 0xa0a
2ffc8742:	f8c3 216c 	str.w	r2, [r3, #364]	@ 0x16c
2ffc8746:	687a      	ldr	r2, [r7, #4]
2ffc8748:	f44f 5300 	mov.w	r3, #8192	@ 0x2000
2ffc874c:	f6c3 53b0 	movt	r3, #15792	@ 0x3db0
2ffc8750:	f8c2 3170 	str.w	r3, [r2, #368]	@ 0x170
2ffc8754:	687b      	ldr	r3, [r7, #4]
2ffc8756:	f64c 6280 	movw	r2, #52864	@ 0xce80
2ffc875a:	f8c3 212c 	str.w	r2, [r3, #300]	@ 0x12c
2ffc875e:	687b      	ldr	r3, [r7, #4]
2ffc8760:	f04f 4280 	mov.w	r2, #1073741824	@ 0x40000000
2ffc8764:	f8c3 2174 	str.w	r2, [r3, #372]	@ 0x174
2ffc8768:	687b      	ldr	r3, [r7, #4]
2ffc876a:	f04f 32ff 	mov.w	r2, #4294967295	@ 0xffffffff
2ffc876e:	f8c3 2178 	str.w	r2, [r3, #376]	@ 0x178
2ffc8772:	687a      	ldr	r2, [r7, #4]
2ffc8774:	f44f 5300 	mov.w	r3, #8192	@ 0x2000
2ffc8778:	f6c3 53b0 	movt	r3, #15792	@ 0x3db0
2ffc877c:	f8c2 317c 	str.w	r3, [r2, #380]	@ 0x17c
2ffc8780:	687b      	ldr	r3, [r7, #4]
2ffc8782:	f64c 6280 	movw	r2, #52864	@ 0xce80
2ffc8786:	f8c3 2130 	str.w	r2, [r3, #304]	@ 0x130
2ffc878a:	687b      	ldr	r3, [r7, #4]
2ffc878c:	f04f 4280 	mov.w	r2, #1073741824	@ 0x40000000
2ffc8790:	f8c3 2180 	str.w	r2, [r3, #384]	@ 0x180
2ffc8794:	687b      	ldr	r3, [r7, #4]
2ffc8796:	f04f 32ff 	mov.w	r2, #4294967295	@ 0xffffffff
2ffc879a:	f8c3 2184 	str.w	r2, [r3, #388]	@ 0x184
2ffc879e:	687a      	ldr	r2, [r7, #4]
2ffc87a0:	f44f 5300 	mov.w	r3, #8192	@ 0x2000
2ffc87a4:	f6c3 53b0 	movt	r3, #15792	@ 0x3db0
2ffc87a8:	f8c2 3188 	str.w	r3, [r2, #392]	@ 0x188
2ffc87ac:	bf00      	nop
2ffc87ae:	370c      	adds	r7, #12
2ffc87b0:	46bd      	mov	sp, r7
2ffc87b2:	f85d 7b04 	ldr.w	r7, [sp], #4
2ffc87b6:	4770      	bx	lr

2ffc87b8 <_ZN8mdrivlib12RegisterBitsINS_9ReadWriteELm1342177432ELm511EE4readEv>:
2ffc87b8:	b580      	push	{r7, lr}
2ffc87ba:	af00      	add	r7, sp, #0
2ffc87bc:	f240 12ff 	movw	r2, #511	@ 0x1ff
2ffc87c0:	2100      	movs	r1, #0
2ffc87c2:	2098      	movs	r0, #152	@ 0x98
2ffc87c4:	f2c5 0000 	movt	r0, #20480	@ 0x5000
2ffc87c8:	f7f8 fc13 	bl	2ffc0ff2 <_ZN8mdrivlib8ReadOnly4readEPVmmm>
2ffc87cc:	4603      	mov	r3, r0
2ffc87ce:	4618      	mov	r0, r3
2ffc87d0:	bd80      	pop	{r7, pc}

2ffc87d2 <_ZN8mdrivlib12RegisterBitsINS_9ReadWriteELm1342177432ELm4128768EE4readEv>:
2ffc87d2:	b580      	push	{r7, lr}
2ffc87d4:	af00      	add	r7, sp, #0
2ffc87d6:	f44f 127c 	mov.w	r2, #4128768	@ 0x3f0000
2ffc87da:	2110      	movs	r1, #16
2ffc87dc:	2098      	movs	r0, #152	@ 0x98
2ffc87de:	f2c5 0000 	movt	r0, #20480	@ 0x5000
2ffc87e2:	f7f8 fc06 	bl	2ffc0ff2 <_ZN8mdrivlib8ReadOnly4readEPVmmm>
2ffc87e6:	4603      	mov	r3, r0
2ffc87e8:	4618      	mov	r0, r3
2ffc87ea:	bd80      	pop	{r7, pc}

2ffc87ec <_ZN8mdrivlib12RegisterBitsINS_9ReadWriteELm1342177436ELm8323072EE4readEv>:
2ffc87ec:	b580      	push	{r7, lr}
2ffc87ee:	af00      	add	r7, sp, #0
2ffc87f0:	f44f 02fe 	mov.w	r2, #8323072	@ 0x7f0000
2ffc87f4:	2110      	movs	r1, #16
2ffc87f6:	209c      	movs	r0, #156	@ 0x9c
2ffc87f8:	f2c5 0000 	movt	r0, #20480	@ 0x5000
2ffc87fc:	f7f8 fbf9 	bl	2ffc0ff2 <_ZN8mdrivlib8ReadOnly4readEPVmmm>
2ffc8800:	4603      	mov	r3, r0
2ffc8802:	4618      	mov	r0, r3
2ffc8804:	bd80      	pop	{r7, pc}

2ffc8806 <_Z3logIJPKcjS1_jS1_EEvDpT_>:
2ffc8806:	b480      	push	{r7}
2ffc8808:	b085      	sub	sp, #20
2ffc880a:	af00      	add	r7, sp, #0
2ffc880c:	60f8      	str	r0, [r7, #12]
2ffc880e:	60b9      	str	r1, [r7, #8]
2ffc8810:	607a      	str	r2, [r7, #4]
2ffc8812:	603b      	str	r3, [r7, #0]
2ffc8814:	bf00      	nop
2ffc8816:	3714      	adds	r7, #20
2ffc8818:	46bd      	mov	sp, r7
2ffc881a:	f85d 7b04 	ldr.w	r7, [sp], #4
2ffc881e:	4770      	bx	lr

2ffc8820 <_Z6pr_errIJPKcjjEEvDpT_>:
2ffc8820:	b580      	push	{r7, lr}
2ffc8822:	b084      	sub	sp, #16
2ffc8824:	af00      	add	r7, sp, #0
2ffc8826:	60f8      	str	r0, [r7, #12]
2ffc8828:	60b9      	str	r1, [r7, #8]
2ffc882a:	607a      	str	r2, [r7, #4]
2ffc882c:	687a      	ldr	r2, [r7, #4]
2ffc882e:	68b9      	ldr	r1, [r7, #8]
2ffc8830:	68f8      	ldr	r0, [r7, #12]
2ffc8832:	f000 f813 	bl	2ffc885c <_Z5printIJPKcjjEEvDpT_>
2ffc8836:	bf00      	nop
2ffc8838:	3710      	adds	r7, #16
2ffc883a:	46bd      	mov	sp, r7
2ffc883c:	bd80      	pop	{r7, pc}

2ffc883e <_Z6pr_errIJPKcmjEEvDpT_>:
2ffc883e:	b580      	push	{r7, lr}
2ffc8840:	b084      	sub	sp, #16
2ffc8842:	af00      	add	r7, sp, #0
2ffc8844:	60f8      	str	r0, [r7, #12]
2ffc8846:	60b9      	str	r1, [r7, #8]
2ffc8848:	607a      	str	r2, [r7, #4]
2ffc884a:	687a      	ldr	r2, [r7, #4]
2ffc884c:	68b9      	ldr	r1, [r7, #8]
2ffc884e:	68f8      	ldr	r0, [r7, #12]
2ffc8850:	f000 f819 	bl	2ffc8886 <_Z5printIJPKcmjEEvDpT_>
2ffc8854:	bf00      	nop
2ffc8856:	3710      	adds	r7, #16
2ffc8858:	46bd      	mov	sp, r7
2ffc885a:	bd80      	pop	{r7, pc}

2ffc885c <_Z5printIJPKcjjEEvDpT_>:
2ffc885c:	b580      	push	{r7, lr}
2ffc885e:	b084      	sub	sp, #16
2ffc8860:	af00      	add	r7, sp, #0
2ffc8862:	60f8      	str	r0, [r7, #12]
2ffc8864:	60b9      	str	r1, [r7, #8]
2ffc8866:	607a      	str	r2, [r7, #4]
2ffc8868:	68f8      	ldr	r0, [r7, #12]
2ffc886a:	f7fd f9ed 	bl	2ffc5c48 <_Z8printonePKc>
2ffc886e:	68bb      	ldr	r3, [r7, #8]
2ffc8870:	4618      	mov	r0, r3
2ffc8872:	f7fd f9fe 	bl	2ffc5c72 <_Z8printonei>
2ffc8876:	687b      	ldr	r3, [r7, #4]
2ffc8878:	4618      	mov	r0, r3
2ffc887a:	f7fd f9fa 	bl	2ffc5c72 <_Z8printonei>
2ffc887e:	bf00      	nop
2ffc8880:	3710      	adds	r7, #16
2ffc8882:	46bd      	mov	sp, r7
2ffc8884:	bd80      	pop	{r7, pc}

2ffc8886 <_Z5printIJPKcmjEEvDpT_>:
2ffc8886:	b580      	push	{r7, lr}
2ffc8888:	b084      	sub	sp, #16
2ffc888a:	af00      	add	r7, sp, #0
2ffc888c:	60f8      	str	r0, [r7, #12]
2ffc888e:	60b9      	str	r1, [r7, #8]
2ffc8890:	607a      	str	r2, [r7, #4]
2ffc8892:	68f8      	ldr	r0, [r7, #12]
2ffc8894:	f7fd f9d8 	bl	2ffc5c48 <_Z8printonePKc>
2ffc8898:	68bb      	ldr	r3, [r7, #8]
2ffc889a:	4618      	mov	r0, r3
2ffc889c:	f7fd f9e9 	bl	2ffc5c72 <_Z8printonei>
2ffc88a0:	687b      	ldr	r3, [r7, #4]
2ffc88a2:	4618      	mov	r0, r3
2ffc88a4:	f7fd f9e5 	bl	2ffc5c72 <_Z8printonei>
2ffc88a8:	bf00      	nop
2ffc88aa:	3710      	adds	r7, #16
2ffc88ac:	46bd      	mov	sp, r7
2ffc88ae:	bd80      	pop	{r7, pc}

2ffc88b0 <abort>:
2ffc88b0:	2006      	movs	r0, #6
2ffc88b2:	b508      	push	{r3, lr}
2ffc88b4:	f000 f838 	bl	2ffc8928 <raise>
2ffc88b8:	2001      	movs	r0, #1
2ffc88ba:	f7f8 fb88 	bl	2ffc0fce <_exit>

2ffc88be <abs>:
2ffc88be:	2800      	cmp	r0, #0
2ffc88c0:	bfb8      	it	lt
2ffc88c2:	4240      	neglt	r0, r0
2ffc88c4:	4770      	bx	lr

2ffc88c6 <memset>:
2ffc88c6:	4402      	add	r2, r0
2ffc88c8:	4603      	mov	r3, r0
2ffc88ca:	4293      	cmp	r3, r2
2ffc88cc:	d100      	bne.n	2ffc88d0 <memset+0xa>
2ffc88ce:	4770      	bx	lr
2ffc88d0:	f803 1b01 	strb.w	r1, [r3], #1
2ffc88d4:	e7f9      	b.n	2ffc88ca <memset+0x4>

2ffc88d6 <_raise_r>:
2ffc88d6:	b538      	push	{r3, r4, r5, lr}
2ffc88d8:	291f      	cmp	r1, #31
2ffc88da:	4605      	mov	r5, r0
2ffc88dc:	460c      	mov	r4, r1
2ffc88de:	d904      	bls.n	2ffc88ea <_raise_r+0x14>
2ffc88e0:	2316      	movs	r3, #22
2ffc88e2:	6003      	str	r3, [r0, #0]
2ffc88e4:	f04f 30ff 	mov.w	r0, #4294967295	@ 0xffffffff
2ffc88e8:	bd38      	pop	{r3, r4, r5, pc}
2ffc88ea:	6bc2      	ldr	r2, [r0, #60]	@ 0x3c
2ffc88ec:	b112      	cbz	r2, 2ffc88f4 <_raise_r+0x1e>
2ffc88ee:	f852 3021 	ldr.w	r3, [r2, r1, lsl #2]
2ffc88f2:	b94b      	cbnz	r3, 2ffc8908 <_raise_r+0x32>
2ffc88f4:	4628      	mov	r0, r5
2ffc88f6:	f000 f831 	bl	2ffc895c <_getpid_r>
2ffc88fa:	4622      	mov	r2, r4
2ffc88fc:	4601      	mov	r1, r0
2ffc88fe:	4628      	mov	r0, r5
2ffc8900:	e8bd 4038 	ldmia.w	sp!, {r3, r4, r5, lr}
2ffc8904:	f000 b818 	b.w	2ffc8938 <_kill_r>
2ffc8908:	2b01      	cmp	r3, #1
2ffc890a:	d00a      	beq.n	2ffc8922 <_raise_r+0x4c>
2ffc890c:	1c59      	adds	r1, r3, #1
2ffc890e:	d103      	bne.n	2ffc8918 <_raise_r+0x42>
2ffc8910:	2316      	movs	r3, #22
2ffc8912:	6003      	str	r3, [r0, #0]
2ffc8914:	2001      	movs	r0, #1
2ffc8916:	e7e7      	b.n	2ffc88e8 <_raise_r+0x12>
2ffc8918:	2100      	movs	r1, #0
2ffc891a:	4620      	mov	r0, r4
2ffc891c:	f842 1024 	str.w	r1, [r2, r4, lsl #2]
2ffc8920:	4798      	blx	r3
2ffc8922:	2000      	movs	r0, #0
2ffc8924:	e7e0      	b.n	2ffc88e8 <_raise_r+0x12>
	...

2ffc8928 <raise>:
2ffc8928:	4b02      	ldr	r3, [pc, #8]	@ (2ffc8934 <raise+0xc>)
2ffc892a:	4601      	mov	r1, r0
2ffc892c:	6818      	ldr	r0, [r3, #0]
2ffc892e:	f7ff bfd2 	b.w	2ffc88d6 <_raise_r>
2ffc8932:	bf00      	nop
2ffc8934:	2ffca400 	.word	0x2ffca400

2ffc8938 <_kill_r>:
2ffc8938:	b538      	push	{r3, r4, r5, lr}
2ffc893a:	4604      	mov	r4, r0
2ffc893c:	4d06      	ldr	r5, [pc, #24]	@ (2ffc8958 <_kill_r+0x20>)
2ffc893e:	4608      	mov	r0, r1
2ffc8940:	4611      	mov	r1, r2
2ffc8942:	2300      	movs	r3, #0
2ffc8944:	602b      	str	r3, [r5, #0]
2ffc8946:	f7f8 fb32 	bl	2ffc0fae <_kill>
2ffc894a:	1c43      	adds	r3, r0, #1
2ffc894c:	d102      	bne.n	2ffc8954 <_kill_r+0x1c>
2ffc894e:	682b      	ldr	r3, [r5, #0]
2ffc8950:	b103      	cbz	r3, 2ffc8954 <_kill_r+0x1c>
2ffc8952:	6023      	str	r3, [r4, #0]
2ffc8954:	bd38      	pop	{r3, r4, r5, pc}
2ffc8956:	bf00      	nop
2ffc8958:	2ffcc674 	.word	0x2ffcc674

2ffc895c <_getpid_r>:
2ffc895c:	f7f8 bb1f 	b.w	2ffc0f9e <_getpid>

2ffc8960 <__errno>:
2ffc8960:	4b01      	ldr	r3, [pc, #4]	@ (2ffc8968 <__errno+0x8>)
2ffc8962:	6818      	ldr	r0, [r3, #0]
2ffc8964:	4770      	bx	lr
2ffc8966:	bf00      	nop
2ffc8968:	2ffca400 	.word	0x2ffca400

2ffc896c <__libc_init_array>:
2ffc896c:	b570      	push	{r4, r5, r6, lr}
2ffc896e:	2600      	movs	r6, #0
2ffc8970:	4d0c      	ldr	r5, [pc, #48]	@ (2ffc89a4 <__libc_init_array+0x38>)
2ffc8972:	4c0d      	ldr	r4, [pc, #52]	@ (2ffc89a8 <__libc_init_array+0x3c>)
2ffc8974:	1b64      	subs	r4, r4, r5
2ffc8976:	10a4      	asrs	r4, r4, #2
2ffc8978:	42a6      	cmp	r6, r4
2ffc897a:	d109      	bne.n	2ffc8990 <__libc_init_array+0x24>
2ffc897c:	4d0b      	ldr	r5, [pc, #44]	@ (2ffc89ac <__libc_init_array+0x40>)
2ffc897e:	2600      	movs	r6, #0
2ffc8980:	4c0b      	ldr	r4, [pc, #44]	@ (2ffc89b0 <__libc_init_array+0x44>)
2ffc8982:	f000 f817 	bl	2ffc89b4 <_init>
2ffc8986:	1b64      	subs	r4, r4, r5
2ffc8988:	10a4      	asrs	r4, r4, #2
2ffc898a:	42a6      	cmp	r6, r4
2ffc898c:	d105      	bne.n	2ffc899a <__libc_init_array+0x2e>
2ffc898e:	bd70      	pop	{r4, r5, r6, pc}
2ffc8990:	f855 3b04 	ldr.w	r3, [r5], #4
2ffc8994:	3601      	adds	r6, #1
2ffc8996:	4798      	blx	r3
2ffc8998:	e7ee      	b.n	2ffc8978 <__libc_init_array+0xc>
2ffc899a:	f855 3b04 	ldr.w	r3, [r5], #4
2ffc899e:	3601      	adds	r6, #1
2ffc89a0:	4798      	blx	r3
2ffc89a2:	e7f2      	b.n	2ffc898a <__libc_init_array+0x1e>
2ffc89a4:	2ffca000 	.word	0x2ffca000
2ffc89a8:	2ffca000 	.word	0x2ffca000
2ffc89ac:	2ffca000 	.word	0x2ffca000
2ffc89b0:	2ffca004 	.word	0x2ffca004

2ffc89b4 <_init>:
2ffc89b4:	b5f8      	push	{r3, r4, r5, r6, r7, lr}
2ffc89b6:	bf00      	nop
2ffc89b8:	bcf8      	pop	{r3, r4, r5, r6, r7}
2ffc89ba:	bc08      	pop	{r3}
2ffc89bc:	469e      	mov	lr, r3
2ffc89be:	4770      	bx	lr

2ffc89c0 <_fini>:
2ffc89c0:	b5f8      	push	{r3, r4, r5, r6, r7, lr}
2ffc89c2:	bf00      	nop
2ffc89c4:	bcf8      	pop	{r3, r4, r5, r6, r7}
2ffc89c6:	bc08      	pop	{r3}
2ffc89c8:	469e      	mov	lr, r3
2ffc89ca:	4770      	bx	lr
2ffc89cc:	0000      	movs	r0, r0
	...

2ffc89d0 <___tx_thread_context_save_from_thumb>:
2ffc89d0:	4778      	bx	pc
2ffc89d2:	e7fd      	b.n	2ffc89d0 <___tx_thread_context_save_from_thumb>
2ffc89d4:	eafff3ea 	b	2ffc5984 <_tx_thread_context_save>

2ffc89d8 <___tx_thread_context_restore_from_thumb>:
2ffc89d8:	4778      	bx	pc
2ffc89da:	e7fd      	b.n	2ffc89d8 <___tx_thread_context_restore_from_thumb>
2ffc89dc:	eafff3ad 	b	2ffc5898 <_tx_thread_context_restore>

2ffc89e0 <__TEXT_END_UNALIGNED__>:
	...

2ffc9000 <__RO_START__>:
2ffc9000:	00000061 	.word	0x00000061
2ffc9004:	444c2820 	.word	0x444c2820
2ffc9008:	435f334f 	.word	0x435f334f
2ffc900c:	3d202952 	.word	0x3d202952
2ffc9010:	00783020 	.word	0x00783020
2ffc9014:	746f7257 	.word	0x746f7257
2ffc9018:	4d502065 	.word	0x4d502065
2ffc901c:	72204349 	.word	0x72204349
2ffc9020:	00206765 	.word	0x00206765
2ffc9024:	0000000a 	.word	0x0000000a
2ffc9028:	55422820 	.word	0x55422820
2ffc902c:	5f324b43 	.word	0x5f324b43
2ffc9030:	20295243 	.word	0x20295243
2ffc9034:	7830203d 	.word	0x7830203d
2ffc9038:	00000000 	.word	0x00000000
2ffc903c:	45522820 	.word	0x45522820
2ffc9040:	52444446 	.word	0x52444446
2ffc9044:	2952435f 	.word	0x2952435f
2ffc9048:	30203d20 	.word	0x30203d20
2ffc904c:	00000078 	.word	0x00000078
2ffc9050:	00000079 	.word	0x00000079
2ffc9054:	6c696146 	.word	0x6c696146
2ffc9058:	74206465 	.word	0x74206465
2ffc905c:	6572206f 	.word	0x6572206f
2ffc9060:	66206461 	.word	0x66206461
2ffc9064:	206d6f72 	.word	0x206d6f72
2ffc9068:	43494d50 	.word	0x43494d50
2ffc906c:	0000000a 	.word	0x0000000a
2ffc9070:	64616552 	.word	0x64616552
2ffc9074:	20444920 	.word	0x20444920
2ffc9078:	6d6f7266 	.word	0x6d6f7266
2ffc907c:	494d5020 	.word	0x494d5020
2ffc9080:	00203a43 	.word	0x00203a43
2ffc9084:	504d0a0a 	.word	0x504d0a0a
2ffc9088:	6f422d31 	.word	0x6f422d31
2ffc908c:	0a0a746f 	.word	0x0a0a746f
2ffc9090:	00000000 	.word	0x00000000
2ffc9094:	0a7a4820 	.word	0x0a7a4820
2ffc9098:	00000000 	.word	0x00000000
2ffc909c:	2055504d 	.word	0x2055504d
2ffc90a0:	636f6c63 	.word	0x636f6c63
2ffc90a4:	00203a6b 	.word	0x00203a6b
2ffc90a8:	6c756f43 	.word	0x6c756f43
2ffc90ac:	6f6e2064 	.word	0x6f6e2064
2ffc90b0:	65732074 	.word	0x65732074
2ffc90b4:	20707574 	.word	0x20707574
2ffc90b8:	43494d50 	.word	0x43494d50
2ffc90bc:	44445620 	.word	0x44445620
2ffc90c0:	45524f43 	.word	0x45524f43
2ffc90c4:	0000000a 	.word	0x0000000a
2ffc90c8:	6c756f43 	.word	0x6c756f43
2ffc90cc:	6f6e2064 	.word	0x6f6e2064
2ffc90d0:	65732074 	.word	0x65732074
2ffc90d4:	20707574 	.word	0x20707574
2ffc90d8:	43494d50 	.word	0x43494d50
2ffc90dc:	52444420 	.word	0x52444420
2ffc90e0:	6c6f7620 	.word	0x6c6f7620
2ffc90e4:	65676174 	.word	0x65676174
2ffc90e8:	00000a73 	.word	0x00000a73
2ffc90ec:	74696e49 	.word	0x74696e49
2ffc90f0:	696c6169 	.word	0x696c6169
2ffc90f4:	676e697a 	.word	0x676e697a
2ffc90f8:	4d415220 	.word	0x4d415220
2ffc90fc:	0000000a 	.word	0x0000000a
2ffc9100:	4c494146 	.word	0x4c494146
2ffc9104:	0a214445 	.word	0x0a214445
2ffc9108:	00000000 	.word	0x00000000
2ffc910c:	50009000 	.word	0x50009000
2ffc9110:	00000080 	.word	0x00000080
2ffc9114:	00000000 	.word	0x00000000

2ffc9118 <_ZN13STM32MP1DiscoL6UartRXE>:
2ffc9118:	50003000 00000004 00000008              .0.P........

2ffc9124 <_ZN13STM32MP1DiscoL6UartTXE>:
2ffc9124:	50008000 00000800 00000006              ...P........

2ffc9130 <_ZN13STM32MP1Disco4PMICL10I2C_configE>:
2ffc9130:	5c002000 54004000 00000020 00000006     . .\.@.T .......
2ffc9140:	54004000 00000010 00000006 41207854     .@.T........Tx A
2ffc9150:	6d207070 726f6d65 6f702079 00006c6f     pp memory pool..
2ffc9160:	6e69614d 72685420 00646165 65726854     Main Thread.Thre
2ffc9170:	4f206461 0000656e 65726854 54206461     ad One..Thread T
2ffc9180:	00006f77 6e657645 6c462074 00006761     wo..Event Flag..
2ffc9190:	74737953 54206d65 72656d69 72685420     System Timer Thr
2ffc91a0:	00646165 00000030 0000002d              ead.0...-...

2ffc91ac <USART_PRESCALER_TAB>:
2ffc91ac:	00000001 00000002 00000004 00000006     ................
2ffc91bc:	00000008 0000000a 0000000c 00000010     ................
2ffc91cc:	00000020 00000040 00000080 00000100      ...@...........
2ffc91dc:	7274736d 00000000 7463726d 00306c72     mstr....mrctrl0.
2ffc91ec:	7463726d 00316c72 61726564 6e656574     mrctrl1.derateen
2ffc91fc:	00000000 61726564 6e696574 00000074     ....derateint...
2ffc920c:	63727770 00006c74 74727770 0000676d     pwrctl..pwrtmg..
2ffc921c:	706c7768 006c7463 68736672 306c7463     hwlpctl.rfshctl0
2ffc922c:	00000000 68736672 336c7463 00000000     ....rfshctl3....
2ffc923c:	70637263 74637261 0000306c 7463717a     crcparctl0..zqct
2ffc924c:	0000306c 74696664 0030676d 74696664     l0..dfitmg0.dfit
2ffc925c:	0031676d 6c696664 67666370 00000030     mg1.dfilpcfg0...
2ffc926c:	75696664 00306470 75696664 00316470     dfiupd0.dfiupd1.
2ffc927c:	75696664 00326470 70696664 736d7968     dfiupd2.dfiphyms
2ffc928c:	00007274 6d74646f 00007061 30676264     tr..odtmap..dbg0
2ffc929c:	00000000 31676264 00000000 63676264     ....dbg1....dbgc
2ffc92ac:	0000646d 73696f70 66636e6f 00000067     md..poisoncfg...
2ffc92bc:	66636370 00000067 68736672 00676d74     pccfg...rfshtmg.
2ffc92cc:	6d617264 30676d74 00000000 6d617264     dramtmg0....dram
2ffc92dc:	31676d74 00000000 6d617264 32676d74     tmg1....dramtmg2
2ffc92ec:	00000000 6d617264 33676d74 00000000     ....dramtmg3....
2ffc92fc:	6d617264 34676d74 00000000 6d617264     dramtmg4....dram
2ffc930c:	35676d74 00000000 6d617264 36676d74     tmg5....dramtmg6
2ffc931c:	00000000 6d617264 37676d74 00000000     ....dramtmg7....
2ffc932c:	6d617264 38676d74 00000000 6d617264     dramtmg8....dram
2ffc933c:	31676d74 00000034 6374646f 00006766     tmg14...odtcfg..
2ffc934c:	72646461 3170616d 00000000 72646461     addrmap1....addr
2ffc935c:	3270616d 00000000 72646461 3370616d     map2....addrmap3
2ffc936c:	00000000 72646461 3470616d 00000000     ....addrmap4....
2ffc937c:	72646461 3570616d 00000000 72646461     addrmap5....addr
2ffc938c:	3670616d 00000000 72646461 3970616d     map6....addrmap9
2ffc939c:	00000000 72646461 3170616d 00000030     ....addrmap10...
2ffc93ac:	72646461 3170616d 00000031 65686373     addrmap11...sche
2ffc93bc:	00000064 65686373 00003164 66726570     d...sched1..perf
2ffc93cc:	31727068 00000000 66726570 3172706c     hpr1....perflpr1
2ffc93dc:	00000000 66726570 00317277 67666370     ....perfwr1.pcfg
2ffc93ec:	00305f72 67666370 00305f77 67666370     r_0.pcfgw_0.pcfg
2ffc93fc:	30736f71 0000305f 67666370 31736f71     qos0_0..pcfgqos1
2ffc940c:	0000305f 67666370 736f7177 00305f30     _0..pcfgwqos0_0.
2ffc941c:	67666370 736f7177 00305f31 67666370     pcfgwqos1_0.pcfg
2ffc942c:	00315f72 67666370 00315f77 67666370     r_1.pcfgw_1.pcfg
2ffc943c:	30736f71 0000315f 67666370 31736f71     qos0_1..pcfgqos1
2ffc944c:	0000315f 67666370 736f7177 00315f30     _1..pcfgwqos0_1.
2ffc945c:	67666370 736f7177 00315f31 72636770     pcfgwqos1_1.pgcr
2ffc946c:	00000000 6f696361 00007263 63637864     ....aciocr..dxcc
2ffc947c:	00000072 63677364 00000072 00726364     r...dsgcr...dcr.
2ffc948c:	6374646f 00000072 6330717a 00003172     odtcr...zq0cr1..
2ffc949c:	67307864 00007263 67317864 00007263     dx0gcr..dx1gcr..
2ffc94ac:	67327864 00007263 67337864 00007263     dx2gcr..dx3gcr..
2ffc94bc:	30727470 00000000 31727470 00000000     ptr0....ptr1....
2ffc94cc:	32727470 00000000 72707464 00000030     ptr2....dtpr0...
2ffc94dc:	72707464 00000031 72707464 00000032     dtpr1...dtpr2...
2ffc94ec:	0030726d 0031726d 0032726d 0033726d     mr0.mr1.mr2.mr3.
2ffc94fc:	64307864 72636c6c 00000000 64307864     dx0dllcr....dx0d
2ffc950c:	00727471 64307864 72747371 00000000     qtr.dx0dqstr....
2ffc951c:	64317864 72636c6c 00000000 64317864     dx1dllcr....dx1d
2ffc952c:	00727471 64317864 72747371 00000000     qtr.dx1dqstr....
2ffc953c:	64327864 72636c6c 00000000 64327864     dx2dllcr....dx2d
2ffc954c:	00727471 64327864 72747371 00000000     qtr.dx2dqstr....
2ffc955c:	64337864 72636c6c 00000000 64337864     dx3dllcr....dx3d
2ffc956c:	00727471 64337864 72747371 00000000     qtr.dx3dqstr....
2ffc957c:	74617473 00006369 696d6974 0000676e     static..timing..
2ffc958c:	66726570 00000000 0070616d 006c6163     perf....map.cal.
2ffc959c:	006c7463 00796870 0000000a 74696e69     ctl.phy.....init
2ffc95ac:	00000020 61766e69 2064696c 61726170      ...invalid para
2ffc95bc:	6574656d 666f2072 74657366 726f6620     meter offset for
2ffc95cc:	00000020 0000205d 0078305b 7830203d      ...] ..[0x.= 0x
2ffc95dc:	00000000 20535144 65746147 61725420     ....DQS Gate Tra
2ffc95ec:	6e696e69 72452067 0a726f72 00000000     ining Error.....
2ffc95fc:	20535144 65746147 61725420 6e696e69     DQS Gate Trainin
2ffc960c:	6e492067 6d726574 65747469 4520746e     g Intermittent E
2ffc961c:	726f7272 0000000a 20535144 66697244     rror....DQS Drif
2ffc962c:	72452074 0a726f72 00000000 64616552     t Error.....Read
2ffc963c:	6c615620 54206469 6e696172 20676e69      Valid Training 
2ffc964c:	6f727245 00000a72 64616552 6c615620     Error...Read Val
2ffc965c:	54206469 6e696172 20676e69 65746e49     id Training Inte
2ffc966c:	74696d72 746e6574 72724520 000a726f     rmittent Error..
2ffc967c:	6770205d 3d207273 00783020 78305b0a     ] pgsr = 0x..[0x
2ffc968c:	00000000 6970205d 203d2072 00007830     ....] pir = 0x..
2ffc969c:	203e2d20 00007830 656d6954 2074756f      -> 0x..Timeout 
2ffc96ac:	74696e69 696c6169 676e6973 41524420     initialising DRA
2ffc96bc:	203a204d 2d524444 7377733e 20746174     M : DDR->swstat 
2ffc96cc:	0000203d 7773205d 74617473 30203d20     = ..] swstat = 0
2ffc96dc:	00000078 656d6954 2074756f 4d415244     x...Timeout DRAM
2ffc96ec:	44203a20 3e2d5244 74617473 00203d20      : DDR->stat = .
2ffc96fc:	7473205d 3d207461 00783020 20726464     ] stat = 0x.ddr 
2ffc970c:	65776f70 6e692072 66207469 656c6961     power init faile
2ffc971c:	00000a64 656d616e 00203d20 7a486b20     d...name = . kHz
2ffc972c:	0000000a 65657073 203d2064 00000000     ....speed = ....
2ffc973c:	657a6973 30203d20 00000078 61766e69     size = 0x...inva
2ffc974c:	2064696c 4d415244 6f6c6320 3a206b63     lid DRAM clock :
2ffc975c:	00000020 6664205d 73696d69 203d2063      ...] dfimisc = 
2ffc976c:	00007830 20524444 20535144 69617274     0x..DDR DQS trai
2ffc977c:	676e696e 696b7320 64657070 00000a2e     ning skipped....
2ffc978c:	20524444 20535144 69617274 676e696e     DDR DQS training
2ffc979c:	00203a20                                 : .

2ffc97a0 <_ZL7ddr_reg>:
2ffc97a0:	2ffc91dc 00000000 2ffc91e4 00040010     .../......./....
2ffc97b0:	2ffc91ec 00080014 2ffc91f4 000c0020     .../......./ ...
2ffc97c0:	2ffc9200 00100024 2ffc920c 00140030     .../$....../0...
2ffc97d0:	2ffc9214 00180034 2ffc921c 001c0038     .../4....../8...
2ffc97e0:	2ffc9224 00200050 2ffc9230 00240060     $../P. .0../`.$.
2ffc97f0:	2ffc923c 002800c0 2ffc9248 002c0180     <../..(.H../..,.
2ffc9800:	2ffc9250 00300190 2ffc9258 00340194     P../..0.X../..4.
2ffc9810:	2ffc9260 00380198 2ffc926c 003c01a0     `../..8.l../..<.
2ffc9820:	2ffc9274 004001a4 2ffc927c 004401a8     t../..@.|../..D.
2ffc9830:	2ffc9284 004801c4 2ffc9290 004c0244     .../..H..../D.L.
2ffc9840:	2ffc9298 00500300 2ffc92a0 00540304     .../..P..../..T.
2ffc9850:	2ffc92a8 0058030c 2ffc92b0 005c036c     .../..X..../l.\.
2ffc9860:	2ffc92bc 00600400                       .../..`.

2ffc9868 <_ZL10ddr_timing>:
2ffc9868:	2ffc92c4 00000064 2ffc92cc 00040100     .../d....../....
2ffc9878:	2ffc92d8 00080104 2ffc92e4 000c0108     .../......./....
2ffc9888:	2ffc92f0 0010010c 2ffc92fc 00140110     .../......./....
2ffc9898:	2ffc9308 00180114 2ffc9314 001c0118     .../......./....
2ffc98a8:	2ffc9320 0020011c 2ffc932c 00240120      ../.. .,../ .$.
2ffc98b8:	2ffc9338 00280138 2ffc9344 002c0240     8../8.(.D../@.,.

2ffc98c8 <_ZL7ddr_map>:
2ffc98c8:	2ffc934c 00000204 2ffc9358 00040208     L../....X../....
2ffc98d8:	2ffc9364 0008020c 2ffc9370 000c0210     d../....p../....
2ffc98e8:	2ffc937c 00100214 2ffc9388 00140218     |../......./....
2ffc98f8:	2ffc9394 00180224 2ffc93a0 001c0228     .../$....../(...
2ffc9908:	2ffc93ac 0020022c                       .../,. .

2ffc9910 <_ZL8ddr_perf>:
2ffc9910:	2ffc93b8 00000250 2ffc93c0 00040254     .../P....../T...
2ffc9920:	2ffc93c8 0008025c 2ffc93d4 000c0264     .../\....../d...
2ffc9930:	2ffc93e0 0010026c 2ffc93e8 00140404     .../l....../....
2ffc9940:	2ffc93f0 00180408 2ffc93f8 001c0494     .../......./....
2ffc9950:	2ffc9404 00200498 2ffc9410 0024049c     .../.. ..../..$.
2ffc9960:	2ffc941c 002804a0 2ffc9428 002c04b4     .../..(.(../..,.
2ffc9970:	2ffc9430 003004b8 2ffc9438 00340544     0../..0.8../D.4.
2ffc9980:	2ffc9444 00380548 2ffc9450 003c054c     D../H.8.P../L.<.
2ffc9990:	2ffc945c 00400550                       \../P.@.

2ffc9998 <_ZL10ddrphy_reg>:
2ffc9998:	2ffc9468 00000008 2ffc9470 00040024     h../....p../$...
2ffc99a8:	2ffc9478 00080028 2ffc9480 000c002c     x../(....../,...
2ffc99b8:	2ffc9488 00100030 2ffc948c 00140050     .../0....../P...
2ffc99c8:	2ffc9494 00180184 2ffc949c 001c01c0     .../......./....
2ffc99d8:	2ffc94a4 00200200 2ffc94ac 00240240     .../.. ..../@.$.
2ffc99e8:	2ffc94b4 00280280                       .../..(.

2ffc99f0 <_ZL13ddrphy_timing>:
2ffc99f0:	2ffc94bc 00000018 2ffc94c4 0004001c     .../......./....
2ffc9a00:	2ffc94cc 00080020 2ffc94d4 000c0034     .../ ....../4...
2ffc9a10:	2ffc94dc 00100038 2ffc94e4 0014003c     .../8....../<...
2ffc9a20:	2ffc94ec 00180040 2ffc94f0 001c0044     .../@....../D...
2ffc9a30:	2ffc94f4 00200048 2ffc94f8 0024004c     .../H. ..../L.$.

2ffc9a40 <_ZL10ddrphy_cal>:
2ffc9a40:	2ffc94fc 000001cc 2ffc9508 000401d0     .../......./....
2ffc9a50:	2ffc9510 000801d4 2ffc951c 000c020c     .../......./....
2ffc9a60:	2ffc9528 00100210 2ffc9530 00140214     (../....0../....
2ffc9a70:	2ffc953c 0018024c 2ffc9548 001c0250     <../L...H../P...
2ffc9a80:	2ffc9550 00200254 2ffc955c 0024028c     P../T. .\../..$.
2ffc9a90:	2ffc9568 00280290 2ffc9570 002c0294     h../..(.p../..,.

2ffc9aa0 <_ZL13ddr_registers>:
2ffc9aa0:	2ffc957c 2ffc97a0 00000019 2ffc9584     |../.../......./
2ffc9ab0:	2ffc9868 0000000c 2ffc958c 2ffc9910     h../......./.../
2ffc9ac0:	00000011 2ffc9594 2ffc98c8 00000009     ......./.../....
2ffc9ad0:	2ffc957c 2ffc9998 0000010b 2ffc9584     |../.../......./
2ffc9ae0:	2ffc99f0 0000010a 2ffc9598 2ffc9a40     .../......./@../
2ffc9af0:	0000010c 7a486b20 4352202c 00002043     .... kHz, RCC ..
2ffc9b00:	3a524444 6d656d20 6570735f 00206465     DDR: mem_speed .
2ffc9b10:	7a486b20 0000000a 20524444 65707865      kHz....DDR expe
2ffc9b20:	64657463 65726620 64252071 7a486b20     cted freq %d kHz
2ffc9b30:	7563202c 6e657272 73692074 20642520     , current is %d 
2ffc9b40:	0a7a486b 00000000 20524444 61766e69     kHz.....DDR inva
2ffc9b50:	2064696c 657a6973 30203a20 2c782578     lid size : 0x%x,
2ffc9b60:	70786520 65746365 78302064 000a7825      expected 0x%x..
2ffc9b70:	33524444 5244442d 31204c33 74696236     DDR3-DDR3L 16bit
2ffc9b80:	33352073 7a684d33 63694d20 206e6f72     s 533Mhz Micron 
2ffc9b90:	3134544d 3635324b 5436314d 30312d57     MT41K256M16TW-10
2ffc9ba0:	00503a37                                7:P.

2ffc9ba4 <__RO_END_UNALIGNED__>:
	...
